
src/mcrypt:     file format elf32-i386


Disassembly of section .init:

080493c0 <_init>:
 80493c0:	53                   	push   %ebx
 80493c1:	83 ec 08             	sub    $0x8,%esp
 80493c4:	e8 17 07 00 00       	call   8049ae0 <__x86.get_pc_thunk.bx>
 80493c9:	81 c3 37 fc 00 00    	add    $0xfc37,%ebx
 80493cf:	8b 83 fc ff ff ff    	mov    -0x4(%ebx),%eax
 80493d5:	85 c0                	test   %eax,%eax
 80493d7:	74 05                	je     80493de <_init+0x1e>
 80493d9:	e8 72 03 00 00       	call   8049750 <__gmon_start__@plt>
 80493de:	83 c4 08             	add    $0x8,%esp
 80493e1:	5b                   	pop    %ebx
 80493e2:	c3                   	ret    

Disassembly of section .plt:

080493f0 <mcrypt_module_is_block_algorithm_mode@plt-0x10>:
 80493f0:	ff 35 04 90 05 08    	pushl  0x8059004
 80493f6:	ff 25 08 90 05 08    	jmp    *0x8059008
 80493fc:	00 00                	add    %al,(%eax)
	...

08049400 <mcrypt_module_is_block_algorithm_mode@plt>:
 8049400:	ff 25 0c 90 05 08    	jmp    *0x805900c
 8049406:	68 00 00 00 00       	push   $0x0
 804940b:	e9 e0 ff ff ff       	jmp    80493f0 <_init+0x30>

08049410 <setbuf@plt>:
 8049410:	ff 25 10 90 05 08    	jmp    *0x8059010
 8049416:	68 08 00 00 00       	push   $0x8
 804941b:	e9 d0 ff ff ff       	jmp    80493f0 <_init+0x30>

08049420 <dup2@plt>:
 8049420:	ff 25 14 90 05 08    	jmp    *0x8059014
 8049426:	68 10 00 00 00       	push   $0x10
 804942b:	e9 c0 ff ff ff       	jmp    80493f0 <_init+0x30>

08049430 <strstr@plt>:
 8049430:	ff 25 18 90 05 08    	jmp    *0x8059018
 8049436:	68 18 00 00 00       	push   $0x18
 804943b:	e9 b0 ff ff ff       	jmp    80493f0 <_init+0x30>

08049440 <strcmp@plt>:
 8049440:	ff 25 1c 90 05 08    	jmp    *0x805901c
 8049446:	68 20 00 00 00       	push   $0x20
 804944b:	e9 a0 ff ff ff       	jmp    80493f0 <_init+0x30>

08049450 <read@plt>:
 8049450:	ff 25 20 90 05 08    	jmp    *0x8059020
 8049456:	68 28 00 00 00       	push   $0x28
 804945b:	e9 90 ff ff ff       	jmp    80493f0 <_init+0x30>

08049460 <mcrypt_enc_mode_has_iv@plt>:
 8049460:	ff 25 24 90 05 08    	jmp    *0x8059024
 8049466:	68 30 00 00 00       	push   $0x30
 804946b:	e9 80 ff ff ff       	jmp    80493f0 <_init+0x30>

08049470 <getpwuid@plt>:
 8049470:	ff 25 28 90 05 08    	jmp    *0x8059028
 8049476:	68 38 00 00 00       	push   $0x38
 804947b:	e9 70 ff ff ff       	jmp    80493f0 <_init+0x30>

08049480 <printf@plt>:
 8049480:	ff 25 2c 90 05 08    	jmp    *0x805902c
 8049486:	68 40 00 00 00       	push   $0x40
 804948b:	e9 60 ff ff ff       	jmp    80493f0 <_init+0x30>

08049490 <__isoc99_fscanf@plt>:
 8049490:	ff 25 30 90 05 08    	jmp    *0x8059030
 8049496:	68 48 00 00 00       	push   $0x48
 804949b:	e9 50 ff ff ff       	jmp    80493f0 <_init+0x30>

080494a0 <fflush@plt>:
 80494a0:	ff 25 34 90 05 08    	jmp    *0x8059034
 80494a6:	68 50 00 00 00       	push   $0x50
 80494ab:	e9 40 ff ff ff       	jmp    80493f0 <_init+0x30>

080494b0 <mcrypt_list_algorithms@plt>:
 80494b0:	ff 25 38 90 05 08    	jmp    *0x8059038
 80494b6:	68 58 00 00 00       	push   $0x58
 80494bb:	e9 30 ff ff ff       	jmp    80493f0 <_init+0x30>

080494c0 <mhash@plt>:
 80494c0:	ff 25 3c 90 05 08    	jmp    *0x805903c
 80494c6:	68 60 00 00 00       	push   $0x60
 80494cb:	e9 20 ff ff ff       	jmp    80493f0 <_init+0x30>

080494d0 <mcrypt_module_open@plt>:
 80494d0:	ff 25 40 90 05 08    	jmp    *0x8059040
 80494d6:	68 68 00 00 00       	push   $0x68
 80494db:	e9 10 ff ff ff       	jmp    80493f0 <_init+0x30>

080494e0 <memmove@plt>:
 80494e0:	ff 25 44 90 05 08    	jmp    *0x8059044
 80494e6:	68 70 00 00 00       	push   $0x70
 80494eb:	e9 00 ff ff ff       	jmp    80493f0 <_init+0x30>

080494f0 <free@plt>:
 80494f0:	ff 25 48 90 05 08    	jmp    *0x8059048
 80494f6:	68 78 00 00 00       	push   $0x78
 80494fb:	e9 f0 fe ff ff       	jmp    80493f0 <_init+0x30>

08049500 <strdup@plt>:
 8049500:	ff 25 4c 90 05 08    	jmp    *0x805904c
 8049506:	68 80 00 00 00       	push   $0x80
 804950b:	e9 e0 fe ff ff       	jmp    80493f0 <_init+0x30>

08049510 <mhash_keygen_uses_salt@plt>:
 8049510:	ff 25 50 90 05 08    	jmp    *0x8059050
 8049516:	68 88 00 00 00       	push   $0x88
 804951b:	e9 d0 fe ff ff       	jmp    80493f0 <_init+0x30>

08049520 <ferror@plt>:
 8049520:	ff 25 54 90 05 08    	jmp    *0x8059054
 8049526:	68 90 00 00 00       	push   $0x90
 804952b:	e9 c0 fe ff ff       	jmp    80493f0 <_init+0x30>

08049530 <fgets@plt>:
 8049530:	ff 25 58 90 05 08    	jmp    *0x8059058
 8049536:	68 98 00 00 00       	push   $0x98
 804953b:	e9 b0 fe ff ff       	jmp    80493f0 <_init+0x30>

08049540 <tolower@plt>:
 8049540:	ff 25 5c 90 05 08    	jmp    *0x805905c
 8049546:	68 a0 00 00 00       	push   $0xa0
 804954b:	e9 a0 fe ff ff       	jmp    80493f0 <_init+0x30>

08049550 <fclose@plt>:
 8049550:	ff 25 60 90 05 08    	jmp    *0x8059060
 8049556:	68 a8 00 00 00       	push   $0xa8
 804955b:	e9 90 fe ff ff       	jmp    80493f0 <_init+0x30>

08049560 <memcmp@plt>:
 8049560:	ff 25 64 90 05 08    	jmp    *0x8059064
 8049566:	68 b0 00 00 00       	push   $0xb0
 804956b:	e9 80 fe ff ff       	jmp    80493f0 <_init+0x30>

08049570 <mhash_get_block_size@plt>:
 8049570:	ff 25 68 90 05 08    	jmp    *0x8059068
 8049576:	68 b8 00 00 00       	push   $0xb8
 804957b:	e9 70 fe ff ff       	jmp    80493f0 <_init+0x30>

08049580 <alarm@plt>:
 8049580:	ff 25 6c 90 05 08    	jmp    *0x805906c
 8049586:	68 c0 00 00 00       	push   $0xc0
 804958b:	e9 60 fe ff ff       	jmp    80493f0 <_init+0x30>

08049590 <mcrypt_module_get_algo_supported_key_sizes@plt>:
 8049590:	ff 25 70 90 05 08    	jmp    *0x8059070
 8049596:	68 c8 00 00 00       	push   $0xc8
 804959b:	e9 50 fe ff ff       	jmp    80493f0 <_init+0x30>

080495a0 <mcrypt_generic_init@plt>:
 80495a0:	ff 25 74 90 05 08    	jmp    *0x8059074
 80495a6:	68 d0 00 00 00       	push   $0xd0
 80495ab:	e9 40 fe ff ff       	jmp    80493f0 <_init+0x30>

080495b0 <popen@plt>:
 80495b0:	ff 25 78 90 05 08    	jmp    *0x8059078
 80495b6:	68 d8 00 00 00       	push   $0xd8
 80495bb:	e9 30 fe ff ff       	jmp    80493f0 <_init+0x30>

080495c0 <execlp@plt>:
 80495c0:	ff 25 7c 90 05 08    	jmp    *0x805907c
 80495c6:	68 e0 00 00 00       	push   $0xe0
 80495cb:	e9 20 fe ff ff       	jmp    80493f0 <_init+0x30>

080495d0 <mcrypt_module_is_block_algorithm@plt>:
 80495d0:	ff 25 80 90 05 08    	jmp    *0x8059080
 80495d6:	68 e8 00 00 00       	push   $0xe8
 80495db:	e9 10 fe ff ff       	jmp    80493f0 <_init+0x30>

080495e0 <getuid@plt>:
 80495e0:	ff 25 84 90 05 08    	jmp    *0x8059084
 80495e6:	68 f0 00 00 00       	push   $0xf0
 80495eb:	e9 00 fe ff ff       	jmp    80493f0 <_init+0x30>

080495f0 <unlink@plt>:
 80495f0:	ff 25 88 90 05 08    	jmp    *0x8059088
 80495f6:	68 f8 00 00 00       	push   $0xf8
 80495fb:	e9 f0 fd ff ff       	jmp    80493f0 <_init+0x30>

08049600 <textdomain@plt>:
 8049600:	ff 25 8c 90 05 08    	jmp    *0x805908c
 8049606:	68 00 01 00 00       	push   $0x100
 804960b:	e9 e0 fd ff ff       	jmp    80493f0 <_init+0x30>

08049610 <execvp@plt>:
 8049610:	ff 25 90 90 05 08    	jmp    *0x8059090
 8049616:	68 08 01 00 00       	push   $0x108
 804961b:	e9 d0 fd ff ff       	jmp    80493f0 <_init+0x30>

08049620 <_IO_putc@plt>:
 8049620:	ff 25 94 90 05 08    	jmp    *0x8059094
 8049626:	68 10 01 00 00       	push   $0x110
 804962b:	e9 c0 fd ff ff       	jmp    80493f0 <_init+0x30>

08049630 <mhash_get_hash_name@plt>:
 8049630:	ff 25 98 90 05 08    	jmp    *0x8059098
 8049636:	68 18 01 00 00       	push   $0x118
 804963b:	e9 b0 fd ff ff       	jmp    80493f0 <_init+0x30>

08049640 <fseek@plt>:
 8049640:	ff 25 9c 90 05 08    	jmp    *0x805909c
 8049646:	68 20 01 00 00       	push   $0x120
 804964b:	e9 a0 fd ff ff       	jmp    80493f0 <_init+0x30>

08049650 <__xstat@plt>:
 8049650:	ff 25 a0 90 05 08    	jmp    *0x80590a0
 8049656:	68 28 01 00 00       	push   $0x128
 804965b:	e9 90 fd ff ff       	jmp    80493f0 <_init+0x30>

08049660 <perror@plt>:
 8049660:	ff 25 a4 90 05 08    	jmp    *0x80590a4
 8049666:	68 30 01 00 00       	push   $0x130
 804966b:	e9 80 fd ff ff       	jmp    80493f0 <_init+0x30>

08049670 <fwrite@plt>:
 8049670:	ff 25 a8 90 05 08    	jmp    *0x80590a8
 8049676:	68 38 01 00 00       	push   $0x138
 804967b:	e9 70 fd ff ff       	jmp    80493f0 <_init+0x30>

08049680 <waitpid@plt>:
 8049680:	ff 25 ac 90 05 08    	jmp    *0x80590ac
 8049686:	68 40 01 00 00       	push   $0x140
 804968b:	e9 60 fd ff ff       	jmp    80493f0 <_init+0x30>

08049690 <strcat@plt>:
 8049690:	ff 25 b0 90 05 08    	jmp    *0x80590b0
 8049696:	68 48 01 00 00       	push   $0x148
 804969b:	e9 50 fd ff ff       	jmp    80493f0 <_init+0x30>

080496a0 <mhash_keygen_ext@plt>:
 80496a0:	ff 25 b4 90 05 08    	jmp    *0x80590b4
 80496a6:	68 50 01 00 00       	push   $0x150
 80496ab:	e9 40 fd ff ff       	jmp    80493f0 <_init+0x30>

080496b0 <fread@plt>:
 80496b0:	ff 25 b8 90 05 08    	jmp    *0x80590b8
 80496b6:	68 58 01 00 00       	push   $0x158
 80496bb:	e9 30 fd ff ff       	jmp    80493f0 <_init+0x30>

080496c0 <mcrypt_generic_end@plt>:
 80496c0:	ff 25 bc 90 05 08    	jmp    *0x80590bc
 80496c6:	68 60 01 00 00       	push   $0x160
 80496cb:	e9 20 fd ff ff       	jmp    80493f0 <_init+0x30>

080496d0 <strcpy@plt>:
 80496d0:	ff 25 c0 90 05 08    	jmp    *0x80590c0
 80496d6:	68 68 01 00 00       	push   $0x168
 80496db:	e9 10 fd ff ff       	jmp    80493f0 <_init+0x30>

080496e0 <getpid@plt>:
 80496e0:	ff 25 c4 90 05 08    	jmp    *0x80590c4
 80496e6:	68 70 01 00 00       	push   $0x170
 80496eb:	e9 00 fd ff ff       	jmp    80493f0 <_init+0x30>

080496f0 <tcsetattr@plt>:
 80496f0:	ff 25 c8 90 05 08    	jmp    *0x80590c8
 80496f6:	68 78 01 00 00       	push   $0x178
 80496fb:	e9 f0 fc ff ff       	jmp    80493f0 <_init+0x30>

08049700 <strcoll@plt>:
 8049700:	ff 25 cc 90 05 08    	jmp    *0x80590cc
 8049706:	68 80 01 00 00       	push   $0x180
 804970b:	e9 e0 fc ff ff       	jmp    80493f0 <_init+0x30>

08049710 <getenv@plt>:
 8049710:	ff 25 d0 90 05 08    	jmp    *0x80590d0
 8049716:	68 88 01 00 00       	push   $0x188
 804971b:	e9 d0 fc ff ff       	jmp    80493f0 <_init+0x30>

08049720 <realloc@plt>:
 8049720:	ff 25 d4 90 05 08    	jmp    *0x80590d4
 8049726:	68 90 01 00 00       	push   $0x190
 804972b:	e9 c0 fc ff ff       	jmp    80493f0 <_init+0x30>

08049730 <malloc@plt>:
 8049730:	ff 25 d8 90 05 08    	jmp    *0x80590d8
 8049736:	68 98 01 00 00       	push   $0x198
 804973b:	e9 b0 fc ff ff       	jmp    80493f0 <_init+0x30>

08049740 <puts@plt>:
 8049740:	ff 25 dc 90 05 08    	jmp    *0x80590dc
 8049746:	68 a0 01 00 00       	push   $0x1a0
 804974b:	e9 a0 fc ff ff       	jmp    80493f0 <_init+0x30>

08049750 <__gmon_start__@plt>:
 8049750:	ff 25 e0 90 05 08    	jmp    *0x80590e0
 8049756:	68 a8 01 00 00       	push   $0x1a8
 804975b:	e9 90 fc ff ff       	jmp    80493f0 <_init+0x30>

08049760 <mhash_get_keygen_salt_size@plt>:
 8049760:	ff 25 e4 90 05 08    	jmp    *0x80590e4
 8049766:	68 b0 01 00 00       	push   $0x1b0
 804976b:	e9 80 fc ff ff       	jmp    80493f0 <_init+0x30>

08049770 <mdecrypt_generic@plt>:
 8049770:	ff 25 e8 90 05 08    	jmp    *0x80590e8
 8049776:	68 b8 01 00 00       	push   $0x1b8
 804977b:	e9 70 fc ff ff       	jmp    80493f0 <_init+0x30>

08049780 <exit@plt>:
 8049780:	ff 25 ec 90 05 08    	jmp    *0x80590ec
 8049786:	68 c0 01 00 00       	push   $0x1c0
 804978b:	e9 60 fc ff ff       	jmp    80493f0 <_init+0x30>

08049790 <kill@plt>:
 8049790:	ff 25 f0 90 05 08    	jmp    *0x80590f0
 8049796:	68 c8 01 00 00       	push   $0x1c8
 804979b:	e9 50 fc ff ff       	jmp    80493f0 <_init+0x30>

080497a0 <open@plt>:
 80497a0:	ff 25 f4 90 05 08    	jmp    *0x80590f4
 80497a6:	68 d0 01 00 00       	push   $0x1d0
 80497ab:	e9 40 fc ff ff       	jmp    80493f0 <_init+0x30>

080497b0 <gettext@plt>:
 80497b0:	ff 25 f8 90 05 08    	jmp    *0x80590f8
 80497b6:	68 d8 01 00 00       	push   $0x1d8
 80497bb:	e9 30 fc ff ff       	jmp    80493f0 <_init+0x30>

080497c0 <fdopen@plt>:
 80497c0:	ff 25 fc 90 05 08    	jmp    *0x80590fc
 80497c6:	68 e0 01 00 00       	push   $0x1e0
 80497cb:	e9 20 fc ff ff       	jmp    80493f0 <_init+0x30>

080497d0 <pclose@plt>:
 80497d0:	ff 25 00 91 05 08    	jmp    *0x8059100
 80497d6:	68 e8 01 00 00       	push   $0x1e8
 80497db:	e9 10 fc ff ff       	jmp    80493f0 <_init+0x30>

080497e0 <mcrypt_enc_get_block_size@plt>:
 80497e0:	ff 25 04 91 05 08    	jmp    *0x8059104
 80497e6:	68 f0 01 00 00       	push   $0x1f0
 80497eb:	e9 00 fc ff ff       	jmp    80493f0 <_init+0x30>

080497f0 <strchr@plt>:
 80497f0:	ff 25 08 91 05 08    	jmp    *0x8059108
 80497f6:	68 f8 01 00 00       	push   $0x1f8
 80497fb:	e9 f0 fb ff ff       	jmp    80493f0 <_init+0x30>

08049800 <mcrypt_module_close@plt>:
 8049800:	ff 25 0c 91 05 08    	jmp    *0x805910c
 8049806:	68 00 02 00 00       	push   $0x200
 804980b:	e9 e0 fb ff ff       	jmp    80493f0 <_init+0x30>

08049810 <strlen@plt>:
 8049810:	ff 25 10 91 05 08    	jmp    *0x8059110
 8049816:	68 08 02 00 00       	push   $0x208
 804981b:	e9 d0 fb ff ff       	jmp    80493f0 <_init+0x30>

08049820 <__libc_start_main@plt>:
 8049820:	ff 25 14 91 05 08    	jmp    *0x8059114
 8049826:	68 10 02 00 00       	push   $0x210
 804982b:	e9 c0 fb ff ff       	jmp    80493f0 <_init+0x30>

08049830 <fprintf@plt>:
 8049830:	ff 25 18 91 05 08    	jmp    *0x8059118
 8049836:	68 18 02 00 00       	push   $0x218
 804983b:	e9 b0 fb ff ff       	jmp    80493f0 <_init+0x30>

08049840 <strcasecmp@plt>:
 8049840:	ff 25 1c 91 05 08    	jmp    *0x805911c
 8049846:	68 20 02 00 00       	push   $0x220
 804984b:	e9 a0 fb ff ff       	jmp    80493f0 <_init+0x30>

08049850 <mhash_init@plt>:
 8049850:	ff 25 20 91 05 08    	jmp    *0x8059120
 8049856:	68 28 02 00 00       	push   $0x228
 804985b:	e9 90 fb ff ff       	jmp    80493f0 <_init+0x30>

08049860 <fcntl@plt>:
 8049860:	ff 25 24 91 05 08    	jmp    *0x8059124
 8049866:	68 30 02 00 00       	push   $0x230
 804986b:	e9 80 fb ff ff       	jmp    80493f0 <_init+0x30>

08049870 <mcrypt_list_modes@plt>:
 8049870:	ff 25 28 91 05 08    	jmp    *0x8059128
 8049876:	68 38 02 00 00       	push   $0x238
 804987b:	e9 70 fb ff ff       	jmp    80493f0 <_init+0x30>

08049880 <ftell@plt>:
 8049880:	ff 25 2c 91 05 08    	jmp    *0x805912c
 8049886:	68 40 02 00 00       	push   $0x240
 804988b:	e9 60 fb ff ff       	jmp    80493f0 <_init+0x30>

08049890 <__isoc99_sscanf@plt>:
 8049890:	ff 25 30 91 05 08    	jmp    *0x8059130
 8049896:	68 48 02 00 00       	push   $0x248
 804989b:	e9 50 fb ff ff       	jmp    80493f0 <_init+0x30>

080498a0 <fopen@plt>:
 80498a0:	ff 25 34 91 05 08    	jmp    *0x8059134
 80498a6:	68 50 02 00 00       	push   $0x250
 80498ab:	e9 40 fb ff ff       	jmp    80493f0 <_init+0x30>

080498b0 <memset@plt>:
 80498b0:	ff 25 38 91 05 08    	jmp    *0x8059138
 80498b6:	68 58 02 00 00       	push   $0x258
 80498bb:	e9 30 fb ff ff       	jmp    80493f0 <_init+0x30>

080498c0 <putchar@plt>:
 80498c0:	ff 25 3c 91 05 08    	jmp    *0x805913c
 80498c6:	68 60 02 00 00       	push   $0x260
 80498cb:	e9 20 fb ff ff       	jmp    80493f0 <_init+0x30>

080498d0 <strncpy@plt>:
 80498d0:	ff 25 40 91 05 08    	jmp    *0x8059140
 80498d6:	68 68 02 00 00       	push   $0x268
 80498db:	e9 10 fb ff ff       	jmp    80493f0 <_init+0x30>

080498e0 <mcrypt_perror@plt>:
 80498e0:	ff 25 44 91 05 08    	jmp    *0x8059144
 80498e6:	68 70 02 00 00       	push   $0x270
 80498eb:	e9 00 fb ff ff       	jmp    80493f0 <_init+0x30>

080498f0 <fileno@plt>:
 80498f0:	ff 25 48 91 05 08    	jmp    *0x8059148
 80498f6:	68 78 02 00 00       	push   $0x278
 80498fb:	e9 f0 fa ff ff       	jmp    80493f0 <_init+0x30>

08049900 <fgetc@plt>:
 8049900:	ff 25 4c 91 05 08    	jmp    *0x805914c
 8049906:	68 80 02 00 00       	push   $0x280
 804990b:	e9 e0 fa ff ff       	jmp    80493f0 <_init+0x30>

08049910 <mcrypt_generic@plt>:
 8049910:	ff 25 50 91 05 08    	jmp    *0x8059150
 8049916:	68 88 02 00 00       	push   $0x288
 804991b:	e9 d0 fa ff ff       	jmp    80493f0 <_init+0x30>

08049920 <pipe@plt>:
 8049920:	ff 25 54 91 05 08    	jmp    *0x8059154
 8049926:	68 90 02 00 00       	push   $0x290
 804992b:	e9 c0 fa ff ff       	jmp    80493f0 <_init+0x30>

08049930 <__sigsetjmp@plt>:
 8049930:	ff 25 58 91 05 08    	jmp    *0x8059158
 8049936:	68 98 02 00 00       	push   $0x298
 804993b:	e9 b0 fa ff ff       	jmp    80493f0 <_init+0x30>

08049940 <fork@plt>:
 8049940:	ff 25 5c 91 05 08    	jmp    *0x805915c
 8049946:	68 a0 02 00 00       	push   $0x2a0
 804994b:	e9 a0 fa ff ff       	jmp    80493f0 <_init+0x30>

08049950 <sigemptyset@plt>:
 8049950:	ff 25 60 91 05 08    	jmp    *0x8059160
 8049956:	68 a8 02 00 00       	push   $0x2a8
 804995b:	e9 90 fa ff ff       	jmp    80493f0 <_init+0x30>

08049960 <setlocale@plt>:
 8049960:	ff 25 64 91 05 08    	jmp    *0x8059164
 8049966:	68 b0 02 00 00       	push   $0x2b0
 804996b:	e9 80 fa ff ff       	jmp    80493f0 <_init+0x30>

08049970 <utime@plt>:
 8049970:	ff 25 68 91 05 08    	jmp    *0x8059168
 8049976:	68 b8 02 00 00       	push   $0x2b8
 804997b:	e9 70 fa ff ff       	jmp    80493f0 <_init+0x30>

08049980 <mcrypt_module_get_algo_key_size@plt>:
 8049980:	ff 25 6c 91 05 08    	jmp    *0x805916c
 8049986:	68 c0 02 00 00       	push   $0x2c0
 804998b:	e9 60 fa ff ff       	jmp    80493f0 <_init+0x30>

08049990 <mcrypt_enc_is_block_mode@plt>:
 8049990:	ff 25 70 91 05 08    	jmp    *0x8059170
 8049996:	68 c8 02 00 00       	push   $0x2c8
 804999b:	e9 50 fa ff ff       	jmp    80493f0 <_init+0x30>

080499a0 <mhash_end@plt>:
 80499a0:	ff 25 74 91 05 08    	jmp    *0x8059174
 80499a6:	68 d0 02 00 00       	push   $0x2d0
 80499ab:	e9 40 fa ff ff       	jmp    80493f0 <_init+0x30>

080499b0 <sprintf@plt>:
 80499b0:	ff 25 78 91 05 08    	jmp    *0x8059178
 80499b6:	68 d8 02 00 00       	push   $0x2d8
 80499bb:	e9 30 fa ff ff       	jmp    80493f0 <_init+0x30>

080499c0 <remove@plt>:
 80499c0:	ff 25 7c 91 05 08    	jmp    *0x805917c
 80499c6:	68 e0 02 00 00       	push   $0x2e0
 80499cb:	e9 20 fa ff ff       	jmp    80493f0 <_init+0x30>

080499d0 <__lxstat@plt>:
 80499d0:	ff 25 80 91 05 08    	jmp    *0x8059180
 80499d6:	68 e8 02 00 00       	push   $0x2e8
 80499db:	e9 10 fa ff ff       	jmp    80493f0 <_init+0x30>

080499e0 <sigaction@plt>:
 80499e0:	ff 25 84 91 05 08    	jmp    *0x8059184
 80499e6:	68 f0 02 00 00       	push   $0x2f0
 80499eb:	e9 00 fa ff ff       	jmp    80493f0 <_init+0x30>

080499f0 <mcrypt_enc_get_iv_size@plt>:
 80499f0:	ff 25 88 91 05 08    	jmp    *0x8059188
 80499f6:	68 f8 02 00 00       	push   $0x2f8
 80499fb:	e9 f0 f9 ff ff       	jmp    80493f0 <_init+0x30>

08049a00 <bindtextdomain@plt>:
 8049a00:	ff 25 8c 91 05 08    	jmp    *0x805918c
 8049a06:	68 00 03 00 00       	push   $0x300
 8049a0b:	e9 e0 f9 ff ff       	jmp    80493f0 <_init+0x30>

08049a10 <isatty@plt>:
 8049a10:	ff 25 90 91 05 08    	jmp    *0x8059190
 8049a16:	68 08 03 00 00       	push   $0x308
 8049a1b:	e9 d0 f9 ff ff       	jmp    80493f0 <_init+0x30>

08049a20 <tcgetattr@plt>:
 8049a20:	ff 25 94 91 05 08    	jmp    *0x8059194
 8049a26:	68 10 03 00 00       	push   $0x310
 8049a2b:	e9 c0 f9 ff ff       	jmp    80493f0 <_init+0x30>

08049a30 <umask@plt>:
 8049a30:	ff 25 98 91 05 08    	jmp    *0x8059198
 8049a36:	68 18 03 00 00       	push   $0x318
 8049a3b:	e9 b0 f9 ff ff       	jmp    80493f0 <_init+0x30>

08049a40 <fputs@plt>:
 8049a40:	ff 25 9c 91 05 08    	jmp    *0x805919c
 8049a46:	68 20 03 00 00       	push   $0x320
 8049a4b:	e9 a0 f9 ff ff       	jmp    80493f0 <_init+0x30>

08049a50 <close@plt>:
 8049a50:	ff 25 a0 91 05 08    	jmp    *0x80591a0
 8049a56:	68 28 03 00 00       	push   $0x328
 8049a5b:	e9 90 f9 ff ff       	jmp    80493f0 <_init+0x30>

08049a60 <mcrypt_free_p@plt>:
 8049a60:	ff 25 a4 91 05 08    	jmp    *0x80591a4
 8049a66:	68 30 03 00 00       	push   $0x330
 8049a6b:	e9 80 f9 ff ff       	jmp    80493f0 <_init+0x30>

08049a70 <siglongjmp@plt>:
 8049a70:	ff 25 a8 91 05 08    	jmp    *0x80591a8
 8049a76:	68 38 03 00 00       	push   $0x338
 8049a7b:	e9 70 f9 ff ff       	jmp    80493f0 <_init+0x30>

08049a80 <__ctype_b_loc@plt>:
 8049a80:	ff 25 ac 91 05 08    	jmp    *0x80591ac
 8049a86:	68 40 03 00 00       	push   $0x340
 8049a8b:	e9 60 f9 ff ff       	jmp    80493f0 <_init+0x30>

08049a90 <calloc@plt>:
 8049a90:	ff 25 b0 91 05 08    	jmp    *0x80591b0
 8049a96:	68 48 03 00 00       	push   $0x348
 8049a9b:	e9 50 f9 ff ff       	jmp    80493f0 <_init+0x30>

08049aa0 <mcrypt_enc_get_key_size@plt>:
 8049aa0:	ff 25 b4 91 05 08    	jmp    *0x80591b4
 8049aa6:	68 50 03 00 00       	push   $0x350
 8049aab:	e9 40 f9 ff ff       	jmp    80493f0 <_init+0x30>

Disassembly of section .text:

08049ab0 <_start>:
 8049ab0:	31 ed                	xor    %ebp,%ebp
 8049ab2:	5e                   	pop    %esi
 8049ab3:	89 e1                	mov    %esp,%ecx
 8049ab5:	83 e4 f0             	and    $0xfffffff0,%esp
 8049ab8:	50                   	push   %eax
 8049ab9:	54                   	push   %esp
 8049aba:	52                   	push   %edx
 8049abb:	68 40 3d 05 08       	push   $0x8053d40
 8049ac0:	68 d0 3c 05 08       	push   $0x8053cd0
 8049ac5:	51                   	push   %ecx
 8049ac6:	56                   	push   %esi
 8049ac7:	68 30 ae 04 08       	push   $0x804ae30
 8049acc:	e8 4f fd ff ff       	call   8049820 <__libc_start_main@plt>
 8049ad1:	f4                   	hlt    
 8049ad2:	66 90                	xchg   %ax,%ax
 8049ad4:	66 90                	xchg   %ax,%ax
 8049ad6:	66 90                	xchg   %ax,%ax
 8049ad8:	66 90                	xchg   %ax,%ax
 8049ada:	66 90                	xchg   %ax,%ax
 8049adc:	66 90                	xchg   %ax,%ax
 8049ade:	66 90                	xchg   %ax,%ax

08049ae0 <__x86.get_pc_thunk.bx>:
 8049ae0:	8b 1c 24             	mov    (%esp),%ebx
 8049ae3:	c3                   	ret    
 8049ae4:	66 90                	xchg   %ax,%ax
 8049ae6:	66 90                	xchg   %ax,%ax
 8049ae8:	66 90                	xchg   %ax,%ax
 8049aea:	66 90                	xchg   %ax,%ax
 8049aec:	66 90                	xchg   %ax,%ax
 8049aee:	66 90                	xchg   %ax,%ax

08049af0 <deregister_tm_clones>:
 8049af0:	b8 67 a0 05 08       	mov    $0x805a067,%eax
 8049af5:	2d 64 a0 05 08       	sub    $0x805a064,%eax
 8049afa:	83 f8 06             	cmp    $0x6,%eax
 8049afd:	77 01                	ja     8049b00 <deregister_tm_clones+0x10>
 8049aff:	c3                   	ret    
 8049b00:	b8 00 00 00 00       	mov    $0x0,%eax
 8049b05:	85 c0                	test   %eax,%eax
 8049b07:	74 f6                	je     8049aff <deregister_tm_clones+0xf>
 8049b09:	55                   	push   %ebp
 8049b0a:	89 e5                	mov    %esp,%ebp
 8049b0c:	83 ec 18             	sub    $0x18,%esp
 8049b0f:	c7 04 24 64 a0 05 08 	movl   $0x805a064,(%esp)
 8049b16:	ff d0                	call   *%eax
 8049b18:	c9                   	leave  
 8049b19:	c3                   	ret    
 8049b1a:	8d b6 00 00 00 00    	lea    0x0(%esi),%esi

08049b20 <register_tm_clones>:
 8049b20:	b8 64 a0 05 08       	mov    $0x805a064,%eax
 8049b25:	2d 64 a0 05 08       	sub    $0x805a064,%eax
 8049b2a:	c1 f8 02             	sar    $0x2,%eax
 8049b2d:	89 c2                	mov    %eax,%edx
 8049b2f:	c1 ea 1f             	shr    $0x1f,%edx
 8049b32:	01 d0                	add    %edx,%eax
 8049b34:	d1 f8                	sar    %eax
 8049b36:	75 01                	jne    8049b39 <register_tm_clones+0x19>
 8049b38:	c3                   	ret    
 8049b39:	ba 00 00 00 00       	mov    $0x0,%edx
 8049b3e:	85 d2                	test   %edx,%edx
 8049b40:	74 f6                	je     8049b38 <register_tm_clones+0x18>
 8049b42:	55                   	push   %ebp
 8049b43:	89 e5                	mov    %esp,%ebp
 8049b45:	83 ec 18             	sub    $0x18,%esp
 8049b48:	89 44 24 04          	mov    %eax,0x4(%esp)
 8049b4c:	c7 04 24 64 a0 05 08 	movl   $0x805a064,(%esp)
 8049b53:	ff d2                	call   *%edx
 8049b55:	c9                   	leave  
 8049b56:	c3                   	ret    
 8049b57:	89 f6                	mov    %esi,%esi
 8049b59:	8d bc 27 00 00 00 00 	lea    0x0(%edi,%eiz,1),%edi

08049b60 <__do_global_dtors_aux>:
 8049b60:	80 3d a4 a0 05 08 00 	cmpb   $0x0,0x805a0a4
 8049b67:	75 13                	jne    8049b7c <__do_global_dtors_aux+0x1c>
 8049b69:	55                   	push   %ebp
 8049b6a:	89 e5                	mov    %esp,%ebp
 8049b6c:	83 ec 08             	sub    $0x8,%esp
 8049b6f:	e8 7c ff ff ff       	call   8049af0 <deregister_tm_clones>
 8049b74:	c6 05 a4 a0 05 08 01 	movb   $0x1,0x805a0a4
 8049b7b:	c9                   	leave  
 8049b7c:	f3 c3                	repz ret 
 8049b7e:	66 90                	xchg   %ax,%ax

08049b80 <frame_dummy>:
 8049b80:	a1 f8 8e 05 08       	mov    0x8058ef8,%eax
 8049b85:	85 c0                	test   %eax,%eax
 8049b87:	74 1f                	je     8049ba8 <frame_dummy+0x28>
 8049b89:	b8 00 00 00 00       	mov    $0x0,%eax
 8049b8e:	85 c0                	test   %eax,%eax
 8049b90:	74 16                	je     8049ba8 <frame_dummy+0x28>
 8049b92:	55                   	push   %ebp
 8049b93:	89 e5                	mov    %esp,%ebp
 8049b95:	83 ec 18             	sub    $0x18,%esp
 8049b98:	c7 04 24 f8 8e 05 08 	movl   $0x8058ef8,(%esp)
 8049b9f:	ff d0                	call   *%eax
 8049ba1:	c9                   	leave  
 8049ba2:	e9 79 ff ff ff       	jmp    8049b20 <register_tm_clones>
 8049ba7:	90                   	nop
 8049ba8:	e9 73 ff ff ff       	jmp    8049b20 <register_tm_clones>

08049bad <my_getpass>:
 8049bad:	55                   	push   %ebp
 8049bae:	89 e5                	mov    %esp,%ebp
 8049bb0:	81 ec f8 00 00 00    	sub    $0xf8,%esp
 8049bb6:	c7 04 24 01 02 00 00 	movl   $0x201,(%esp)
 8049bbd:	e8 cb 56 00 00       	call   804f28d <_secure_mcrypt_malloc>
 8049bc2:	89 45 f4             	mov    %eax,-0xc(%ebp)
 8049bc5:	8b 45 08             	mov    0x8(%ebp),%eax
 8049bc8:	89 04 24             	mov    %eax,(%esp)
 8049bcb:	e8 30 5c 00 00       	call   804f800 <getpass>
 8049bd0:	89 45 f0             	mov    %eax,-0x10(%ebp)
 8049bd3:	c7 44 24 04 c8 00 00 	movl   $0xc8,0x4(%esp)
 8049bda:	00 
 8049bdb:	8d 85 24 ff ff ff    	lea    -0xdc(%ebp),%eax
 8049be1:	89 04 24             	mov    %eax,(%esp)
 8049be4:	e8 c7 0f 00 00       	call   804abb0 <Bzero>
 8049be9:	c7 44 24 04 01 02 00 	movl   $0x201,0x4(%esp)
 8049bf0:	00 
 8049bf1:	8b 45 f4             	mov    -0xc(%ebp),%eax
 8049bf4:	89 04 24             	mov    %eax,(%esp)
 8049bf7:	e8 b4 0f 00 00       	call   804abb0 <Bzero>
 8049bfc:	c7 44 24 08 01 02 00 	movl   $0x201,0x8(%esp)
 8049c03:	00 
 8049c04:	8b 45 f0             	mov    -0x10(%ebp),%eax
 8049c07:	89 44 24 04          	mov    %eax,0x4(%esp)
 8049c0b:	8b 45 f4             	mov    -0xc(%ebp),%eax
 8049c0e:	89 04 24             	mov    %eax,(%esp)
 8049c11:	e8 ba fc ff ff       	call   80498d0 <strncpy@plt>
 8049c16:	8b 45 f4             	mov    -0xc(%ebp),%eax
 8049c19:	05 00 02 00 00       	add    $0x200,%eax
 8049c1e:	c6 00 00             	movb   $0x0,(%eax)
 8049c21:	8b 45 f0             	mov    -0x10(%ebp),%eax
 8049c24:	89 04 24             	mov    %eax,(%esp)
 8049c27:	e8 e4 fb ff ff       	call   8049810 <strlen@plt>
 8049c2c:	89 44 24 04          	mov    %eax,0x4(%esp)
 8049c30:	8b 45 f0             	mov    -0x10(%ebp),%eax
 8049c33:	89 04 24             	mov    %eax,(%esp)
 8049c36:	e8 54 57 00 00       	call   804f38f <_secure_mcrypt_free>
 8049c3b:	c7 04 24 cc 3d 05 08 	movl   $0x8053dcc,(%esp)
 8049c42:	e8 69 fb ff ff       	call   80497b0 <gettext@plt>
 8049c47:	89 44 24 04          	mov    %eax,0x4(%esp)
 8049c4b:	8d 85 24 ff ff ff    	lea    -0xdc(%ebp),%eax
 8049c51:	89 04 24             	mov    %eax,(%esp)
 8049c54:	e8 77 fa ff ff       	call   80496d0 <strcpy@plt>
 8049c59:	8b 45 08             	mov    0x8(%ebp),%eax
 8049c5c:	89 44 24 04          	mov    %eax,0x4(%esp)
 8049c60:	8d 85 24 ff ff ff    	lea    -0xdc(%ebp),%eax
 8049c66:	89 04 24             	mov    %eax,(%esp)
 8049c69:	e8 22 fa ff ff       	call   8049690 <strcat@plt>
 8049c6e:	8d 85 24 ff ff ff    	lea    -0xdc(%ebp),%eax
 8049c74:	89 04 24             	mov    %eax,(%esp)
 8049c77:	e8 84 5b 00 00       	call   804f800 <getpass>
 8049c7c:	89 45 ec             	mov    %eax,-0x14(%ebp)
 8049c7f:	8b 45 ec             	mov    -0x14(%ebp),%eax
 8049c82:	89 44 24 04          	mov    %eax,0x4(%esp)
 8049c86:	8b 45 f4             	mov    -0xc(%ebp),%eax
 8049c89:	89 04 24             	mov    %eax,(%esp)
 8049c8c:	e8 af f7 ff ff       	call   8049440 <strcmp@plt>
 8049c91:	85 c0                	test   %eax,%eax
 8049c93:	74 4b                	je     8049ce0 <my_getpass+0x133>
 8049c95:	c7 04 24 d0 3d 05 08 	movl   $0x8053dd0,(%esp)
 8049c9c:	e8 0f fb ff ff       	call   80497b0 <gettext@plt>
 8049ca1:	8b 15 80 a0 05 08    	mov    0x805a080,%edx
 8049ca7:	89 44 24 04          	mov    %eax,0x4(%esp)
 8049cab:	89 14 24             	mov    %edx,(%esp)
 8049cae:	e8 7d fb ff ff       	call   8049830 <fprintf@plt>
 8049cb3:	c7 44 24 04 01 02 00 	movl   $0x201,0x4(%esp)
 8049cba:	00 
 8049cbb:	8b 45 ec             	mov    -0x14(%ebp),%eax
 8049cbe:	89 04 24             	mov    %eax,(%esp)
 8049cc1:	e8 c9 56 00 00       	call   804f38f <_secure_mcrypt_free>
 8049cc6:	c7 44 24 04 01 02 00 	movl   $0x201,0x4(%esp)
 8049ccd:	00 
 8049cce:	8b 45 f4             	mov    -0xc(%ebp),%eax
 8049cd1:	89 04 24             	mov    %eax,(%esp)
 8049cd4:	e8 b6 56 00 00       	call   804f38f <_secure_mcrypt_free>
 8049cd9:	b8 00 00 00 00       	mov    $0x0,%eax
 8049cde:	eb 16                	jmp    8049cf6 <my_getpass+0x149>
 8049ce0:	c7 44 24 04 01 02 00 	movl   $0x201,0x4(%esp)
 8049ce7:	00 
 8049ce8:	8b 45 ec             	mov    -0x14(%ebp),%eax
 8049ceb:	89 04 24             	mov    %eax,(%esp)
 8049cee:	e8 9c 56 00 00       	call   804f38f <_secure_mcrypt_free>
 8049cf3:	8b 45 f4             	mov    -0xc(%ebp),%eax
 8049cf6:	c9                   	leave  
 8049cf7:	c3                   	ret    

08049cf8 <get_password>:
 8049cf8:	55                   	push   %ebp
 8049cf9:	89 e5                	mov    %esp,%ebp
 8049cfb:	81 ec e8 00 00 00    	sub    $0xe8,%esp
 8049d01:	c7 45 f4 00 00 00 00 	movl   $0x0,-0xc(%ebp)
 8049d08:	c7 04 24 fd 3d 05 08 	movl   $0x8053dfd,(%esp)
 8049d0f:	e8 9c fa ff ff       	call   80497b0 <gettext@plt>
 8049d14:	89 44 24 04          	mov    %eax,0x4(%esp)
 8049d18:	8d 85 2c ff ff ff    	lea    -0xd4(%ebp),%eax
 8049d1e:	89 04 24             	mov    %eax,(%esp)
 8049d21:	e8 8a fc ff ff       	call   80499b0 <sprintf@plt>
 8049d26:	83 7d 0c 00          	cmpl   $0x0,0xc(%ebp)
 8049d2a:	75 57                	jne    8049d83 <get_password+0x8b>
 8049d2c:	c7 04 24 10 3e 05 08 	movl   $0x8053e10,(%esp)
 8049d33:	e8 78 fa ff ff       	call   80497b0 <gettext@plt>
 8049d38:	8b 15 80 a0 05 08    	mov    0x805a080,%edx
 8049d3e:	c7 44 24 08 00 02 00 	movl   $0x200,0x8(%esp)
 8049d45:	00 
 8049d46:	89 44 24 04          	mov    %eax,0x4(%esp)
 8049d4a:	89 14 24             	mov    %edx,(%esp)
 8049d4d:	e8 de fa ff ff       	call   8049830 <fprintf@plt>
 8049d52:	c7 04 24 44 3e 05 08 	movl   $0x8053e44,(%esp)
 8049d59:	e8 52 fa ff ff       	call   80497b0 <gettext@plt>
 8049d5e:	8b 15 80 a0 05 08    	mov    0x805a080,%edx
 8049d64:	89 44 24 04          	mov    %eax,0x4(%esp)
 8049d68:	89 14 24             	mov    %edx,(%esp)
 8049d6b:	e8 c0 fa ff ff       	call   8049830 <fprintf@plt>
 8049d70:	8d 85 2c ff ff ff    	lea    -0xd4(%ebp),%eax
 8049d76:	89 04 24             	mov    %eax,(%esp)
 8049d79:	e8 2f fe ff ff       	call   8049bad <my_getpass>
 8049d7e:	89 45 f4             	mov    %eax,-0xc(%ebp)
 8049d81:	eb 2d                	jmp    8049db0 <get_password+0xb8>
 8049d83:	a1 cc a0 05 08       	mov    0x805a0cc,%eax
 8049d88:	85 c0                	test   %eax,%eax
 8049d8a:	75 13                	jne    8049d9f <get_password+0xa7>
 8049d8c:	8d 85 2c ff ff ff    	lea    -0xd4(%ebp),%eax
 8049d92:	89 04 24             	mov    %eax,(%esp)
 8049d95:	e8 66 5a 00 00       	call   804f800 <getpass>
 8049d9a:	89 45 f4             	mov    %eax,-0xc(%ebp)
 8049d9d:	eb 11                	jmp    8049db0 <get_password+0xb8>
 8049d9f:	8d 85 2c ff ff ff    	lea    -0xd4(%ebp),%eax
 8049da5:	89 04 24             	mov    %eax,(%esp)
 8049da8:	e8 00 fe ff ff       	call   8049bad <my_getpass>
 8049dad:	89 45 f4             	mov    %eax,-0xc(%ebp)
 8049db0:	83 7d f4 00          	cmpl   $0x0,-0xc(%ebp)
 8049db4:	75 07                	jne    8049dbd <get_password+0xc5>
 8049db6:	b8 00 00 00 00       	mov    $0x0,%eax
 8049dbb:	eb 13                	jmp    8049dd0 <get_password+0xd8>
 8049dbd:	8b 45 f4             	mov    -0xc(%ebp),%eax
 8049dc0:	89 04 24             	mov    %eax,(%esp)
 8049dc3:	e8 48 fa ff ff       	call   8049810 <strlen@plt>
 8049dc8:	8b 55 10             	mov    0x10(%ebp),%edx
 8049dcb:	89 02                	mov    %eax,(%edx)
 8049dcd:	8b 45 f4             	mov    -0xc(%ebp),%eax
 8049dd0:	c9                   	leave  
 8049dd1:	c3                   	ret    

08049dd2 <check_file>:
 8049dd2:	55                   	push   %ebp
 8049dd3:	89 e5                	mov    %esp,%ebp
 8049dd5:	83 ec 78             	sub    $0x78,%esp
 8049dd8:	8d 45 a0             	lea    -0x60(%ebp),%eax
 8049ddb:	89 44 24 04          	mov    %eax,0x4(%esp)
 8049ddf:	8b 45 08             	mov    0x8(%ebp),%eax
 8049de2:	89 04 24             	mov    %eax,(%esp)
 8049de5:	e8 66 9f 00 00       	call   8053d50 <__stat>
 8049dea:	85 c0                	test   %eax,%eax
 8049dec:	75 07                	jne    8049df5 <check_file+0x23>
 8049dee:	b8 01 00 00 00       	mov    $0x1,%eax
 8049df3:	eb 05                	jmp    8049dfa <check_file+0x28>
 8049df5:	b8 00 00 00 00       	mov    $0x0,%eax
 8049dfa:	c9                   	leave  
 8049dfb:	c3                   	ret    

08049dfc <read_until_null>:
 8049dfc:	55                   	push   %ebp
 8049dfd:	89 e5                	mov    %esp,%ebp
 8049dff:	83 ec 28             	sub    $0x28,%esp
 8049e02:	c7 45 f4 00 00 00 00 	movl   $0x0,-0xc(%ebp)
 8049e09:	eb 3c                	jmp    8049e47 <read_until_null+0x4b>
 8049e0b:	8b 55 f4             	mov    -0xc(%ebp),%edx
 8049e0e:	8b 45 08             	mov    0x8(%ebp),%eax
 8049e11:	01 c2                	add    %eax,%edx
 8049e13:	8b 45 0c             	mov    0xc(%ebp),%eax
 8049e16:	89 44 24 0c          	mov    %eax,0xc(%esp)
 8049e1a:	c7 44 24 08 01 00 00 	movl   $0x1,0x8(%esp)
 8049e21:	00 
 8049e22:	c7 44 24 04 01 00 00 	movl   $0x1,0x4(%esp)
 8049e29:	00 
 8049e2a:	89 14 24             	mov    %edx,(%esp)
 8049e2d:	e8 7e f8 ff ff       	call   80496b0 <fread@plt>
 8049e32:	8b 55 f4             	mov    -0xc(%ebp),%edx
 8049e35:	8b 45 08             	mov    0x8(%ebp),%eax
 8049e38:	01 d0                	add    %edx,%eax
 8049e3a:	0f b6 00             	movzbl (%eax),%eax
 8049e3d:	84 c0                	test   %al,%al
 8049e3f:	75 02                	jne    8049e43 <read_until_null+0x47>
 8049e41:	eb 0a                	jmp    8049e4d <read_until_null+0x51>
 8049e43:	83 45 f4 01          	addl   $0x1,-0xc(%ebp)
 8049e47:	83 7d f4 63          	cmpl   $0x63,-0xc(%ebp)
 8049e4b:	7e be                	jle    8049e0b <read_until_null+0xf>
 8049e4d:	c9                   	leave  
 8049e4e:	c3                   	ret    

08049e4f <check_file_head>:
 8049e4f:	55                   	push   %ebp
 8049e50:	89 e5                	mov    %esp,%ebp
 8049e52:	81 ec 88 00 00 00    	sub    $0x88,%esp
 8049e58:	a1 a8 a0 05 08       	mov    0x805a0a8,%eax
 8049e5d:	83 f8 01             	cmp    $0x1,%eax
 8049e60:	75 08                	jne    8049e6a <check_file_head+0x1b>
 8049e62:	a1 84 a0 05 08       	mov    0x805a084,%eax
 8049e67:	89 45 08             	mov    %eax,0x8(%ebp)
 8049e6a:	8b 45 08             	mov    0x8(%ebp),%eax
 8049e6d:	89 44 24 0c          	mov    %eax,0xc(%esp)
 8049e71:	c7 44 24 08 03 00 00 	movl   $0x3,0x8(%esp)
 8049e78:	00 
 8049e79:	c7 44 24 04 01 00 00 	movl   $0x1,0x4(%esp)
 8049e80:	00 
 8049e81:	8d 45 f5             	lea    -0xb(%ebp),%eax
 8049e84:	89 04 24             	mov    %eax,(%esp)
 8049e87:	e8 24 f8 ff ff       	call   80496b0 <fread@plt>
 8049e8c:	8b 45 08             	mov    0x8(%ebp),%eax
 8049e8f:	89 44 24 0c          	mov    %eax,0xc(%esp)
 8049e93:	c7 44 24 08 01 00 00 	movl   $0x1,0x8(%esp)
 8049e9a:	00 
 8049e9b:	c7 44 24 04 01 00 00 	movl   $0x1,0x4(%esp)
 8049ea2:	00 
 8049ea3:	8d 45 8d             	lea    -0x73(%ebp),%eax
 8049ea6:	89 04 24             	mov    %eax,(%esp)
 8049ea9:	e8 02 f8 ff ff       	call   80496b0 <fread@plt>
 8049eae:	0f b6 45 f5          	movzbl -0xb(%ebp),%eax
 8049eb2:	84 c0                	test   %al,%al
 8049eb4:	0f 85 ce 02 00 00    	jne    804a188 <check_file_head+0x339>
 8049eba:	0f b6 45 f6          	movzbl -0xa(%ebp),%eax
 8049ebe:	3c 6d                	cmp    $0x6d,%al
 8049ec0:	0f 85 c2 02 00 00    	jne    804a188 <check_file_head+0x339>
 8049ec6:	0f b6 45 f7          	movzbl -0x9(%ebp),%eax
 8049eca:	3c 03                	cmp    $0x3,%al
 8049ecc:	0f 85 b6 02 00 00    	jne    804a188 <check_file_head+0x339>
 8049ed2:	0f b6 45 8d          	movzbl -0x73(%ebp),%eax
 8049ed6:	0f b6 c0             	movzbl %al,%eax
 8049ed9:	83 e0 01             	and    $0x1,%eax
 8049edc:	85 c0                	test   %eax,%eax
 8049ede:	74 1e                	je     8049efe <check_file_head+0xaf>
 8049ee0:	c7 04 24 8c 3e 05 08 	movl   $0x8053e8c,(%esp)
 8049ee7:	e8 c4 f8 ff ff       	call   80497b0 <gettext@plt>
 8049eec:	89 04 24             	mov    %eax,(%esp)
 8049eef:	e8 86 55 00 00       	call   804f47a <err_crit>
 8049ef4:	b8 ff ff ff ff       	mov    $0xffffffff,%eax
 8049ef9:	e9 09 03 00 00       	jmp    804a207 <check_file_head+0x3b8>
 8049efe:	0f b6 45 8d          	movzbl -0x73(%ebp),%eax
 8049f02:	d0 e8                	shr    %al
 8049f04:	0f b6 c0             	movzbl %al,%eax
 8049f07:	83 e0 01             	and    $0x1,%eax
 8049f0a:	85 c0                	test   %eax,%eax
 8049f0c:	74 1e                	je     8049f2c <check_file_head+0xdd>
 8049f0e:	c7 04 24 8c 3e 05 08 	movl   $0x8053e8c,(%esp)
 8049f15:	e8 96 f8 ff ff       	call   80497b0 <gettext@plt>
 8049f1a:	89 04 24             	mov    %eax,(%esp)
 8049f1d:	e8 58 55 00 00       	call   804f47a <err_crit>
 8049f22:	b8 ff ff ff ff       	mov    $0xffffffff,%eax
 8049f27:	e9 db 02 00 00       	jmp    804a207 <check_file_head+0x3b8>
 8049f2c:	0f b6 45 8d          	movzbl -0x73(%ebp),%eax
 8049f30:	c0 e8 02             	shr    $0x2,%al
 8049f33:	0f b6 c0             	movzbl %al,%eax
 8049f36:	83 e0 01             	and    $0x1,%eax
 8049f39:	85 c0                	test   %eax,%eax
 8049f3b:	74 1e                	je     8049f5b <check_file_head+0x10c>
 8049f3d:	c7 04 24 8c 3e 05 08 	movl   $0x8053e8c,(%esp)
 8049f44:	e8 67 f8 ff ff       	call   80497b0 <gettext@plt>
 8049f49:	89 04 24             	mov    %eax,(%esp)
 8049f4c:	e8 29 55 00 00       	call   804f47a <err_crit>
 8049f51:	b8 ff ff ff ff       	mov    $0xffffffff,%eax
 8049f56:	e9 ac 02 00 00       	jmp    804a207 <check_file_head+0x3b8>
 8049f5b:	0f b6 45 8d          	movzbl -0x73(%ebp),%eax
 8049f5f:	c0 e8 03             	shr    $0x3,%al
 8049f62:	0f b6 c0             	movzbl %al,%eax
 8049f65:	83 e0 01             	and    $0x1,%eax
 8049f68:	85 c0                	test   %eax,%eax
 8049f6a:	74 1e                	je     8049f8a <check_file_head+0x13b>
 8049f6c:	c7 04 24 8c 3e 05 08 	movl   $0x8053e8c,(%esp)
 8049f73:	e8 38 f8 ff ff       	call   80497b0 <gettext@plt>
 8049f78:	89 04 24             	mov    %eax,(%esp)
 8049f7b:	e8 fa 54 00 00       	call   804f47a <err_crit>
 8049f80:	b8 ff ff ff ff       	mov    $0xffffffff,%eax
 8049f85:	e9 7d 02 00 00       	jmp    804a207 <check_file_head+0x3b8>
 8049f8a:	0f b6 45 8d          	movzbl -0x73(%ebp),%eax
 8049f8e:	c0 e8 04             	shr    $0x4,%al
 8049f91:	0f b6 c0             	movzbl %al,%eax
 8049f94:	83 e0 01             	and    $0x1,%eax
 8049f97:	85 c0                	test   %eax,%eax
 8049f99:	74 1e                	je     8049fb9 <check_file_head+0x16a>
 8049f9b:	c7 04 24 8c 3e 05 08 	movl   $0x8053e8c,(%esp)
 8049fa2:	e8 09 f8 ff ff       	call   80497b0 <gettext@plt>
 8049fa7:	89 04 24             	mov    %eax,(%esp)
 8049faa:	e8 cb 54 00 00       	call   804f47a <err_crit>
 8049faf:	b8 ff ff ff ff       	mov    $0xffffffff,%eax
 8049fb4:	e9 4e 02 00 00       	jmp    804a207 <check_file_head+0x3b8>
 8049fb9:	0f b6 45 8d          	movzbl -0x73(%ebp),%eax
 8049fbd:	c0 e8 05             	shr    $0x5,%al
 8049fc0:	0f b6 c0             	movzbl %al,%eax
 8049fc3:	83 e0 01             	and    $0x1,%eax
 8049fc6:	85 c0                	test   %eax,%eax
 8049fc8:	74 1e                	je     8049fe8 <check_file_head+0x199>
 8049fca:	c7 04 24 8c 3e 05 08 	movl   $0x8053e8c,(%esp)
 8049fd1:	e8 da f7 ff ff       	call   80497b0 <gettext@plt>
 8049fd6:	89 04 24             	mov    %eax,(%esp)
 8049fd9:	e8 9c 54 00 00       	call   804f47a <err_crit>
 8049fde:	b8 ff ff ff ff       	mov    $0xffffffff,%eax
 8049fe3:	e9 1f 02 00 00       	jmp    804a207 <check_file_head+0x3b8>
 8049fe8:	0f b6 45 8d          	movzbl -0x73(%ebp),%eax
 8049fec:	c0 e8 07             	shr    $0x7,%al
 8049fef:	0f b6 c0             	movzbl %al,%eax
 8049ff2:	83 e0 01             	and    $0x1,%eax
 8049ff5:	85 c0                	test   %eax,%eax
 8049ff7:	74 1e                	je     804a017 <check_file_head+0x1c8>
 8049ff9:	c7 04 24 b4 3e 05 08 	movl   $0x8053eb4,(%esp)
 804a000:	e8 ab f7 ff ff       	call   80497b0 <gettext@plt>
 804a005:	89 04 24             	mov    %eax,(%esp)
 804a008:	e8 47 54 00 00       	call   804f454 <err_warn>
 804a00d:	c7 05 c4 a0 05 08 01 	movl   $0x1,0x805a0c4
 804a014:	00 00 00 
 804a017:	8b 45 08             	mov    0x8(%ebp),%eax
 804a01a:	89 44 24 04          	mov    %eax,0x4(%esp)
 804a01e:	8d 45 90             	lea    -0x70(%ebp),%eax
 804a021:	89 04 24             	mov    %eax,(%esp)
 804a024:	e8 d3 fd ff ff       	call   8049dfc <read_until_null>
 804a029:	8d 45 90             	lea    -0x70(%ebp),%eax
 804a02c:	89 44 24 04          	mov    %eax,0x4(%esp)
 804a030:	8b 45 0c             	mov    0xc(%ebp),%eax
 804a033:	89 04 24             	mov    %eax,(%esp)
 804a036:	e8 95 f6 ff ff       	call   80496d0 <strcpy@plt>
 804a03b:	8b 45 08             	mov    0x8(%ebp),%eax
 804a03e:	89 44 24 0c          	mov    %eax,0xc(%esp)
 804a042:	c7 44 24 08 01 00 00 	movl   $0x1,0x8(%esp)
 804a049:	00 
 804a04a:	c7 44 24 04 02 00 00 	movl   $0x2,0x4(%esp)
 804a051:	00 
 804a052:	8d 45 8e             	lea    -0x72(%ebp),%eax
 804a055:	89 04 24             	mov    %eax,(%esp)
 804a058:	e8 53 f6 ff ff       	call   80496b0 <fread@plt>
 804a05d:	0f b7 45 8e          	movzwl -0x72(%ebp),%eax
 804a061:	0f bf d0             	movswl %ax,%edx
 804a064:	8b 45 18             	mov    0x18(%ebp),%eax
 804a067:	89 10                	mov    %edx,(%eax)
 804a069:	8b 45 08             	mov    0x8(%ebp),%eax
 804a06c:	89 44 24 04          	mov    %eax,0x4(%esp)
 804a070:	8d 45 90             	lea    -0x70(%ebp),%eax
 804a073:	89 04 24             	mov    %eax,(%esp)
 804a076:	e8 81 fd ff ff       	call   8049dfc <read_until_null>
 804a07b:	8d 45 90             	lea    -0x70(%ebp),%eax
 804a07e:	89 44 24 04          	mov    %eax,0x4(%esp)
 804a082:	8b 45 10             	mov    0x10(%ebp),%eax
 804a085:	89 04 24             	mov    %eax,(%esp)
 804a088:	e8 43 f6 ff ff       	call   80496d0 <strcpy@plt>
 804a08d:	8b 45 08             	mov    0x8(%ebp),%eax
 804a090:	89 44 24 04          	mov    %eax,0x4(%esp)
 804a094:	8d 45 90             	lea    -0x70(%ebp),%eax
 804a097:	89 04 24             	mov    %eax,(%esp)
 804a09a:	e8 5d fd ff ff       	call   8049dfc <read_until_null>
 804a09f:	8d 45 90             	lea    -0x70(%ebp),%eax
 804a0a2:	89 44 24 04          	mov    %eax,0x4(%esp)
 804a0a6:	8b 45 14             	mov    0x14(%ebp),%eax
 804a0a9:	89 04 24             	mov    %eax,(%esp)
 804a0ac:	e8 1f f6 ff ff       	call   80496d0 <strcpy@plt>
 804a0b1:	8b 45 08             	mov    0x8(%ebp),%eax
 804a0b4:	89 44 24 0c          	mov    %eax,0xc(%esp)
 804a0b8:	c7 44 24 08 01 00 00 	movl   $0x1,0x8(%esp)
 804a0bf:	00 
 804a0c0:	c7 44 24 04 01 00 00 	movl   $0x1,0x4(%esp)
 804a0c7:	00 
 804a0c8:	8d 45 8c             	lea    -0x74(%ebp),%eax
 804a0cb:	89 04 24             	mov    %eax,(%esp)
 804a0ce:	e8 dd f5 ff ff       	call   80496b0 <fread@plt>
 804a0d3:	0f b6 45 8d          	movzbl -0x73(%ebp),%eax
 804a0d7:	c0 e8 06             	shr    $0x6,%al
 804a0da:	0f b6 c0             	movzbl %al,%eax
 804a0dd:	83 e0 01             	and    $0x1,%eax
 804a0e0:	85 c0                	test   %eax,%eax
 804a0e2:	74 7b                	je     804a15f <check_file_head+0x310>
 804a0e4:	0f b6 45 8c          	movzbl -0x74(%ebp),%eax
 804a0e8:	0f b6 c0             	movzbl %al,%eax
 804a0eb:	83 e0 01             	and    $0x1,%eax
 804a0ee:	85 c0                	test   %eax,%eax
 804a0f0:	74 6d                	je     804a15f <check_file_head+0x310>
 804a0f2:	0f b6 45 8c          	movzbl -0x74(%ebp),%eax
 804a0f6:	0f b6 c0             	movzbl %al,%eax
 804a0f9:	c7 44 24 08 00 00 00 	movl   $0x0,0x8(%esp)
 804a100:	00 
 804a101:	89 44 24 04          	mov    %eax,0x4(%esp)
 804a105:	c7 04 24 00 00 00 00 	movl   $0x0,(%esp)
 804a10c:	e8 8f 53 00 00       	call   804f4a0 <m_setbit>
 804a111:	89 c2                	mov    %eax,%edx
 804a113:	8b 45 20             	mov    0x20(%ebp),%eax
 804a116:	89 10                	mov    %edx,(%eax)
 804a118:	8b 45 20             	mov    0x20(%ebp),%eax
 804a11b:	8b 00                	mov    (%eax),%eax
 804a11d:	85 c0                	test   %eax,%eax
 804a11f:	7e 3e                	jle    804a15f <check_file_head+0x310>
 804a121:	8b 45 20             	mov    0x20(%ebp),%eax
 804a124:	8b 00                	mov    (%eax),%eax
 804a126:	8b 55 08             	mov    0x8(%ebp),%edx
 804a129:	89 54 24 0c          	mov    %edx,0xc(%esp)
 804a12d:	89 44 24 08          	mov    %eax,0x8(%esp)
 804a131:	c7 44 24 04 01 00 00 	movl   $0x1,0x4(%esp)
 804a138:	00 
 804a139:	8d 45 90             	lea    -0x70(%ebp),%eax
 804a13c:	89 04 24             	mov    %eax,(%esp)
 804a13f:	e8 6c f5 ff ff       	call   80496b0 <fread@plt>
 804a144:	8b 45 20             	mov    0x20(%ebp),%eax
 804a147:	8b 00                	mov    (%eax),%eax
 804a149:	89 44 24 08          	mov    %eax,0x8(%esp)
 804a14d:	8d 45 90             	lea    -0x70(%ebp),%eax
 804a150:	89 44 24 04          	mov    %eax,0x4(%esp)
 804a154:	8b 45 1c             	mov    0x1c(%ebp),%eax
 804a157:	89 04 24             	mov    %eax,(%esp)
 804a15a:	e8 81 f3 ff ff       	call   80494e0 <memmove@plt>
 804a15f:	8b 45 08             	mov    0x8(%ebp),%eax
 804a162:	89 44 24 04          	mov    %eax,0x4(%esp)
 804a166:	8d 45 90             	lea    -0x70(%ebp),%eax
 804a169:	89 04 24             	mov    %eax,(%esp)
 804a16c:	e8 8b fc ff ff       	call   8049dfc <read_until_null>
 804a171:	8d 45 90             	lea    -0x70(%ebp),%eax
 804a174:	89 04 24             	mov    %eax,(%esp)
 804a177:	e8 92 0b 00 00       	call   804ad0e <check_hash_algo>
 804a17c:	a3 c8 a0 05 08       	mov    %eax,0x805a0c8
 804a181:	b8 00 00 00 00       	mov    $0x0,%eax
 804a186:	eb 7f                	jmp    804a207 <check_file_head+0x3b8>
 804a188:	0f b6 45 f5          	movzbl -0xb(%ebp),%eax
 804a18c:	84 c0                	test   %al,%al
 804a18e:	75 2b                	jne    804a1bb <check_file_head+0x36c>
 804a190:	0f b6 45 f6          	movzbl -0xa(%ebp),%eax
 804a194:	3c 6d                	cmp    $0x6d,%al
 804a196:	75 23                	jne    804a1bb <check_file_head+0x36c>
 804a198:	0f b6 45 f7          	movzbl -0x9(%ebp),%eax
 804a19c:	3c 02                	cmp    $0x2,%al
 804a19e:	75 1b                	jne    804a1bb <check_file_head+0x36c>
 804a1a0:	c7 04 24 d8 3e 05 08 	movl   $0x8053ed8,(%esp)
 804a1a7:	e8 04 f6 ff ff       	call   80497b0 <gettext@plt>
 804a1ac:	89 04 24             	mov    %eax,(%esp)
 804a1af:	e8 c6 52 00 00       	call   804f47a <err_crit>
 804a1b4:	b8 01 00 00 00       	mov    $0x1,%eax
 804a1b9:	eb 4c                	jmp    804a207 <check_file_head+0x3b8>
 804a1bb:	0f b6 45 f5          	movzbl -0xb(%ebp),%eax
 804a1bf:	84 c0                	test   %al,%al
 804a1c1:	75 2b                	jne    804a1ee <check_file_head+0x39f>
 804a1c3:	0f b6 45 f6          	movzbl -0xa(%ebp),%eax
 804a1c7:	3c 6d                	cmp    $0x6d,%al
 804a1c9:	75 23                	jne    804a1ee <check_file_head+0x39f>
 804a1cb:	0f b6 45 f7          	movzbl -0x9(%ebp),%eax
 804a1cf:	3c 01                	cmp    $0x1,%al
 804a1d1:	75 1b                	jne    804a1ee <check_file_head+0x39f>
 804a1d3:	c7 04 24 48 3f 05 08 	movl   $0x8053f48,(%esp)
 804a1da:	e8 d1 f5 ff ff       	call   80497b0 <gettext@plt>
 804a1df:	89 04 24             	mov    %eax,(%esp)
 804a1e2:	e8 93 52 00 00       	call   804f47a <err_crit>
 804a1e7:	b8 01 00 00 00       	mov    $0x1,%eax
 804a1ec:	eb 19                	jmp    804a207 <check_file_head+0x3b8>
 804a1ee:	c7 04 24 b8 3f 05 08 	movl   $0x8053fb8,(%esp)
 804a1f5:	e8 b6 f5 ff ff       	call   80497b0 <gettext@plt>
 804a1fa:	89 04 24             	mov    %eax,(%esp)
 804a1fd:	e8 78 52 00 00       	call   804f47a <err_crit>
 804a202:	b8 01 00 00 00       	mov    $0x1,%eax
 804a207:	c9                   	leave  
 804a208:	c3                   	ret    

0804a209 <read_iv>:
 804a209:	55                   	push   %ebp
 804a20a:	89 e5                	mov    %esp,%ebp
 804a20c:	83 ec 28             	sub    $0x28,%esp
 804a20f:	a1 a8 a0 05 08       	mov    0x805a0a8,%eax
 804a214:	83 f8 01             	cmp    $0x1,%eax
 804a217:	75 08                	jne    804a221 <read_iv+0x18>
 804a219:	a1 84 a0 05 08       	mov    0x805a084,%eax
 804a21e:	89 45 08             	mov    %eax,0x8(%ebp)
 804a221:	8b 45 0c             	mov    0xc(%ebp),%eax
 804a224:	89 04 24             	mov    %eax,(%esp)
 804a227:	e8 58 4f 00 00       	call   804f184 <_mcrypt_malloc>
 804a22c:	89 45 f4             	mov    %eax,-0xc(%ebp)
 804a22f:	8b 45 0c             	mov    0xc(%ebp),%eax
 804a232:	8b 55 08             	mov    0x8(%ebp),%edx
 804a235:	89 54 24 0c          	mov    %edx,0xc(%esp)
 804a239:	89 44 24 08          	mov    %eax,0x8(%esp)
 804a23d:	c7 44 24 04 01 00 00 	movl   $0x1,0x4(%esp)
 804a244:	00 
 804a245:	8b 45 f4             	mov    -0xc(%ebp),%eax
 804a248:	89 04 24             	mov    %eax,(%esp)
 804a24b:	e8 60 f4 ff ff       	call   80496b0 <fread@plt>
 804a250:	8b 45 f4             	mov    -0xc(%ebp),%eax
 804a253:	c9                   	leave  
 804a254:	c3                   	ret    

0804a255 <_tolow>:
 804a255:	55                   	push   %ebp
 804a256:	89 e5                	mov    %esp,%ebp
 804a258:	53                   	push   %ebx
 804a259:	83 ec 24             	sub    $0x24,%esp
 804a25c:	c7 45 f4 00 00 00 00 	movl   $0x0,-0xc(%ebp)
 804a263:	eb 25                	jmp    804a28a <_tolow+0x35>
 804a265:	8b 55 f4             	mov    -0xc(%ebp),%edx
 804a268:	8b 45 08             	mov    0x8(%ebp),%eax
 804a26b:	8d 1c 02             	lea    (%edx,%eax,1),%ebx
 804a26e:	8b 55 f4             	mov    -0xc(%ebp),%edx
 804a271:	8b 45 08             	mov    0x8(%ebp),%eax
 804a274:	01 d0                	add    %edx,%eax
 804a276:	0f b6 00             	movzbl (%eax),%eax
 804a279:	0f be c0             	movsbl %al,%eax
 804a27c:	89 04 24             	mov    %eax,(%esp)
 804a27f:	e8 bc f2 ff ff       	call   8049540 <tolower@plt>
 804a284:	88 03                	mov    %al,(%ebx)
 804a286:	83 45 f4 01          	addl   $0x1,-0xc(%ebp)
 804a28a:	8b 45 f4             	mov    -0xc(%ebp),%eax
 804a28d:	3b 45 0c             	cmp    0xc(%ebp),%eax
 804a290:	7c d3                	jl     804a265 <_tolow+0x10>
 804a292:	83 c4 24             	add    $0x24,%esp
 804a295:	5b                   	pop    %ebx
 804a296:	5d                   	pop    %ebp
 804a297:	c3                   	ret    

0804a298 <write_file_head>:
 804a298:	55                   	push   %ebp
 804a299:	89 e5                	mov    %esp,%ebp
 804a29b:	53                   	push   %ebx
 804a29c:	81 ec 24 01 00 00    	sub    $0x124,%esp
 804a2a2:	8b 45 18             	mov    0x18(%ebp),%eax
 804a2a5:	8b 00                	mov    (%eax),%eax
 804a2a7:	66 89 45 f2          	mov    %ax,-0xe(%ebp)
 804a2ab:	c6 45 f1 00          	movb   $0x0,-0xf(%ebp)
 804a2af:	c6 45 f0 00          	movb   $0x0,-0x10(%ebp)
 804a2b3:	c7 04 24 04 00 00 00 	movl   $0x4,(%esp)
 804a2ba:	e8 c5 4e 00 00       	call   804f184 <_mcrypt_malloc>
 804a2bf:	89 45 f4             	mov    %eax,-0xc(%ebp)
 804a2c2:	8b 45 f4             	mov    -0xc(%ebp),%eax
 804a2c5:	c6 00 00             	movb   $0x0,(%eax)
 804a2c8:	8b 45 f4             	mov    -0xc(%ebp),%eax
 804a2cb:	83 c0 01             	add    $0x1,%eax
 804a2ce:	c6 00 6d             	movb   $0x6d,(%eax)
 804a2d1:	8b 45 f4             	mov    -0xc(%ebp),%eax
 804a2d4:	83 c0 02             	add    $0x2,%eax
 804a2d7:	c6 00 03             	movb   $0x3,(%eax)
 804a2da:	8b 45 f4             	mov    -0xc(%ebp),%eax
 804a2dd:	83 c0 03             	add    $0x3,%eax
 804a2e0:	c6 00 00             	movb   $0x0,(%eax)
 804a2e3:	83 7d 1c 00          	cmpl   $0x0,0x1c(%ebp)
 804a2e7:	74 2c                	je     804a315 <write_file_head+0x7d>
 804a2e9:	8b 45 f4             	mov    -0xc(%ebp),%eax
 804a2ec:	8d 58 03             	lea    0x3(%eax),%ebx
 804a2ef:	8b 45 f4             	mov    -0xc(%ebp),%eax
 804a2f2:	83 c0 03             	add    $0x3,%eax
 804a2f5:	0f b6 00             	movzbl (%eax),%eax
 804a2f8:	0f be c0             	movsbl %al,%eax
 804a2fb:	c7 44 24 08 01 00 00 	movl   $0x1,0x8(%esp)
 804a302:	00 
 804a303:	89 44 24 04          	mov    %eax,0x4(%esp)
 804a307:	c7 04 24 06 00 00 00 	movl   $0x6,(%esp)
 804a30e:	e8 8d 51 00 00       	call   804f4a0 <m_setbit>
 804a313:	88 03                	mov    %al,(%ebx)
 804a315:	a1 c4 a0 05 08       	mov    0x805a0c4,%eax
 804a31a:	83 f8 01             	cmp    $0x1,%eax
 804a31d:	75 2c                	jne    804a34b <write_file_head+0xb3>
 804a31f:	8b 45 f4             	mov    -0xc(%ebp),%eax
 804a322:	8d 58 03             	lea    0x3(%eax),%ebx
 804a325:	8b 45 f4             	mov    -0xc(%ebp),%eax
 804a328:	83 c0 03             	add    $0x3,%eax
 804a32b:	0f b6 00             	movzbl (%eax),%eax
 804a32e:	0f be c0             	movsbl %al,%eax
 804a331:	c7 44 24 08 01 00 00 	movl   $0x1,0x8(%esp)
 804a338:	00 
 804a339:	89 44 24 04          	mov    %eax,0x4(%esp)
 804a33d:	c7 04 24 07 00 00 00 	movl   $0x7,(%esp)
 804a344:	e8 57 51 00 00       	call   804f4a0 <m_setbit>
 804a349:	88 03                	mov    %al,(%ebx)
 804a34b:	8b 45 08             	mov    0x8(%ebp),%eax
 804a34e:	89 44 24 0c          	mov    %eax,0xc(%esp)
 804a352:	c7 44 24 08 04 00 00 	movl   $0x4,0x8(%esp)
 804a359:	00 
 804a35a:	c7 44 24 04 01 00 00 	movl   $0x1,0x4(%esp)
 804a361:	00 
 804a362:	8b 45 f4             	mov    -0xc(%ebp),%eax
 804a365:	89 04 24             	mov    %eax,(%esp)
 804a368:	e8 03 f3 ff ff       	call   8049670 <fwrite@plt>
 804a36d:	83 f8 04             	cmp    $0x4,%eax
 804a370:	74 0a                	je     804a37c <write_file_head+0xe4>
 804a372:	b8 01 00 00 00       	mov    $0x1,%eax
 804a377:	e9 fa 02 00 00       	jmp    804a676 <write_file_head+0x3de>
 804a37c:	8b 45 f4             	mov    -0xc(%ebp),%eax
 804a37f:	89 04 24             	mov    %eax,(%esp)
 804a382:	e8 f5 4f 00 00       	call   804f37c <_mcrypt_free>
 804a387:	8b 45 0c             	mov    0xc(%ebp),%eax
 804a38a:	89 04 24             	mov    %eax,(%esp)
 804a38d:	e8 7e f4 ff ff       	call   8049810 <strlen@plt>
 804a392:	8b 55 08             	mov    0x8(%ebp),%edx
 804a395:	89 54 24 0c          	mov    %edx,0xc(%esp)
 804a399:	89 44 24 08          	mov    %eax,0x8(%esp)
 804a39d:	c7 44 24 04 01 00 00 	movl   $0x1,0x4(%esp)
 804a3a4:	00 
 804a3a5:	8b 45 0c             	mov    0xc(%ebp),%eax
 804a3a8:	89 04 24             	mov    %eax,(%esp)
 804a3ab:	e8 c0 f2 ff ff       	call   8049670 <fwrite@plt>
 804a3b0:	89 c3                	mov    %eax,%ebx
 804a3b2:	8b 45 0c             	mov    0xc(%ebp),%eax
 804a3b5:	89 04 24             	mov    %eax,(%esp)
 804a3b8:	e8 53 f4 ff ff       	call   8049810 <strlen@plt>
 804a3bd:	39 c3                	cmp    %eax,%ebx
 804a3bf:	74 0a                	je     804a3cb <write_file_head+0x133>
 804a3c1:	b8 01 00 00 00       	mov    $0x1,%eax
 804a3c6:	e9 ab 02 00 00       	jmp    804a676 <write_file_head+0x3de>
 804a3cb:	8b 45 08             	mov    0x8(%ebp),%eax
 804a3ce:	89 44 24 0c          	mov    %eax,0xc(%esp)
 804a3d2:	c7 44 24 08 01 00 00 	movl   $0x1,0x8(%esp)
 804a3d9:	00 
 804a3da:	c7 44 24 04 01 00 00 	movl   $0x1,0x4(%esp)
 804a3e1:	00 
 804a3e2:	8d 45 f1             	lea    -0xf(%ebp),%eax
 804a3e5:	89 04 24             	mov    %eax,(%esp)
 804a3e8:	e8 83 f2 ff ff       	call   8049670 <fwrite@plt>
 804a3ed:	83 f8 01             	cmp    $0x1,%eax
 804a3f0:	74 0a                	je     804a3fc <write_file_head+0x164>
 804a3f2:	b8 01 00 00 00       	mov    $0x1,%eax
 804a3f7:	e9 7a 02 00 00       	jmp    804a676 <write_file_head+0x3de>
 804a3fc:	8b 45 08             	mov    0x8(%ebp),%eax
 804a3ff:	89 44 24 0c          	mov    %eax,0xc(%esp)
 804a403:	c7 44 24 08 02 00 00 	movl   $0x2,0x8(%esp)
 804a40a:	00 
 804a40b:	c7 44 24 04 01 00 00 	movl   $0x1,0x4(%esp)
 804a412:	00 
 804a413:	8d 45 f2             	lea    -0xe(%ebp),%eax
 804a416:	89 04 24             	mov    %eax,(%esp)
 804a419:	e8 52 f2 ff ff       	call   8049670 <fwrite@plt>
 804a41e:	83 f8 02             	cmp    $0x2,%eax
 804a421:	74 0a                	je     804a42d <write_file_head+0x195>
 804a423:	b8 01 00 00 00       	mov    $0x1,%eax
 804a428:	e9 49 02 00 00       	jmp    804a676 <write_file_head+0x3de>
 804a42d:	8b 45 10             	mov    0x10(%ebp),%eax
 804a430:	89 04 24             	mov    %eax,(%esp)
 804a433:	e8 d8 f3 ff ff       	call   8049810 <strlen@plt>
 804a438:	8b 55 08             	mov    0x8(%ebp),%edx
 804a43b:	89 54 24 0c          	mov    %edx,0xc(%esp)
 804a43f:	89 44 24 08          	mov    %eax,0x8(%esp)
 804a443:	c7 44 24 04 01 00 00 	movl   $0x1,0x4(%esp)
 804a44a:	00 
 804a44b:	8b 45 10             	mov    0x10(%ebp),%eax
 804a44e:	89 04 24             	mov    %eax,(%esp)
 804a451:	e8 1a f2 ff ff       	call   8049670 <fwrite@plt>
 804a456:	89 c3                	mov    %eax,%ebx
 804a458:	8b 45 10             	mov    0x10(%ebp),%eax
 804a45b:	89 04 24             	mov    %eax,(%esp)
 804a45e:	e8 ad f3 ff ff       	call   8049810 <strlen@plt>
 804a463:	39 c3                	cmp    %eax,%ebx
 804a465:	74 0a                	je     804a471 <write_file_head+0x1d9>
 804a467:	b8 01 00 00 00       	mov    $0x1,%eax
 804a46c:	e9 05 02 00 00       	jmp    804a676 <write_file_head+0x3de>
 804a471:	8b 45 08             	mov    0x8(%ebp),%eax
 804a474:	89 44 24 0c          	mov    %eax,0xc(%esp)
 804a478:	c7 44 24 08 01 00 00 	movl   $0x1,0x8(%esp)
 804a47f:	00 
 804a480:	c7 44 24 04 01 00 00 	movl   $0x1,0x4(%esp)
 804a487:	00 
 804a488:	8d 45 f1             	lea    -0xf(%ebp),%eax
 804a48b:	89 04 24             	mov    %eax,(%esp)
 804a48e:	e8 dd f1 ff ff       	call   8049670 <fwrite@plt>
 804a493:	83 f8 01             	cmp    $0x1,%eax
 804a496:	74 0a                	je     804a4a2 <write_file_head+0x20a>
 804a498:	b8 01 00 00 00       	mov    $0x1,%eax
 804a49d:	e9 d4 01 00 00       	jmp    804a676 <write_file_head+0x3de>
 804a4a2:	8b 45 14             	mov    0x14(%ebp),%eax
 804a4a5:	89 04 24             	mov    %eax,(%esp)
 804a4a8:	e8 63 f3 ff ff       	call   8049810 <strlen@plt>
 804a4ad:	8b 55 08             	mov    0x8(%ebp),%edx
 804a4b0:	89 54 24 0c          	mov    %edx,0xc(%esp)
 804a4b4:	89 44 24 08          	mov    %eax,0x8(%esp)
 804a4b8:	c7 44 24 04 01 00 00 	movl   $0x1,0x4(%esp)
 804a4bf:	00 
 804a4c0:	8b 45 14             	mov    0x14(%ebp),%eax
 804a4c3:	89 04 24             	mov    %eax,(%esp)
 804a4c6:	e8 a5 f1 ff ff       	call   8049670 <fwrite@plt>
 804a4cb:	89 c3                	mov    %eax,%ebx
 804a4cd:	8b 45 14             	mov    0x14(%ebp),%eax
 804a4d0:	89 04 24             	mov    %eax,(%esp)
 804a4d3:	e8 38 f3 ff ff       	call   8049810 <strlen@plt>
 804a4d8:	39 c3                	cmp    %eax,%ebx
 804a4da:	74 0a                	je     804a4e6 <write_file_head+0x24e>
 804a4dc:	b8 01 00 00 00       	mov    $0x1,%eax
 804a4e1:	e9 90 01 00 00       	jmp    804a676 <write_file_head+0x3de>
 804a4e6:	8b 45 08             	mov    0x8(%ebp),%eax
 804a4e9:	89 44 24 0c          	mov    %eax,0xc(%esp)
 804a4ed:	c7 44 24 08 01 00 00 	movl   $0x1,0x8(%esp)
 804a4f4:	00 
 804a4f5:	c7 44 24 04 01 00 00 	movl   $0x1,0x4(%esp)
 804a4fc:	00 
 804a4fd:	8d 45 f1             	lea    -0xf(%ebp),%eax
 804a500:	89 04 24             	mov    %eax,(%esp)
 804a503:	e8 68 f1 ff ff       	call   8049670 <fwrite@plt>
 804a508:	83 f8 01             	cmp    $0x1,%eax
 804a50b:	74 0a                	je     804a517 <write_file_head+0x27f>
 804a50d:	b8 01 00 00 00       	mov    $0x1,%eax
 804a512:	e9 5f 01 00 00       	jmp    804a676 <write_file_head+0x3de>
 804a517:	83 7d 1c 00          	cmpl   $0x0,0x1c(%ebp)
 804a51b:	74 7c                	je     804a599 <write_file_head+0x301>
 804a51d:	8b 45 20             	mov    0x20(%ebp),%eax
 804a520:	88 45 f0             	mov    %al,-0x10(%ebp)
 804a523:	0f b6 45 f0          	movzbl -0x10(%ebp),%eax
 804a527:	0f b6 c0             	movzbl %al,%eax
 804a52a:	c7 44 24 08 01 00 00 	movl   $0x1,0x8(%esp)
 804a531:	00 
 804a532:	89 44 24 04          	mov    %eax,0x4(%esp)
 804a536:	c7 04 24 00 00 00 00 	movl   $0x0,(%esp)
 804a53d:	e8 5e 4f 00 00       	call   804f4a0 <m_setbit>
 804a542:	88 45 f0             	mov    %al,-0x10(%ebp)
 804a545:	8b 45 08             	mov    0x8(%ebp),%eax
 804a548:	89 44 24 0c          	mov    %eax,0xc(%esp)
 804a54c:	c7 44 24 08 01 00 00 	movl   $0x1,0x8(%esp)
 804a553:	00 
 804a554:	c7 44 24 04 01 00 00 	movl   $0x1,0x4(%esp)
 804a55b:	00 
 804a55c:	8d 45 f0             	lea    -0x10(%ebp),%eax
 804a55f:	89 04 24             	mov    %eax,(%esp)
 804a562:	e8 09 f1 ff ff       	call   8049670 <fwrite@plt>
 804a567:	8b 45 20             	mov    0x20(%ebp),%eax
 804a56a:	8b 55 08             	mov    0x8(%ebp),%edx
 804a56d:	89 54 24 0c          	mov    %edx,0xc(%esp)
 804a571:	89 44 24 08          	mov    %eax,0x8(%esp)
 804a575:	c7 44 24 04 01 00 00 	movl   $0x1,0x4(%esp)
 804a57c:	00 
 804a57d:	8b 45 1c             	mov    0x1c(%ebp),%eax
 804a580:	89 04 24             	mov    %eax,(%esp)
 804a583:	e8 e8 f0 ff ff       	call   8049670 <fwrite@plt>
 804a588:	8b 55 20             	mov    0x20(%ebp),%edx
 804a58b:	39 d0                	cmp    %edx,%eax
 804a58d:	74 0a                	je     804a599 <write_file_head+0x301>
 804a58f:	b8 01 00 00 00       	mov    $0x1,%eax
 804a594:	e9 dd 00 00 00       	jmp    804a676 <write_file_head+0x3de>
 804a599:	a1 c8 a0 05 08       	mov    0x805a0c8,%eax
 804a59e:	89 04 24             	mov    %eax,(%esp)
 804a5a1:	e8 8a f0 ff ff       	call   8049630 <mhash_get_hash_name@plt>
 804a5a6:	89 45 f4             	mov    %eax,-0xc(%ebp)
 804a5a9:	83 7d f4 00          	cmpl   $0x0,-0xc(%ebp)
 804a5ad:	0f 84 82 00 00 00    	je     804a635 <write_file_head+0x39d>
 804a5b3:	8b 45 f4             	mov    -0xc(%ebp),%eax
 804a5b6:	89 44 24 04          	mov    %eax,0x4(%esp)
 804a5ba:	8d 85 f1 fe ff ff    	lea    -0x10f(%ebp),%eax
 804a5c0:	89 04 24             	mov    %eax,(%esp)
 804a5c3:	e8 08 f1 ff ff       	call   80496d0 <strcpy@plt>
 804a5c8:	8b 45 f4             	mov    -0xc(%ebp),%eax
 804a5cb:	89 04 24             	mov    %eax,(%esp)
 804a5ce:	e8 1d ef ff ff       	call   80494f0 <free@plt>
 804a5d3:	8d 85 f1 fe ff ff    	lea    -0x10f(%ebp),%eax
 804a5d9:	89 04 24             	mov    %eax,(%esp)
 804a5dc:	e8 2f f2 ff ff       	call   8049810 <strlen@plt>
 804a5e1:	89 44 24 04          	mov    %eax,0x4(%esp)
 804a5e5:	8d 85 f1 fe ff ff    	lea    -0x10f(%ebp),%eax
 804a5eb:	89 04 24             	mov    %eax,(%esp)
 804a5ee:	e8 62 fc ff ff       	call   804a255 <_tolow>
 804a5f3:	8d 85 f1 fe ff ff    	lea    -0x10f(%ebp),%eax
 804a5f9:	89 04 24             	mov    %eax,(%esp)
 804a5fc:	e8 0f f2 ff ff       	call   8049810 <strlen@plt>
 804a601:	8b 55 08             	mov    0x8(%ebp),%edx
 804a604:	89 54 24 0c          	mov    %edx,0xc(%esp)
 804a608:	89 44 24 08          	mov    %eax,0x8(%esp)
 804a60c:	c7 44 24 04 01 00 00 	movl   $0x1,0x4(%esp)
 804a613:	00 
 804a614:	8d 85 f1 fe ff ff    	lea    -0x10f(%ebp),%eax
 804a61a:	89 04 24             	mov    %eax,(%esp)
 804a61d:	e8 4e f0 ff ff       	call   8049670 <fwrite@plt>
 804a622:	89 c3                	mov    %eax,%ebx
 804a624:	8b 45 f4             	mov    -0xc(%ebp),%eax
 804a627:	89 04 24             	mov    %eax,(%esp)
 804a62a:	e8 e1 f1 ff ff       	call   8049810 <strlen@plt>
 804a62f:	39 c3                	cmp    %eax,%ebx
 804a631:	74 10                	je     804a643 <write_file_head+0x3ab>
 804a633:	eb 07                	jmp    804a63c <write_file_head+0x3a4>
 804a635:	b8 01 00 00 00       	mov    $0x1,%eax
 804a63a:	eb 3a                	jmp    804a676 <write_file_head+0x3de>
 804a63c:	b8 01 00 00 00       	mov    $0x1,%eax
 804a641:	eb 33                	jmp    804a676 <write_file_head+0x3de>
 804a643:	8b 45 08             	mov    0x8(%ebp),%eax
 804a646:	89 44 24 0c          	mov    %eax,0xc(%esp)
 804a64a:	c7 44 24 08 01 00 00 	movl   $0x1,0x8(%esp)
 804a651:	00 
 804a652:	c7 44 24 04 01 00 00 	movl   $0x1,0x4(%esp)
 804a659:	00 
 804a65a:	8d 45 f1             	lea    -0xf(%ebp),%eax
 804a65d:	89 04 24             	mov    %eax,(%esp)
 804a660:	e8 0b f0 ff ff       	call   8049670 <fwrite@plt>
 804a665:	83 f8 01             	cmp    $0x1,%eax
 804a668:	74 07                	je     804a671 <write_file_head+0x3d9>
 804a66a:	b8 01 00 00 00       	mov    $0x1,%eax
 804a66f:	eb 05                	jmp    804a676 <write_file_head+0x3de>
 804a671:	b8 00 00 00 00       	mov    $0x0,%eax
 804a676:	81 c4 24 01 00 00    	add    $0x124,%esp
 804a67c:	5b                   	pop    %ebx
 804a67d:	5d                   	pop    %ebp
 804a67e:	c3                   	ret    

0804a67f <write_iv>:
 804a67f:	55                   	push   %ebp
 804a680:	89 e5                	mov    %esp,%ebp
 804a682:	83 ec 28             	sub    $0x28,%esp
 804a685:	c7 45 f4 00 00 00 00 	movl   $0x0,-0xc(%ebp)
 804a68c:	83 7d 10 00          	cmpl   $0x0,0x10(%ebp)
 804a690:	0f 8e 82 00 00 00    	jle    804a718 <write_iv+0x99>
 804a696:	8b 45 10             	mov    0x10(%ebp),%eax
 804a699:	89 04 24             	mov    %eax,(%esp)
 804a69c:	e8 e3 4a 00 00       	call   804f184 <_mcrypt_malloc>
 804a6a1:	89 45 f4             	mov    %eax,-0xc(%ebp)
 804a6a4:	83 7d 0c 00          	cmpl   $0x0,0xc(%ebp)
 804a6a8:	74 2d                	je     804a6d7 <write_iv+0x58>
 804a6aa:	8b 45 10             	mov    0x10(%ebp),%eax
 804a6ad:	89 44 24 04          	mov    %eax,0x4(%esp)
 804a6b1:	8b 45 f4             	mov    -0xc(%ebp),%eax
 804a6b4:	89 04 24             	mov    %eax,(%esp)
 804a6b7:	e8 f4 04 00 00       	call   804abb0 <Bzero>
 804a6bc:	8b 45 10             	mov    0x10(%ebp),%eax
 804a6bf:	89 44 24 08          	mov    %eax,0x8(%esp)
 804a6c3:	8b 45 0c             	mov    0xc(%ebp),%eax
 804a6c6:	89 44 24 04          	mov    %eax,0x4(%esp)
 804a6ca:	8b 45 f4             	mov    -0xc(%ebp),%eax
 804a6cd:	89 04 24             	mov    %eax,(%esp)
 804a6d0:	e8 0b ee ff ff       	call   80494e0 <memmove@plt>
 804a6d5:	eb 12                	jmp    804a6e9 <write_iv+0x6a>
 804a6d7:	8b 45 10             	mov    0x10(%ebp),%eax
 804a6da:	89 44 24 04          	mov    %eax,0x4(%esp)
 804a6de:	8b 45 f4             	mov    -0xc(%ebp),%eax
 804a6e1:	89 04 24             	mov    %eax,(%esp)
 804a6e4:	e8 c7 04 00 00       	call   804abb0 <Bzero>
 804a6e9:	8b 45 10             	mov    0x10(%ebp),%eax
 804a6ec:	8b 55 08             	mov    0x8(%ebp),%edx
 804a6ef:	89 54 24 0c          	mov    %edx,0xc(%esp)
 804a6f3:	89 44 24 08          	mov    %eax,0x8(%esp)
 804a6f7:	c7 44 24 04 01 00 00 	movl   $0x1,0x4(%esp)
 804a6fe:	00 
 804a6ff:	8b 45 f4             	mov    -0xc(%ebp),%eax
 804a702:	89 04 24             	mov    %eax,(%esp)
 804a705:	e8 66 ef ff ff       	call   8049670 <fwrite@plt>
 804a70a:	8b 55 10             	mov    0x10(%ebp),%edx
 804a70d:	39 d0                	cmp    %edx,%eax
 804a70f:	74 07                	je     804a718 <write_iv+0x99>
 804a711:	b8 01 00 00 00       	mov    $0x1,%eax
 804a716:	eb 10                	jmp    804a728 <write_iv+0xa9>
 804a718:	8b 45 f4             	mov    -0xc(%ebp),%eax
 804a71b:	89 04 24             	mov    %eax,(%esp)
 804a71e:	e8 59 4c 00 00       	call   804f37c <_mcrypt_free>
 804a723:	b8 00 00 00 00       	mov    $0x0,%eax
 804a728:	c9                   	leave  
 804a729:	c3                   	ret    

0804a72a <copyDate>:
 804a72a:	55                   	push   %ebp
 804a72b:	89 e5                	mov    %esp,%ebp
 804a72d:	81 ec 88 00 00 00    	sub    $0x88,%esp
 804a733:	8d 45 9c             	lea    -0x64(%ebp),%eax
 804a736:	89 44 24 04          	mov    %eax,0x4(%esp)
 804a73a:	8b 45 08             	mov    0x8(%ebp),%eax
 804a73d:	89 04 24             	mov    %eax,(%esp)
 804a740:	e8 0b 96 00 00       	call   8053d50 <__stat>
 804a745:	89 45 f4             	mov    %eax,-0xc(%ebp)
 804a748:	83 7d f4 ff          	cmpl   $0xffffffff,-0xc(%ebp)
 804a74c:	75 0c                	jne    804a75a <copyDate+0x30>
 804a74e:	c7 04 24 15 40 05 08 	movl   $0x8054015,(%esp)
 804a755:	e8 06 ef ff ff       	call   8049660 <perror@plt>
 804a75a:	8b 45 d4             	mov    -0x2c(%ebp),%eax
 804a75d:	89 45 94             	mov    %eax,-0x6c(%ebp)
 804a760:	8b 45 dc             	mov    -0x24(%ebp),%eax
 804a763:	89 45 98             	mov    %eax,-0x68(%ebp)
 804a766:	8d 45 94             	lea    -0x6c(%ebp),%eax
 804a769:	89 44 24 04          	mov    %eax,0x4(%esp)
 804a76d:	8b 45 0c             	mov    0xc(%ebp),%eax
 804a770:	89 04 24             	mov    %eax,(%esp)
 804a773:	e8 f8 f1 ff ff       	call   8049970 <utime@plt>
 804a778:	89 45 f4             	mov    %eax,-0xc(%ebp)
 804a77b:	83 7d f4 ff          	cmpl   $0xffffffff,-0xc(%ebp)
 804a77f:	75 0c                	jne    804a78d <copyDate+0x63>
 804a781:	c7 04 24 1a 40 05 08 	movl   $0x805401a,(%esp)
 804a788:	e8 d3 ee ff ff       	call   8049660 <perror@plt>
 804a78d:	c9                   	leave  
 804a78e:	c3                   	ret    

0804a78f <is_normal_file>:
 804a78f:	55                   	push   %ebp
 804a790:	89 e5                	mov    %esp,%ebp
 804a792:	83 ec 78             	sub    $0x78,%esp
 804a795:	8d 45 a0             	lea    -0x60(%ebp),%eax
 804a798:	89 44 24 04          	mov    %eax,0x4(%esp)
 804a79c:	8b 45 08             	mov    0x8(%ebp),%eax
 804a79f:	89 04 24             	mov    %eax,(%esp)
 804a7a2:	e8 d9 95 00 00       	call   8053d80 <__lstat>
 804a7a7:	85 c0                	test   %eax,%eax
 804a7a9:	74 07                	je     804a7b2 <is_normal_file+0x23>
 804a7ab:	b8 00 00 00 00       	mov    $0x0,%eax
 804a7b0:	eb 1b                	jmp    804a7cd <is_normal_file+0x3e>
 804a7b2:	8b 45 b0             	mov    -0x50(%ebp),%eax
 804a7b5:	25 00 f0 00 00       	and    $0xf000,%eax
 804a7ba:	3d 00 80 00 00       	cmp    $0x8000,%eax
 804a7bf:	75 07                	jne    804a7c8 <is_normal_file+0x39>
 804a7c1:	b8 01 00 00 00       	mov    $0x1,%eax
 804a7c6:	eb 05                	jmp    804a7cd <is_normal_file+0x3e>
 804a7c8:	b8 00 00 00 00       	mov    $0x0,%eax
 804a7cd:	c9                   	leave  
 804a7ce:	c3                   	ret    

0804a7cf <shandler>:
 804a7cf:	55                   	push   %ebp
 804a7d0:	89 e5                	mov    %esp,%ebp
 804a7d2:	83 ec 18             	sub    $0x18,%esp
 804a7d5:	c7 04 24 20 40 05 08 	movl   $0x8054020,(%esp)
 804a7dc:	e8 cf ef ff ff       	call   80497b0 <gettext@plt>
 804a7e1:	8b 15 80 a0 05 08    	mov    0x805a080,%edx
 804a7e7:	8b 4d 08             	mov    0x8(%ebp),%ecx
 804a7ea:	89 4c 24 08          	mov    %ecx,0x8(%esp)
 804a7ee:	89 44 24 04          	mov    %eax,0x4(%esp)
 804a7f2:	89 14 24             	mov    %edx,(%esp)
 804a7f5:	e8 36 f0 ff ff       	call   8049830 <fprintf@plt>
 804a7fa:	83 7d 08 0b          	cmpl   $0xb,0x8(%ebp)
 804a7fe:	74 05                	je     804a805 <shandler+0x36>
 804a800:	e8 48 00 00 00       	call   804a84d <cleanUp>
 804a805:	c7 04 24 ff ff ff ff 	movl   $0xffffffff,(%esp)
 804a80c:	e8 6f ef ff ff       	call   8049780 <exit@plt>

0804a811 <snhandler>:
 804a811:	55                   	push   %ebp
 804a812:	89 e5                	mov    %esp,%ebp
 804a814:	83 ec 18             	sub    $0x18,%esp
 804a817:	c7 04 24 3c 40 05 08 	movl   $0x805403c,(%esp)
 804a81e:	e8 8d ef ff ff       	call   80497b0 <gettext@plt>
 804a823:	8b 15 80 a0 05 08    	mov    0x805a080,%edx
 804a829:	8b 4d 08             	mov    0x8(%ebp),%ecx
 804a82c:	89 4c 24 08          	mov    %ecx,0x8(%esp)
 804a830:	89 44 24 04          	mov    %eax,0x4(%esp)
 804a834:	89 14 24             	mov    %edx,(%esp)
 804a837:	e8 f4 ef ff ff       	call   8049830 <fprintf@plt>
 804a83c:	e8 0c 00 00 00       	call   804a84d <cleanUp>
 804a841:	c7 04 24 ff ff ff ff 	movl   $0xffffffff,(%esp)
 804a848:	e8 33 ef ff ff       	call   8049780 <exit@plt>

0804a84d <cleanUp>:
 804a84d:	55                   	push   %ebp
 804a84e:	89 e5                	mov    %esp,%ebp
 804a850:	83 ec 18             	sub    $0x18,%esp
 804a853:	c7 04 24 00 00 00 00 	movl   $0x0,(%esp)
 804a85a:	e8 41 ec ff ff       	call   80494a0 <fflush@plt>
 804a85f:	a1 a8 a0 05 08       	mov    0x805a0a8,%eax
 804a864:	85 c0                	test   %eax,%eax
 804a866:	75 17                	jne    804a87f <cleanUp+0x32>
 804a868:	a1 dc a0 05 08       	mov    0x805a0dc,%eax
 804a86d:	83 f8 01             	cmp    $0x1,%eax
 804a870:	75 0d                	jne    804a87f <cleanUp+0x32>
 804a872:	a1 ec a0 05 08       	mov    0x805a0ec,%eax
 804a877:	89 04 24             	mov    %eax,(%esp)
 804a87a:	e8 41 f1 ff ff       	call   80499c0 <remove@plt>
 804a87f:	c9                   	leave  
 804a880:	c3                   	ret    

0804a881 <read_key_file>:
 804a881:	55                   	push   %ebp
 804a882:	89 e5                	mov    %esp,%ebp
 804a884:	53                   	push   %ebx
 804a885:	81 ec 24 02 00 00    	sub    $0x224,%esp
 804a88b:	c7 45 f4 00 00 00 00 	movl   $0x0,-0xc(%ebp)
 804a892:	c7 45 f0 00 00 00 00 	movl   $0x0,-0x10(%ebp)
 804a899:	c7 44 24 04 59 40 05 	movl   $0x8054059,0x4(%esp)
 804a8a0:	08 
 804a8a1:	8b 45 08             	mov    0x8(%ebp),%eax
 804a8a4:	89 04 24             	mov    %eax,(%esp)
 804a8a7:	e8 f4 ef ff ff       	call   80498a0 <fopen@plt>
 804a8ac:	89 45 ec             	mov    %eax,-0x14(%ebp)
 804a8af:	83 7d ec 00          	cmpl   $0x0,-0x14(%ebp)
 804a8b3:	75 28                	jne    804a8dd <read_key_file+0x5c>
 804a8b5:	c7 04 24 5c 40 05 08 	movl   $0x805405c,(%esp)
 804a8bc:	e8 ef ee ff ff       	call   80497b0 <gettext@plt>
 804a8c1:	8b 15 80 a0 05 08    	mov    0x805a080,%edx
 804a8c7:	89 44 24 04          	mov    %eax,0x4(%esp)
 804a8cb:	89 14 24             	mov    %edx,(%esp)
 804a8ce:	e8 5d ef ff ff       	call   8049830 <fprintf@plt>
 804a8d3:	b8 00 00 00 00       	mov    $0x0,%eax
 804a8d8:	e9 32 01 00 00       	jmp    804aa0f <read_key_file+0x18e>
 804a8dd:	8b 45 ec             	mov    -0x14(%ebp),%eax
 804a8e0:	89 04 24             	mov    %eax,(%esp)
 804a8e3:	e8 08 f0 ff ff       	call   80498f0 <fileno@plt>
 804a8e8:	89 04 24             	mov    %eax,(%esp)
 804a8eb:	e8 52 3e 00 00       	call   804e742 <read_lock>
 804a8f0:	83 f8 ff             	cmp    $0xffffffff,%eax
 804a8f3:	75 28                	jne    804a91d <read_key_file+0x9c>
 804a8f5:	c7 04 24 88 40 05 08 	movl   $0x8054088,(%esp)
 804a8fc:	e8 af ee ff ff       	call   80497b0 <gettext@plt>
 804a901:	8b 15 80 a0 05 08    	mov    0x805a080,%edx
 804a907:	89 44 24 04          	mov    %eax,0x4(%esp)
 804a90b:	89 14 24             	mov    %edx,(%esp)
 804a90e:	e8 1d ef ff ff       	call   8049830 <fprintf@plt>
 804a913:	b8 00 00 00 00       	mov    $0x0,%eax
 804a918:	e9 f2 00 00 00       	jmp    804aa0f <read_key_file+0x18e>
 804a91d:	e9 aa 00 00 00       	jmp    804a9cc <read_key_file+0x14b>
 804a922:	83 45 f0 01          	addl   $0x1,-0x10(%ebp)
 804a926:	8b 45 f0             	mov    -0x10(%ebp),%eax
 804a929:	c1 e0 02             	shl    $0x2,%eax
 804a92c:	89 44 24 04          	mov    %eax,0x4(%esp)
 804a930:	8b 45 f4             	mov    -0xc(%ebp),%eax
 804a933:	89 04 24             	mov    %eax,(%esp)
 804a936:	e8 00 49 00 00       	call   804f23b <_mcrypt_realloc>
 804a93b:	89 45 f4             	mov    %eax,-0xc(%ebp)
 804a93e:	8b 45 f0             	mov    -0x10(%ebp),%eax
 804a941:	05 ff ff ff 3f       	add    $0x3fffffff,%eax
 804a946:	8d 14 85 00 00 00 00 	lea    0x0(,%eax,4),%edx
 804a94d:	8b 45 f4             	mov    -0xc(%ebp),%eax
 804a950:	8d 1c 02             	lea    (%edx,%eax,1),%ebx
 804a953:	8d 85 eb fd ff ff    	lea    -0x215(%ebp),%eax
 804a959:	89 04 24             	mov    %eax,(%esp)
 804a95c:	e8 af ee ff ff       	call   8049810 <strlen@plt>
 804a961:	83 c0 01             	add    $0x1,%eax
 804a964:	89 04 24             	mov    %eax,(%esp)
 804a967:	e8 18 48 00 00       	call   804f184 <_mcrypt_malloc>
 804a96c:	89 03                	mov    %eax,(%ebx)
 804a96e:	8d 85 eb fd ff ff    	lea    -0x215(%ebp),%eax
 804a974:	89 04 24             	mov    %eax,(%esp)
 804a977:	e8 94 ee ff ff       	call   8049810 <strlen@plt>
 804a97c:	83 e8 01             	sub    $0x1,%eax
 804a97f:	0f b6 84 05 eb fd ff 	movzbl -0x215(%ebp,%eax,1),%eax
 804a986:	ff 
 804a987:	3c 0a                	cmp    $0xa,%al
 804a989:	75 19                	jne    804a9a4 <read_key_file+0x123>
 804a98b:	8d 85 eb fd ff ff    	lea    -0x215(%ebp),%eax
 804a991:	89 04 24             	mov    %eax,(%esp)
 804a994:	e8 77 ee ff ff       	call   8049810 <strlen@plt>
 804a999:	83 e8 01             	sub    $0x1,%eax
 804a99c:	c6 84 05 eb fd ff ff 	movb   $0x0,-0x215(%ebp,%eax,1)
 804a9a3:	00 
 804a9a4:	8b 45 f0             	mov    -0x10(%ebp),%eax
 804a9a7:	05 ff ff ff 3f       	add    $0x3fffffff,%eax
 804a9ac:	8d 14 85 00 00 00 00 	lea    0x0(,%eax,4),%edx
 804a9b3:	8b 45 f4             	mov    -0xc(%ebp),%eax
 804a9b6:	01 d0                	add    %edx,%eax
 804a9b8:	8b 00                	mov    (%eax),%eax
 804a9ba:	8d 95 eb fd ff ff    	lea    -0x215(%ebp),%edx
 804a9c0:	89 54 24 04          	mov    %edx,0x4(%esp)
 804a9c4:	89 04 24             	mov    %eax,(%esp)
 804a9c7:	e8 04 ed ff ff       	call   80496d0 <strcpy@plt>
 804a9cc:	8b 45 ec             	mov    -0x14(%ebp),%eax
 804a9cf:	89 44 24 08          	mov    %eax,0x8(%esp)
 804a9d3:	c7 44 24 04 01 02 00 	movl   $0x201,0x4(%esp)
 804a9da:	00 
 804a9db:	8d 85 eb fd ff ff    	lea    -0x215(%ebp),%eax
 804a9e1:	89 04 24             	mov    %eax,(%esp)
 804a9e4:	e8 47 eb ff ff       	call   8049530 <fgets@plt>
 804a9e9:	85 c0                	test   %eax,%eax
 804a9eb:	0f 85 31 ff ff ff    	jne    804a922 <read_key_file+0xa1>
 804a9f1:	8b 45 0c             	mov    0xc(%ebp),%eax
 804a9f4:	8b 55 f0             	mov    -0x10(%ebp),%edx
 804a9f7:	89 10                	mov    %edx,(%eax)
 804a9f9:	8b 45 ec             	mov    -0x14(%ebp),%eax
 804a9fc:	89 04 24             	mov    %eax,(%esp)
 804a9ff:	e8 ec ee ff ff       	call   80498f0 <fileno@plt>
 804aa04:	89 04 24             	mov    %eax,(%esp)
 804aa07:	e8 d7 3e 00 00       	call   804e8e3 <unlock>
 804aa0c:	8b 45 f4             	mov    -0xc(%ebp),%eax
 804aa0f:	81 c4 24 02 00 00    	add    $0x224,%esp
 804aa15:	5b                   	pop    %ebx
 804aa16:	5d                   	pop    %ebp
 804aa17:	c3                   	ret    

0804aa18 <get_cfile>:
 804aa18:	55                   	push   %ebp
 804aa19:	89 e5                	mov    %esp,%ebp
 804aa1b:	57                   	push   %edi
 804aa1c:	53                   	push   %ebx
 804aa1d:	83 ec 20             	sub    $0x20,%esp
 804aa20:	8b 45 08             	mov    0x8(%ebp),%eax
 804aa23:	89 04 24             	mov    %eax,(%esp)
 804aa26:	e8 45 ea ff ff       	call   8049470 <getpwuid@plt>
 804aa2b:	89 45 f0             	mov    %eax,-0x10(%ebp)
 804aa2e:	83 7d f0 00          	cmpl   $0x0,-0x10(%ebp)
 804aa32:	74 66                	je     804aa9a <get_cfile+0x82>
 804aa34:	8b 45 f0             	mov    -0x10(%ebp),%eax
 804aa37:	8b 40 14             	mov    0x14(%eax),%eax
 804aa3a:	89 04 24             	mov    %eax,(%esp)
 804aa3d:	e8 ce ed ff ff       	call   8049810 <strlen@plt>
 804aa42:	89 c3                	mov    %eax,%ebx
 804aa44:	8b 45 0c             	mov    0xc(%ebp),%eax
 804aa47:	89 04 24             	mov    %eax,(%esp)
 804aa4a:	e8 c1 ed ff ff       	call   8049810 <strlen@plt>
 804aa4f:	01 d8                	add    %ebx,%eax
 804aa51:	83 c0 02             	add    $0x2,%eax
 804aa54:	89 04 24             	mov    %eax,(%esp)
 804aa57:	e8 28 47 00 00       	call   804f184 <_mcrypt_malloc>
 804aa5c:	89 45 f4             	mov    %eax,-0xc(%ebp)
 804aa5f:	8b 45 f0             	mov    -0x10(%ebp),%eax
 804aa62:	8b 40 14             	mov    0x14(%eax),%eax
 804aa65:	89 44 24 04          	mov    %eax,0x4(%esp)
 804aa69:	8b 45 f4             	mov    -0xc(%ebp),%eax
 804aa6c:	89 04 24             	mov    %eax,(%esp)
 804aa6f:	e8 5c ec ff ff       	call   80496d0 <strcpy@plt>
 804aa74:	8b 45 f4             	mov    -0xc(%ebp),%eax
 804aa77:	b9 ff ff ff ff       	mov    $0xffffffff,%ecx
 804aa7c:	89 c2                	mov    %eax,%edx
 804aa7e:	b8 00 00 00 00       	mov    $0x0,%eax
 804aa83:	89 d7                	mov    %edx,%edi
 804aa85:	f2 ae                	repnz scas %es:(%edi),%al
 804aa87:	89 c8                	mov    %ecx,%eax
 804aa89:	f7 d0                	not    %eax
 804aa8b:	8d 50 ff             	lea    -0x1(%eax),%edx
 804aa8e:	8b 45 f4             	mov    -0xc(%ebp),%eax
 804aa91:	01 d0                	add    %edx,%eax
 804aa93:	66 c7 00 2f 00       	movw   $0x2f,(%eax)
 804aa98:	eb 21                	jmp    804aabb <get_cfile+0xa3>
 804aa9a:	8b 45 0c             	mov    0xc(%ebp),%eax
 804aa9d:	89 04 24             	mov    %eax,(%esp)
 804aaa0:	e8 6b ed ff ff       	call   8049810 <strlen@plt>
 804aaa5:	83 c0 02             	add    $0x2,%eax
 804aaa8:	89 44 24 04          	mov    %eax,0x4(%esp)
 804aaac:	c7 04 24 01 00 00 00 	movl   $0x1,(%esp)
 804aab3:	e8 24 47 00 00       	call   804f1dc <_mcrypt_calloc>
 804aab8:	89 45 f4             	mov    %eax,-0xc(%ebp)
 804aabb:	8b 45 0c             	mov    0xc(%ebp),%eax
 804aabe:	89 44 24 04          	mov    %eax,0x4(%esp)
 804aac2:	8b 45 f4             	mov    -0xc(%ebp),%eax
 804aac5:	89 04 24             	mov    %eax,(%esp)
 804aac8:	e8 c3 eb ff ff       	call   8049690 <strcat@plt>
 804aacd:	8b 45 f4             	mov    -0xc(%ebp),%eax
 804aad0:	83 c4 20             	add    $0x20,%esp
 804aad3:	5b                   	pop    %ebx
 804aad4:	5f                   	pop    %edi
 804aad5:	5d                   	pop    %ebp
 804aad6:	c3                   	ret    

0804aad7 <ask_overwrite>:
 804aad7:	55                   	push   %ebp
 804aad8:	89 e5                	mov    %esp,%ebp
 804aada:	83 ec 28             	sub    $0x28,%esp
 804aadd:	c7 45 f4 00 00 00 00 	movl   $0x0,-0xc(%ebp)
 804aae4:	c7 04 24 b4 40 05 08 	movl   $0x80540b4,(%esp)
 804aaeb:	e8 c0 ec ff ff       	call   80497b0 <gettext@plt>
 804aaf0:	8b 15 80 a0 05 08    	mov    0x805a080,%edx
 804aaf6:	8b 4d 0c             	mov    0xc(%ebp),%ecx
 804aaf9:	89 4c 24 0c          	mov    %ecx,0xc(%esp)
 804aafd:	8b 4d 08             	mov    0x8(%ebp),%ecx
 804ab00:	89 4c 24 08          	mov    %ecx,0x8(%esp)
 804ab04:	89 44 24 04          	mov    %eax,0x4(%esp)
 804ab08:	89 14 24             	mov    %edx,(%esp)
 804ab0b:	e8 20 ed ff ff       	call   8049830 <fprintf@plt>
 804ab10:	c7 44 24 04 59 40 05 	movl   $0x8054059,0x4(%esp)
 804ab17:	08 
 804ab18:	c7 04 24 ee 40 05 08 	movl   $0x80540ee,(%esp)
 804ab1f:	e8 7c ed ff ff       	call   80498a0 <fopen@plt>
 804ab24:	89 45 f0             	mov    %eax,-0x10(%ebp)
 804ab27:	83 7d f0 00          	cmpl   $0x0,-0x10(%ebp)
 804ab2b:	75 1d                	jne    804ab4a <ask_overwrite+0x73>
 804ab2d:	a1 84 a0 05 08       	mov    0x805a084,%eax
 804ab32:	89 45 f0             	mov    %eax,-0x10(%ebp)
 804ab35:	c7 44 24 04 00 00 00 	movl   $0x0,0x4(%esp)
 804ab3c:	00 
 804ab3d:	8b 45 f0             	mov    -0x10(%ebp),%eax
 804ab40:	89 04 24             	mov    %eax,(%esp)
 804ab43:	e8 c8 e8 ff ff       	call   8049410 <setbuf@plt>
 804ab48:	eb 07                	jmp    804ab51 <ask_overwrite+0x7a>
 804ab4a:	c7 45 f4 01 00 00 00 	movl   $0x1,-0xc(%ebp)
 804ab51:	8b 45 f0             	mov    -0x10(%ebp),%eax
 804ab54:	89 04 24             	mov    %eax,(%esp)
 804ab57:	e8 a4 ed ff ff       	call   8049900 <fgetc@plt>
 804ab5c:	88 45 ee             	mov    %al,-0x12(%ebp)
 804ab5f:	c6 45 ef 00          	movb   $0x0,-0x11(%ebp)
 804ab63:	83 7d f4 00          	cmpl   $0x0,-0xc(%ebp)
 804ab67:	74 0b                	je     804ab74 <ask_overwrite+0x9d>
 804ab69:	8b 45 f0             	mov    -0x10(%ebp),%eax
 804ab6c:	89 04 24             	mov    %eax,(%esp)
 804ab6f:	e8 dc e9 ff ff       	call   8049550 <fclose@plt>
 804ab74:	c7 44 24 04 f7 40 05 	movl   $0x80540f7,0x4(%esp)
 804ab7b:	08 
 804ab7c:	8d 45 ee             	lea    -0x12(%ebp),%eax
 804ab7f:	89 04 24             	mov    %eax,(%esp)
 804ab82:	e8 79 eb ff ff       	call   8049700 <strcoll@plt>
 804ab87:	85 c0                	test   %eax,%eax
 804ab89:	74 17                	je     804aba2 <ask_overwrite+0xcb>
 804ab8b:	c7 44 24 04 f9 40 05 	movl   $0x80540f9,0x4(%esp)
 804ab92:	08 
 804ab93:	8d 45 ee             	lea    -0x12(%ebp),%eax
 804ab96:	89 04 24             	mov    %eax,(%esp)
 804ab99:	e8 62 eb ff ff       	call   8049700 <strcoll@plt>
 804ab9e:	85 c0                	test   %eax,%eax
 804aba0:	75 07                	jne    804aba9 <ask_overwrite+0xd2>
 804aba2:	b8 01 00 00 00       	mov    $0x1,%eax
 804aba7:	eb 05                	jmp    804abae <ask_overwrite+0xd7>
 804aba9:	b8 00 00 00 00       	mov    $0x0,%eax
 804abae:	c9                   	leave  
 804abaf:	c3                   	ret    

0804abb0 <Bzero>:
 804abb0:	55                   	push   %ebp
 804abb1:	89 e5                	mov    %esp,%ebp
 804abb3:	83 ec 18             	sub    $0x18,%esp
 804abb6:	8b 45 0c             	mov    0xc(%ebp),%eax
 804abb9:	89 44 24 08          	mov    %eax,0x8(%esp)
 804abbd:	c7 44 24 04 00 00 00 	movl   $0x0,0x4(%esp)
 804abc4:	00 
 804abc5:	8b 45 08             	mov    0x8(%ebp),%eax
 804abc8:	89 04 24             	mov    %eax,(%esp)
 804abcb:	e8 e0 ec ff ff       	call   80498b0 <memset@plt>
 804abd0:	c9                   	leave  
 804abd1:	c3                   	ret    

0804abd2 <usage>:
 804abd2:	55                   	push   %ebp
 804abd3:	89 e5                	mov    %esp,%ebp
 804abd5:	83 ec 18             	sub    $0x18,%esp
 804abd8:	c7 04 24 fc 40 05 08 	movl   $0x80540fc,(%esp)
 804abdf:	e8 cc eb ff ff       	call   80497b0 <gettext@plt>
 804abe4:	8b 15 a0 a0 05 08    	mov    0x805a0a0,%edx
 804abea:	89 44 24 04          	mov    %eax,0x4(%esp)
 804abee:	89 14 24             	mov    %edx,(%esp)
 804abf1:	e8 3a ec ff ff       	call   8049830 <fprintf@plt>
 804abf6:	c7 04 24 8c 41 05 08 	movl   $0x805418c,(%esp)
 804abfd:	e8 ae eb ff ff       	call   80497b0 <gettext@plt>
 804ac02:	8b 15 a0 a0 05 08    	mov    0x805a0a0,%edx
 804ac08:	89 44 24 04          	mov    %eax,0x4(%esp)
 804ac0c:	89 14 24             	mov    %edx,(%esp)
 804ac0f:	e8 1c ec ff ff       	call   8049830 <fprintf@plt>
 804ac14:	c7 04 24 d0 41 05 08 	movl   $0x80541d0,(%esp)
 804ac1b:	e8 90 eb ff ff       	call   80497b0 <gettext@plt>
 804ac20:	8b 15 a0 a0 05 08    	mov    0x805a0a0,%edx
 804ac26:	89 44 24 04          	mov    %eax,0x4(%esp)
 804ac2a:	89 14 24             	mov    %edx,(%esp)
 804ac2d:	e8 fe eb ff ff       	call   8049830 <fprintf@plt>
 804ac32:	c7 04 24 e0 43 05 08 	movl   $0x80543e0,(%esp)
 804ac39:	e8 72 eb ff ff       	call   80497b0 <gettext@plt>
 804ac3e:	8b 15 a0 a0 05 08    	mov    0x805a0a0,%edx
 804ac44:	89 44 24 04          	mov    %eax,0x4(%esp)
 804ac48:	89 14 24             	mov    %edx,(%esp)
 804ac4b:	e8 e0 eb ff ff       	call   8049830 <fprintf@plt>
 804ac50:	c7 04 24 b4 4a 05 08 	movl   $0x8054ab4,(%esp)
 804ac57:	e8 54 eb ff ff       	call   80497b0 <gettext@plt>
 804ac5c:	8b 15 a0 a0 05 08    	mov    0x805a0a0,%edx
 804ac62:	89 44 24 04          	mov    %eax,0x4(%esp)
 804ac66:	89 14 24             	mov    %edx,(%esp)
 804ac69:	e8 c2 eb ff ff       	call   8049830 <fprintf@plt>
 804ac6e:	c7 04 24 ec 4a 05 08 	movl   $0x8054aec,(%esp)
 804ac75:	e8 36 eb ff ff       	call   80497b0 <gettext@plt>
 804ac7a:	8b 15 a0 a0 05 08    	mov    0x805a0a0,%edx
 804ac80:	89 44 24 04          	mov    %eax,0x4(%esp)
 804ac84:	89 14 24             	mov    %edx,(%esp)
 804ac87:	e8 a4 eb ff ff       	call   8049830 <fprintf@plt>
 804ac8c:	c7 04 24 3c 4b 05 08 	movl   $0x8054b3c,(%esp)
 804ac93:	e8 18 eb ff ff       	call   80497b0 <gettext@plt>
 804ac98:	8b 15 a0 a0 05 08    	mov    0x805a0a0,%edx
 804ac9e:	89 44 24 04          	mov    %eax,0x4(%esp)
 804aca2:	89 14 24             	mov    %edx,(%esp)
 804aca5:	e8 86 eb ff ff       	call   8049830 <fprintf@plt>
 804acaa:	c7 04 24 8c 4b 05 08 	movl   $0x8054b8c,(%esp)
 804acb1:	e8 fa ea ff ff       	call   80497b0 <gettext@plt>
 804acb6:	8b 15 a0 a0 05 08    	mov    0x805a0a0,%edx
 804acbc:	89 44 24 04          	mov    %eax,0x4(%esp)
 804acc0:	89 14 24             	mov    %edx,(%esp)
 804acc3:	e8 68 eb ff ff       	call   8049830 <fprintf@plt>
 804acc8:	c7 04 24 c0 4b 05 08 	movl   $0x8054bc0,(%esp)
 804accf:	e8 dc ea ff ff       	call   80497b0 <gettext@plt>
 804acd4:	8b 15 a0 a0 05 08    	mov    0x805a0a0,%edx
 804acda:	89 44 24 04          	mov    %eax,0x4(%esp)
 804acde:	89 14 24             	mov    %edx,(%esp)
 804ace1:	e8 4a eb ff ff       	call   8049830 <fprintf@plt>
 804ace6:	c9                   	leave  
 804ace7:	c3                   	ret    

0804ace8 <mcrypt_license>:
 804ace8:	55                   	push   %ebp
 804ace9:	89 e5                	mov    %esp,%ebp
 804aceb:	83 ec 18             	sub    $0x18,%esp
 804acee:	c7 04 24 58 4c 05 08 	movl   $0x8054c58,(%esp)
 804acf5:	e8 b6 ea ff ff       	call   80497b0 <gettext@plt>
 804acfa:	8b 15 a0 a0 05 08    	mov    0x805a0a0,%edx
 804ad00:	89 44 24 04          	mov    %eax,0x4(%esp)
 804ad04:	89 14 24             	mov    %edx,(%esp)
 804ad07:	e8 24 eb ff ff       	call   8049830 <fprintf@plt>
 804ad0c:	c9                   	leave  
 804ad0d:	c3                   	ret    

0804ad0e <check_hash_algo>:
 804ad0e:	55                   	push   %ebp
 804ad0f:	89 e5                	mov    %esp,%ebp
 804ad11:	81 ec 28 01 00 00    	sub    $0x128,%esp
 804ad17:	c7 45 f4 00 00 00 00 	movl   $0x0,-0xc(%ebp)
 804ad1e:	eb 76                	jmp    804ad96 <check_hash_algo+0x88>
 804ad20:	8b 45 f4             	mov    -0xc(%ebp),%eax
 804ad23:	89 04 24             	mov    %eax,(%esp)
 804ad26:	e8 05 e9 ff ff       	call   8049630 <mhash_get_hash_name@plt>
 804ad2b:	89 45 f0             	mov    %eax,-0x10(%ebp)
 804ad2e:	83 7d f0 00          	cmpl   $0x0,-0x10(%ebp)
 804ad32:	74 5e                	je     804ad92 <check_hash_algo+0x84>
 804ad34:	8b 45 f0             	mov    -0x10(%ebp),%eax
 804ad37:	89 44 24 04          	mov    %eax,0x4(%esp)
 804ad3b:	8d 85 f1 fe ff ff    	lea    -0x10f(%ebp),%eax
 804ad41:	89 04 24             	mov    %eax,(%esp)
 804ad44:	e8 87 e9 ff ff       	call   80496d0 <strcpy@plt>
 804ad49:	8b 45 f0             	mov    -0x10(%ebp),%eax
 804ad4c:	89 04 24             	mov    %eax,(%esp)
 804ad4f:	e8 9c e7 ff ff       	call   80494f0 <free@plt>
 804ad54:	8d 85 f1 fe ff ff    	lea    -0x10f(%ebp),%eax
 804ad5a:	89 04 24             	mov    %eax,(%esp)
 804ad5d:	e8 ae ea ff ff       	call   8049810 <strlen@plt>
 804ad62:	89 44 24 04          	mov    %eax,0x4(%esp)
 804ad66:	8d 85 f1 fe ff ff    	lea    -0x10f(%ebp),%eax
 804ad6c:	89 04 24             	mov    %eax,(%esp)
 804ad6f:	e8 e1 f4 ff ff       	call   804a255 <_tolow>
 804ad74:	8b 45 08             	mov    0x8(%ebp),%eax
 804ad77:	89 44 24 04          	mov    %eax,0x4(%esp)
 804ad7b:	8d 85 f1 fe ff ff    	lea    -0x10f(%ebp),%eax
 804ad81:	89 04 24             	mov    %eax,(%esp)
 804ad84:	e8 b7 e6 ff ff       	call   8049440 <strcmp@plt>
 804ad89:	85 c0                	test   %eax,%eax
 804ad8b:	75 05                	jne    804ad92 <check_hash_algo+0x84>
 804ad8d:	8b 45 f4             	mov    -0xc(%ebp),%eax
 804ad90:	eb 12                	jmp    804ada4 <check_hash_algo+0x96>
 804ad92:	83 45 f4 01          	addl   $0x1,-0xc(%ebp)
 804ad96:	81 7d f4 fe 00 00 00 	cmpl   $0xfe,-0xc(%ebp)
 804ad9d:	7e 81                	jle    804ad20 <check_hash_algo+0x12>
 804ad9f:	b8 ff ff ff ff       	mov    $0xffffffff,%eax
 804ada4:	c9                   	leave  
 804ada5:	c3                   	ret    

0804ada6 <mcrypt_version>:
 804ada6:	55                   	push   %ebp
 804ada7:	89 e5                	mov    %esp,%ebp
 804ada9:	83 ec 28             	sub    $0x28,%esp
 804adac:	c7 04 24 27 4f 05 08 	movl   $0x8054f27,(%esp)
 804adb3:	e8 f8 e9 ff ff       	call   80497b0 <gettext@plt>
 804adb8:	8b 15 80 a0 05 08    	mov    0x805a080,%edx
 804adbe:	c7 44 24 14 3f 4f 05 	movl   $0x8054f3f,0x14(%esp)
 804adc5:	08 
 804adc6:	c7 44 24 10 49 4f 05 	movl   $0x8054f49,0x10(%esp)
 804adcd:	08 
 804adce:	c7 44 24 0c 4c 4f 05 	movl   $0x8054f4c,0xc(%esp)
 804add5:	08 
 804add6:	c7 44 24 08 51 4f 05 	movl   $0x8054f51,0x8(%esp)
 804addd:	08 
 804adde:	89 44 24 04          	mov    %eax,0x4(%esp)
 804ade2:	89 14 24             	mov    %edx,(%esp)
 804ade5:	e8 46 ea ff ff       	call   8049830 <fprintf@plt>
 804adea:	c7 04 24 58 4f 05 08 	movl   $0x8054f58,(%esp)
 804adf1:	e8 ba e9 ff ff       	call   80497b0 <gettext@plt>
 804adf6:	8b 15 80 a0 05 08    	mov    0x805a080,%edx
 804adfc:	c7 44 24 08 51 4f 05 	movl   $0x8054f51,0x8(%esp)
 804ae03:	08 
 804ae04:	89 44 24 04          	mov    %eax,0x4(%esp)
 804ae08:	89 14 24             	mov    %edx,(%esp)
 804ae0b:	e8 20 ea ff ff       	call   8049830 <fprintf@plt>
 804ae10:	c7 04 24 78 4f 05 08 	movl   $0x8054f78,(%esp)
 804ae17:	e8 94 e9 ff ff       	call   80497b0 <gettext@plt>
 804ae1c:	8b 15 80 a0 05 08    	mov    0x805a080,%edx
 804ae22:	89 44 24 04          	mov    %eax,0x4(%esp)
 804ae26:	89 14 24             	mov    %edx,(%esp)
 804ae29:	e8 02 ea ff ff       	call   8049830 <fprintf@plt>
 804ae2e:	c9                   	leave  
 804ae2f:	c3                   	ret    

0804ae30 <main>:
 804ae30:	55                   	push   %ebp
 804ae31:	89 e5                	mov    %esp,%ebp
 804ae33:	57                   	push   %edi
 804ae34:	56                   	push   %esi
 804ae35:	53                   	push   %ebx
 804ae36:	83 e4 f0             	and    $0xfffffff0,%esp
 804ae39:	81 ec d0 00 00 00    	sub    $0xd0,%esp
 804ae3f:	66 c7 84 24 ce 00 00 	movw   $0x0,0xce(%esp)
 804ae46:	00 00 00 
 804ae49:	66 c7 84 24 cc 00 00 	movw   $0x0,0xcc(%esp)
 804ae50:	00 00 00 
 804ae53:	66 c7 84 24 ca 00 00 	movw   $0x0,0xca(%esp)
 804ae5a:	00 00 00 
 804ae5d:	66 c7 84 24 a2 00 00 	movw   $0x0,0xa2(%esp)
 804ae64:	00 00 00 
 804ae67:	66 c7 84 24 c8 00 00 	movw   $0x0,0xc8(%esp)
 804ae6e:	00 00 00 
 804ae71:	c7 84 24 c4 00 00 00 	movl   $0x0,0xc4(%esp)
 804ae78:	00 00 00 00 
 804ae7c:	c7 84 24 c0 00 00 00 	movl   $0x0,0xc0(%esp)
 804ae83:	00 00 00 00 
 804ae87:	c7 84 24 bc 00 00 00 	movl   $0x0,0xbc(%esp)
 804ae8e:	00 00 00 00 
 804ae92:	c7 84 24 b4 00 00 00 	movl   $0x0,0xb4(%esp)
 804ae99:	00 00 00 00 
 804ae9d:	c7 84 24 a4 00 00 00 	movl   $0x0,0xa4(%esp)
 804aea4:	00 00 00 00 
 804aea8:	c7 84 24 90 00 00 00 	movl   $0x0,0x90(%esp)
 804aeaf:	00 00 00 00 
 804aeb3:	c7 84 24 9c 00 00 00 	movl   $0x0,0x9c(%esp)
 804aeba:	00 00 00 00 
 804aebe:	c7 44 24 04 b8 4f 05 	movl   $0x8054fb8,0x4(%esp)
 804aec5:	08 
 804aec6:	c7 04 24 05 00 00 00 	movl   $0x5,(%esp)
 804aecd:	e8 8e ea ff ff       	call   8049960 <setlocale@plt>
 804aed2:	c7 44 24 04 b9 4f 05 	movl   $0x8054fb9,0x4(%esp)
 804aed9:	08 
 804aeda:	c7 04 24 d1 4f 05 08 	movl   $0x8054fd1,(%esp)
 804aee1:	e8 1a eb ff ff       	call   8049a00 <bindtextdomain@plt>
 804aee6:	c7 04 24 d1 4f 05 08 	movl   $0x8054fd1,(%esp)
 804aeed:	e8 0e e7 ff ff       	call   8049600 <textdomain@plt>
 804aef2:	8d 44 24 18          	lea    0x18(%esp),%eax
 804aef6:	89 44 24 08          	mov    %eax,0x8(%esp)
 804aefa:	8b 45 0c             	mov    0xc(%ebp),%eax
 804aefd:	89 44 24 04          	mov    %eax,0x4(%esp)
 804af01:	8b 45 08             	mov    0x8(%ebp),%eax
 804af04:	89 04 24             	mov    %eax,(%esp)
 804af07:	e8 01 84 00 00       	call   805330d <gaa>
 804af0c:	83 f8 ff             	cmp    $0xffffffff,%eax
 804af0f:	74 14                	je     804af25 <main+0xf5>
 804af11:	c7 04 24 d8 4f 05 08 	movl   $0x8054fd8,(%esp)
 804af18:	e8 93 e8 ff ff       	call   80497b0 <gettext@plt>
 804af1d:	89 04 24             	mov    %eax,(%esp)
 804af20:	e8 09 45 00 00       	call   804f42e <err_quit>
 804af25:	8b 44 24 34          	mov    0x34(%esp),%eax
 804af29:	85 c0                	test   %eax,%eax
 804af2b:	74 5c                	je     804af89 <main+0x159>
 804af2d:	8b 44 24 34          	mov    0x34(%esp),%eax
 804af31:	89 04 24             	mov    %eax,(%esp)
 804af34:	e8 d7 e8 ff ff       	call   8049810 <strlen@plt>
 804af39:	89 04 24             	mov    %eax,(%esp)
 804af3c:	e8 43 42 00 00       	call   804f184 <_mcrypt_malloc>
 804af41:	89 84 24 b0 00 00 00 	mov    %eax,0xb0(%esp)
 804af48:	8b 44 24 34          	mov    0x34(%esp),%eax
 804af4c:	89 44 24 04          	mov    %eax,0x4(%esp)
 804af50:	8b 84 24 b0 00 00 00 	mov    0xb0(%esp),%eax
 804af57:	89 04 24             	mov    %eax,(%esp)
 804af5a:	e8 71 e7 ff ff       	call   80496d0 <strcpy@plt>
 804af5f:	8b 84 24 b0 00 00 00 	mov    0xb0(%esp),%eax
 804af66:	89 04 24             	mov    %eax,(%esp)
 804af69:	e8 64 ee ff ff       	call   8049dd2 <check_file>
 804af6e:	83 f8 01             	cmp    $0x1,%eax
 804af71:	74 32                	je     804afa5 <main+0x175>
 804af73:	c7 04 24 f4 4f 05 08 	movl   $0x8054ff4,(%esp)
 804af7a:	e8 31 e8 ff ff       	call   80497b0 <gettext@plt>
 804af7f:	89 04 24             	mov    %eax,(%esp)
 804af82:	e8 f3 44 00 00       	call   804f47a <err_crit>
 804af87:	eb 1c                	jmp    804afa5 <main+0x175>
 804af89:	e8 52 e6 ff ff       	call   80495e0 <getuid@plt>
 804af8e:	c7 44 24 04 19 50 05 	movl   $0x8055019,0x4(%esp)
 804af95:	08 
 804af96:	89 04 24             	mov    %eax,(%esp)
 804af99:	e8 7a fa ff ff       	call   804aa18 <get_cfile>
 804af9e:	89 84 24 b0 00 00 00 	mov    %eax,0xb0(%esp)
 804afa5:	8b 84 24 b0 00 00 00 	mov    0xb0(%esp),%eax
 804afac:	89 04 24             	mov    %eax,(%esp)
 804afaf:	e8 1e ee ff ff       	call   8049dd2 <check_file>
 804afb4:	83 f8 01             	cmp    $0x1,%eax
 804afb7:	75 30                	jne    804afe9 <main+0x1b9>
 804afb9:	8d 44 24 18          	lea    0x18(%esp),%eax
 804afbd:	89 44 24 04          	mov    %eax,0x4(%esp)
 804afc1:	8b 84 24 b0 00 00 00 	mov    0xb0(%esp),%eax
 804afc8:	89 04 24             	mov    %eax,(%esp)
 804afcb:	e8 b7 8b 00 00       	call   8053b87 <gaa_file>
 804afd0:	83 f8 ff             	cmp    $0xffffffff,%eax
 804afd3:	74 14                	je     804afe9 <main+0x1b9>
 804afd5:	c7 04 24 24 50 05 08 	movl   $0x8055024,(%esp)
 804afdc:	e8 cf e7 ff ff       	call   80497b0 <gettext@plt>
 804afe1:	89 04 24             	mov    %eax,(%esp)
 804afe4:	e8 45 44 00 00       	call   804f42e <err_quit>
 804afe9:	8b 84 24 b0 00 00 00 	mov    0xb0(%esp),%eax
 804aff0:	89 04 24             	mov    %eax,(%esp)
 804aff3:	e8 84 43 00 00       	call   804f37c <_mcrypt_free>
 804aff8:	e8 d4 44 00 00       	call   804f4d1 <check_env>
 804affd:	83 f8 01             	cmp    $0x1,%eax
 804b000:	75 74                	jne    804b076 <main+0x246>
 804b002:	e8 0e 45 00 00       	call   804f515 <get_env_key>
 804b007:	85 c0                	test   %eax,%eax
 804b009:	74 1d                	je     804b028 <main+0x1f8>
 804b00b:	c7 44 24 2c 01 00 00 	movl   $0x1,0x2c(%esp)
 804b012:	00 
 804b013:	8b 44 24 28          	mov    0x28(%esp),%eax
 804b017:	89 04 24             	mov    %eax,(%esp)
 804b01a:	e8 5d 43 00 00       	call   804f37c <_mcrypt_free>
 804b01f:	e8 f1 44 00 00       	call   804f515 <get_env_key>
 804b024:	89 44 24 28          	mov    %eax,0x28(%esp)
 804b028:	e8 2a 45 00 00       	call   804f557 <get_env_algo>
 804b02d:	85 c0                	test   %eax,%eax
 804b02f:	74 15                	je     804b046 <main+0x216>
 804b031:	8b 44 24 30          	mov    0x30(%esp),%eax
 804b035:	89 04 24             	mov    %eax,(%esp)
 804b038:	e8 3f 43 00 00       	call   804f37c <_mcrypt_free>
 804b03d:	e8 15 45 00 00       	call   804f557 <get_env_algo>
 804b042:	89 44 24 30          	mov    %eax,0x30(%esp)
 804b046:	e8 20 45 00 00       	call   804f56b <get_env_mode>
 804b04b:	85 c0                	test   %eax,%eax
 804b04d:	74 15                	je     804b064 <main+0x234>
 804b04f:	8b 44 24 24          	mov    0x24(%esp),%eax
 804b053:	89 04 24             	mov    %eax,(%esp)
 804b056:	e8 21 43 00 00       	call   804f37c <_mcrypt_free>
 804b05b:	e8 0b 45 00 00       	call   804f56b <get_env_mode>
 804b060:	89 44 24 24          	mov    %eax,0x24(%esp)
 804b064:	e8 16 45 00 00       	call   804f57f <get_env_bit_mode>
 804b069:	85 c0                	test   %eax,%eax
 804b06b:	74 09                	je     804b076 <main+0x246>
 804b06d:	e8 0d 45 00 00       	call   804f57f <get_env_bit_mode>
 804b072:	89 44 24 44          	mov    %eax,0x44(%esp)
 804b076:	8d 44 24 18          	lea    0x18(%esp),%eax
 804b07a:	89 44 24 08          	mov    %eax,0x8(%esp)
 804b07e:	8b 45 0c             	mov    0xc(%ebp),%eax
 804b081:	89 44 24 04          	mov    %eax,0x4(%esp)
 804b085:	8b 45 08             	mov    0x8(%ebp),%eax
 804b088:	89 04 24             	mov    %eax,(%esp)
 804b08b:	e8 7d 82 00 00       	call   805330d <gaa>
 804b090:	83 f8 ff             	cmp    $0xffffffff,%eax
 804b093:	74 14                	je     804b0a9 <main+0x279>
 804b095:	c7 04 24 d8 4f 05 08 	movl   $0x8054fd8,(%esp)
 804b09c:	e8 0f e7 ff ff       	call   80497b0 <gettext@plt>
 804b0a1:	89 04 24             	mov    %eax,(%esp)
 804b0a4:	e8 85 43 00 00       	call   804f42e <err_quit>
 804b0a9:	8b 45 0c             	mov    0xc(%ebp),%eax
 804b0ac:	8b 00                	mov    (%eax),%eax
 804b0ae:	c7 44 24 04 46 50 05 	movl   $0x8055046,0x4(%esp)
 804b0b5:	08 
 804b0b6:	89 04 24             	mov    %eax,(%esp)
 804b0b9:	e8 72 e3 ff ff       	call   8049430 <strstr@plt>
 804b0be:	85 c0                	test   %eax,%eax
 804b0c0:	74 4a                	je     804b10c <main+0x2dc>
 804b0c2:	8b 45 0c             	mov    0xc(%ebp),%eax
 804b0c5:	8b 00                	mov    (%eax),%eax
 804b0c7:	89 04 24             	mov    %eax,(%esp)
 804b0ca:	e8 41 e7 ff ff       	call   8049810 <strlen@plt>
 804b0cf:	8b 55 0c             	mov    0xc(%ebp),%edx
 804b0d2:	8b 12                	mov    (%edx),%edx
 804b0d4:	89 44 24 04          	mov    %eax,0x4(%esp)
 804b0d8:	89 14 24             	mov    %edx,(%esp)
 804b0db:	e8 d0 fa ff ff       	call   804abb0 <Bzero>
 804b0e0:	8b 45 0c             	mov    0xc(%ebp),%eax
 804b0e3:	8b 00                	mov    (%eax),%eax
 804b0e5:	c7 00 6d 64 65 63    	movl   $0x6365646d,(%eax)
 804b0eb:	c7 40 04 72 79 70 74 	movl   $0x74707972,0x4(%eax)
 804b0f2:	c6 40 08 00          	movb   $0x0,0x8(%eax)
 804b0f6:	66 c7 84 24 cc 00 00 	movw   $0x1,0xcc(%esp)
 804b0fd:	00 01 00 
 804b100:	66 c7 84 24 ce 00 00 	movw   $0x0,0xce(%esp)
 804b107:	00 00 00 
 804b10a:	eb 59                	jmp    804b165 <main+0x335>
 804b10c:	8b 45 0c             	mov    0xc(%ebp),%eax
 804b10f:	8b 00                	mov    (%eax),%eax
 804b111:	89 04 24             	mov    %eax,(%esp)
 804b114:	e8 f7 e6 ff ff       	call   8049810 <strlen@plt>
 804b119:	83 f8 06             	cmp    $0x6,%eax
 804b11c:	76 33                	jbe    804b151 <main+0x321>
 804b11e:	8b 45 0c             	mov    0xc(%ebp),%eax
 804b121:	8b 00                	mov    (%eax),%eax
 804b123:	89 04 24             	mov    %eax,(%esp)
 804b126:	e8 e5 e6 ff ff       	call   8049810 <strlen@plt>
 804b12b:	8b 55 0c             	mov    0xc(%ebp),%edx
 804b12e:	8b 12                	mov    (%edx),%edx
 804b130:	89 44 24 04          	mov    %eax,0x4(%esp)
 804b134:	89 14 24             	mov    %edx,(%esp)
 804b137:	e8 74 fa ff ff       	call   804abb0 <Bzero>
 804b13c:	8b 45 0c             	mov    0xc(%ebp),%eax
 804b13f:	8b 00                	mov    (%eax),%eax
 804b141:	c7 00 6d 63 72 79    	movl   $0x7972636d,(%eax)
 804b147:	66 c7 40 04 70 74    	movw   $0x7470,0x4(%eax)
 804b14d:	c6 40 06 00          	movb   $0x0,0x6(%eax)
 804b151:	66 c7 84 24 cc 00 00 	movw   $0x0,0xcc(%esp)
 804b158:	00 00 00 
 804b15b:	66 c7 84 24 ce 00 00 	movw   $0x1,0xce(%esp)
 804b162:	00 01 00 
 804b165:	8b 44 24 1c          	mov    0x1c(%esp),%eax
 804b169:	c1 e0 02             	shl    $0x2,%eax
 804b16c:	85 c0                	test   %eax,%eax
 804b16e:	74 18                	je     804b188 <main+0x358>
 804b170:	8b 44 24 1c          	mov    0x1c(%esp),%eax
 804b174:	c1 e0 02             	shl    $0x2,%eax
 804b177:	89 04 24             	mov    %eax,(%esp)
 804b17a:	e8 05 40 00 00       	call   804f184 <_mcrypt_malloc>
 804b17f:	89 84 24 b8 00 00 00 	mov    %eax,0xb8(%esp)
 804b186:	eb 0b                	jmp    804b193 <main+0x363>
 804b188:	c7 84 24 b8 00 00 00 	movl   $0x0,0xb8(%esp)
 804b18f:	00 00 00 00 
 804b193:	8b 44 24 54          	mov    0x54(%esp),%eax
 804b197:	85 c0                	test   %eax,%eax
 804b199:	74 18                	je     804b1b3 <main+0x383>
 804b19b:	8b 44 24 5c          	mov    0x5c(%esp),%eax
 804b19f:	66 89 84 24 cc 00 00 	mov    %ax,0xcc(%esp)
 804b1a6:	00 
 804b1a7:	8b 44 24 58          	mov    0x58(%esp),%eax
 804b1ab:	66 89 84 24 ce 00 00 	mov    %ax,0xce(%esp)
 804b1b2:	00 
 804b1b3:	8b 84 24 84 00 00 00 	mov    0x84(%esp),%eax
 804b1ba:	83 f8 01             	cmp    $0x1,%eax
 804b1bd:	75 0a                	jne    804b1c9 <main+0x399>
 804b1bf:	c7 05 d8 a0 05 08 01 	movl   $0x1,0x805a0d8
 804b1c6:	00 00 00 
 804b1c9:	8b 84 24 88 00 00 00 	mov    0x88(%esp),%eax
 804b1d0:	66 89 84 24 a2 00 00 	mov    %ax,0xa2(%esp)
 804b1d7:	00 
 804b1d8:	8b 84 24 80 00 00 00 	mov    0x80(%esp),%eax
 804b1df:	a3 d4 a0 05 08       	mov    %eax,0x805a0d4
 804b1e4:	8b 44 24 40          	mov    0x40(%esp),%eax
 804b1e8:	a3 d0 a0 05 08       	mov    %eax,0x805a0d0
 804b1ed:	8b 84 24 8c 00 00 00 	mov    0x8c(%esp),%eax
 804b1f4:	a3 58 92 05 08       	mov    %eax,0x8059258
 804b1f9:	8b 44 24 74          	mov    0x74(%esp),%eax
 804b1fd:	a3 c0 a0 05 08       	mov    %eax,0x805a0c0
 804b202:	8b 44 24 70          	mov    0x70(%esp),%eax
 804b206:	a3 54 92 05 08       	mov    %eax,0x8059254
 804b20b:	8b 44 24 6c          	mov    0x6c(%esp),%eax
 804b20f:	a3 c4 a0 05 08       	mov    %eax,0x805a0c4
 804b214:	8b 44 24 60          	mov    0x60(%esp),%eax
 804b218:	a3 cc a0 05 08       	mov    %eax,0x805a0cc
 804b21d:	8b 44 24 64          	mov    0x64(%esp),%eax
 804b221:	a3 e8 a0 05 08       	mov    %eax,0x805a0e8
 804b226:	8b 44 24 68          	mov    0x68(%esp),%eax
 804b22a:	a3 bc a0 05 08       	mov    %eax,0x805a0bc
 804b22f:	8b 44 24 50          	mov    0x50(%esp),%eax
 804b233:	a3 a0 15 06 08       	mov    %eax,0x80615a0
 804b238:	8b 44 24 4c          	mov    0x4c(%esp),%eax
 804b23c:	a3 f0 a0 05 08       	mov    %eax,0x805a0f0
 804b241:	8b 44 24 48          	mov    0x48(%esp),%eax
 804b245:	a3 f4 a0 05 08       	mov    %eax,0x805a0f4
 804b24a:	8b 44 24 7c          	mov    0x7c(%esp),%eax
 804b24e:	a3 e0 a0 05 08       	mov    %eax,0x805a0e0
 804b253:	8b 44 24 78          	mov    0x78(%esp),%eax
 804b257:	a3 e4 a0 05 08       	mov    %eax,0x805a0e4
 804b25c:	8b 44 24 44          	mov    0x44(%esp),%eax
 804b260:	85 c0                	test   %eax,%eax
 804b262:	74 0b                	je     804b26f <main+0x43f>
 804b264:	8b 44 24 44          	mov    0x44(%esp),%eax
 804b268:	a3 ac a0 05 08       	mov    %eax,0x805a0ac
 804b26d:	eb 11                	jmp    804b280 <main+0x450>
 804b26f:	c7 04 24 4e 50 05 08 	movl   $0x805504e,(%esp)
 804b276:	e8 85 e2 ff ff       	call   8049500 <strdup@plt>
 804b27b:	a3 ac a0 05 08       	mov    %eax,0x805a0ac
 804b280:	8b 44 24 20          	mov    0x20(%esp),%eax
 804b284:	85 c0                	test   %eax,%eax
 804b286:	0f 84 a9 00 00 00    	je     804b335 <main+0x505>
 804b28c:	8b 44 24 20          	mov    0x20(%esp),%eax
 804b290:	89 04 24             	mov    %eax,(%esp)
 804b293:	e8 78 e5 ff ff       	call   8049810 <strlen@plt>
 804b298:	89 04 24             	mov    %eax,(%esp)
 804b29b:	e8 e4 3e 00 00       	call   804f184 <_mcrypt_malloc>
 804b2a0:	a3 b8 a0 05 08       	mov    %eax,0x805a0b8
 804b2a5:	8b 54 24 20          	mov    0x20(%esp),%edx
 804b2a9:	a1 b8 a0 05 08       	mov    0x805a0b8,%eax
 804b2ae:	89 54 24 04          	mov    %edx,0x4(%esp)
 804b2b2:	89 04 24             	mov    %eax,(%esp)
 804b2b5:	e8 16 e4 ff ff       	call   80496d0 <strcpy@plt>
 804b2ba:	a1 b8 a0 05 08       	mov    0x805a0b8,%eax
 804b2bf:	89 04 24             	mov    %eax,(%esp)
 804b2c2:	e8 47 fa ff ff       	call   804ad0e <check_hash_algo>
 804b2c7:	a3 c8 a0 05 08       	mov    %eax,0x805a0c8
 804b2cc:	a1 c8 a0 05 08       	mov    0x805a0c8,%eax
 804b2d1:	85 c0                	test   %eax,%eax
 804b2d3:	0f 89 88 00 00 00    	jns    804b361 <main+0x531>
 804b2d9:	c7 05 c8 a0 05 08 00 	movl   $0x0,0x805a0c8
 804b2e0:	00 00 00 
 804b2e3:	8b 1d b8 a0 05 08    	mov    0x805a0b8,%ebx
 804b2e9:	c7 04 24 5c 50 05 08 	movl   $0x805505c,(%esp)
 804b2f0:	e8 bb e4 ff ff       	call   80497b0 <gettext@plt>
 804b2f5:	8b 15 80 a0 05 08    	mov    0x805a080,%edx
 804b2fb:	89 5c 24 08          	mov    %ebx,0x8(%esp)
 804b2ff:	89 44 24 04          	mov    %eax,0x4(%esp)
 804b303:	89 14 24             	mov    %edx,(%esp)
 804b306:	e8 25 e5 ff ff       	call   8049830 <fprintf@plt>
 804b30b:	c7 04 24 84 50 05 08 	movl   $0x8055084,(%esp)
 804b312:	e8 99 e4 ff ff       	call   80497b0 <gettext@plt>
 804b317:	8b 15 80 a0 05 08    	mov    0x805a080,%edx
 804b31d:	89 44 24 04          	mov    %eax,0x4(%esp)
 804b321:	89 14 24             	mov    %edx,(%esp)
 804b324:	e8 07 e5 ff ff       	call   8049830 <fprintf@plt>
 804b329:	c7 04 24 01 00 00 00 	movl   $0x1,(%esp)
 804b330:	e8 4b e4 ff ff       	call   8049780 <exit@plt>
 804b335:	c7 05 c8 a0 05 08 00 	movl   $0x0,0x805a0c8
 804b33c:	00 00 00 
 804b33f:	c7 04 24 06 00 00 00 	movl   $0x6,(%esp)
 804b346:	e8 39 3e 00 00       	call   804f184 <_mcrypt_malloc>
 804b34b:	a3 b8 a0 05 08       	mov    %eax,0x805a0b8
 804b350:	a1 b8 a0 05 08       	mov    0x805a0b8,%eax
 804b355:	c7 00 63 72 63 33    	movl   $0x33637263,(%eax)
 804b35b:	66 c7 40 04 32 00    	movw   $0x32,0x4(%eax)
 804b361:	8b 44 24 3c          	mov    0x3c(%esp),%eax
 804b365:	85 c0                	test   %eax,%eax
 804b367:	74 5a                	je     804b3c3 <main+0x593>
 804b369:	66 c7 84 24 ca 00 00 	movw   $0x2,0xca(%esp)
 804b370:	00 02 00 
 804b373:	8b 44 24 3c          	mov    0x3c(%esp),%eax
 804b377:	8d 94 24 90 00 00 00 	lea    0x90(%esp),%edx
 804b37e:	89 54 24 04          	mov    %edx,0x4(%esp)
 804b382:	89 04 24             	mov    %eax,(%esp)
 804b385:	e8 f7 f4 ff ff       	call   804a881 <read_key_file>
 804b38a:	89 84 24 b4 00 00 00 	mov    %eax,0xb4(%esp)
 804b391:	83 bc 24 b4 00 00 00 	cmpl   $0x0,0xb4(%esp)
 804b398:	00 
 804b399:	75 0a                	jne    804b3a5 <main+0x575>
 804b39b:	66 c7 84 24 ca 00 00 	movw   $0x0,0xca(%esp)
 804b3a2:	00 00 00 
 804b3a5:	8b 84 24 90 00 00 00 	mov    0x90(%esp),%eax
 804b3ac:	85 c0                	test   %eax,%eax
 804b3ae:	0f 85 f0 00 00 00    	jne    804b4a4 <main+0x674>
 804b3b4:	66 c7 84 24 ca 00 00 	movw   $0x0,0xca(%esp)
 804b3bb:	00 00 00 
 804b3be:	e9 e1 00 00 00       	jmp    804b4a4 <main+0x674>
 804b3c3:	8b 44 24 28          	mov    0x28(%esp),%eax
 804b3c7:	85 c0                	test   %eax,%eax
 804b3c9:	0f 84 d5 00 00 00    	je     804b4a4 <main+0x674>
 804b3cf:	66 c7 84 24 ca 00 00 	movw   $0x2,0xca(%esp)
 804b3d6:	00 02 00 
 804b3d9:	8b 44 24 2c          	mov    0x2c(%esp),%eax
 804b3dd:	c1 e0 02             	shl    $0x2,%eax
 804b3e0:	89 04 24             	mov    %eax,(%esp)
 804b3e3:	e8 9c 3d 00 00       	call   804f184 <_mcrypt_malloc>
 804b3e8:	89 84 24 b4 00 00 00 	mov    %eax,0xb4(%esp)
 804b3ef:	8b 44 24 2c          	mov    0x2c(%esp),%eax
 804b3f3:	89 84 24 90 00 00 00 	mov    %eax,0x90(%esp)
 804b3fa:	c7 84 24 94 00 00 00 	movl   $0x0,0x94(%esp)
 804b401:	00 00 00 00 
 804b405:	e9 87 00 00 00       	jmp    804b491 <main+0x661>
 804b40a:	8b 84 24 94 00 00 00 	mov    0x94(%esp),%eax
 804b411:	8d 14 85 00 00 00 00 	lea    0x0(,%eax,4),%edx
 804b418:	8b 84 24 b4 00 00 00 	mov    0xb4(%esp),%eax
 804b41f:	8d 1c 02             	lea    (%edx,%eax,1),%ebx
 804b422:	8b 44 24 28          	mov    0x28(%esp),%eax
 804b426:	8b 94 24 94 00 00 00 	mov    0x94(%esp),%edx
 804b42d:	c1 e2 02             	shl    $0x2,%edx
 804b430:	01 d0                	add    %edx,%eax
 804b432:	8b 00                	mov    (%eax),%eax
 804b434:	89 04 24             	mov    %eax,(%esp)
 804b437:	e8 d4 e3 ff ff       	call   8049810 <strlen@plt>
 804b43c:	83 c0 0a             	add    $0xa,%eax
 804b43f:	89 04 24             	mov    %eax,(%esp)
 804b442:	e8 46 3e 00 00       	call   804f28d <_secure_mcrypt_malloc>
 804b447:	89 03                	mov    %eax,(%ebx)
 804b449:	8b 44 24 28          	mov    0x28(%esp),%eax
 804b44d:	8b 94 24 94 00 00 00 	mov    0x94(%esp),%edx
 804b454:	c1 e2 02             	shl    $0x2,%edx
 804b457:	01 d0                	add    %edx,%eax
 804b459:	8b 10                	mov    (%eax),%edx
 804b45b:	8b 84 24 94 00 00 00 	mov    0x94(%esp),%eax
 804b462:	8d 0c 85 00 00 00 00 	lea    0x0(,%eax,4),%ecx
 804b469:	8b 84 24 b4 00 00 00 	mov    0xb4(%esp),%eax
 804b470:	01 c8                	add    %ecx,%eax
 804b472:	8b 00                	mov    (%eax),%eax
 804b474:	89 54 24 04          	mov    %edx,0x4(%esp)
 804b478:	89 04 24             	mov    %eax,(%esp)
 804b47b:	e8 50 e2 ff ff       	call   80496d0 <strcpy@plt>
 804b480:	8b 84 24 94 00 00 00 	mov    0x94(%esp),%eax
 804b487:	83 c0 01             	add    $0x1,%eax
 804b48a:	89 84 24 94 00 00 00 	mov    %eax,0x94(%esp)
 804b491:	8b 54 24 2c          	mov    0x2c(%esp),%edx
 804b495:	8b 84 24 94 00 00 00 	mov    0x94(%esp),%eax
 804b49c:	39 c2                	cmp    %eax,%edx
 804b49e:	0f 8f 66 ff ff ff    	jg     804b40a <main+0x5da>
 804b4a4:	8b 44 24 24          	mov    0x24(%esp),%eax
 804b4a8:	85 c0                	test   %eax,%eax
 804b4aa:	74 33                	je     804b4df <main+0x6af>
 804b4ac:	8b 44 24 24          	mov    0x24(%esp),%eax
 804b4b0:	89 04 24             	mov    %eax,(%esp)
 804b4b3:	e8 58 e3 ff ff       	call   8049810 <strlen@plt>
 804b4b8:	83 c0 01             	add    $0x1,%eax
 804b4bb:	89 04 24             	mov    %eax,(%esp)
 804b4be:	e8 c1 3c 00 00       	call   804f184 <_mcrypt_malloc>
 804b4c3:	a3 b0 a0 05 08       	mov    %eax,0x805a0b0
 804b4c8:	8b 54 24 24          	mov    0x24(%esp),%edx
 804b4cc:	a1 b0 a0 05 08       	mov    0x805a0b0,%eax
 804b4d1:	89 54 24 04          	mov    %edx,0x4(%esp)
 804b4d5:	89 04 24             	mov    %eax,(%esp)
 804b4d8:	e8 f3 e1 ff ff       	call   80496d0 <strcpy@plt>
 804b4dd:	eb 11                	jmp    804b4f0 <main+0x6c0>
 804b4df:	c7 04 24 c0 50 05 08 	movl   $0x80550c0,(%esp)
 804b4e6:	e8 15 e0 ff ff       	call   8049500 <strdup@plt>
 804b4eb:	a3 b0 a0 05 08       	mov    %eax,0x805a0b0
 804b4f0:	8b 44 24 30          	mov    0x30(%esp),%eax
 804b4f4:	85 c0                	test   %eax,%eax
 804b4f6:	0f 84 35 01 00 00    	je     804b631 <main+0x801>
 804b4fc:	c7 84 24 9c 00 00 00 	movl   $0x1,0x9c(%esp)
 804b503:	01 00 00 00 
 804b507:	8b 44 24 30          	mov    0x30(%esp),%eax
 804b50b:	89 04 24             	mov    %eax,(%esp)
 804b50e:	e8 fd e2 ff ff       	call   8049810 <strlen@plt>
 804b513:	83 c0 01             	add    $0x1,%eax
 804b516:	89 04 24             	mov    %eax,(%esp)
 804b519:	e8 66 3c 00 00       	call   804f184 <_mcrypt_malloc>
 804b51e:	a3 b4 a0 05 08       	mov    %eax,0x805a0b4
 804b523:	8b 54 24 30          	mov    0x30(%esp),%edx
 804b527:	a1 b4 a0 05 08       	mov    0x805a0b4,%eax
 804b52c:	89 54 24 04          	mov    %edx,0x4(%esp)
 804b530:	89 04 24             	mov    %eax,(%esp)
 804b533:	e8 98 e1 ff ff       	call   80496d0 <strcpy@plt>
 804b538:	8b 15 f0 a0 05 08    	mov    0x805a0f0,%edx
 804b53e:	a1 b4 a0 05 08       	mov    0x805a0b4,%eax
 804b543:	89 54 24 04          	mov    %edx,0x4(%esp)
 804b547:	89 04 24             	mov    %eax,(%esp)
 804b54a:	e8 81 e0 ff ff       	call   80495d0 <mcrypt_module_is_block_algorithm@plt>
 804b54f:	89 84 24 94 00 00 00 	mov    %eax,0x94(%esp)
 804b556:	8b 84 24 94 00 00 00 	mov    0x94(%esp),%eax
 804b55d:	85 c0                	test   %eax,%eax
 804b55f:	79 34                	jns    804b595 <main+0x765>
 804b561:	8b 1d b4 a0 05 08    	mov    0x805a0b4,%ebx
 804b567:	c7 04 24 c4 50 05 08 	movl   $0x80550c4,(%esp)
 804b56e:	e8 3d e2 ff ff       	call   80497b0 <gettext@plt>
 804b573:	8b 15 80 a0 05 08    	mov    0x805a080,%edx
 804b579:	89 5c 24 08          	mov    %ebx,0x8(%esp)
 804b57d:	89 44 24 04          	mov    %eax,0x4(%esp)
 804b581:	89 14 24             	mov    %edx,(%esp)
 804b584:	e8 a7 e2 ff ff       	call   8049830 <fprintf@plt>
 804b589:	c7 04 24 01 00 00 00 	movl   $0x1,(%esp)
 804b590:	e8 eb e1 ff ff       	call   8049780 <exit@plt>
 804b595:	8b 84 24 94 00 00 00 	mov    0x94(%esp),%eax
 804b59c:	85 c0                	test   %eax,%eax
 804b59e:	0f 85 9e 00 00 00    	jne    804b642 <main+0x812>
 804b5a4:	8b 15 f4 a0 05 08    	mov    0x805a0f4,%edx
 804b5aa:	a1 b0 a0 05 08       	mov    0x805a0b0,%eax
 804b5af:	89 54 24 04          	mov    %edx,0x4(%esp)
 804b5b3:	89 04 24             	mov    %eax,(%esp)
 804b5b6:	e8 45 de ff ff       	call   8049400 <mcrypt_module_is_block_algorithm_mode@plt>
 804b5bb:	89 84 24 a8 00 00 00 	mov    %eax,0xa8(%esp)
 804b5c2:	83 bc 24 a8 00 00 00 	cmpl   $0x0,0xa8(%esp)
 804b5c9:	00 
 804b5ca:	78 31                	js     804b5fd <main+0x7cd>
 804b5cc:	a1 b0 a0 05 08       	mov    0x805a0b0,%eax
 804b5d1:	c7 44 24 04 07 00 00 	movl   $0x7,0x4(%esp)
 804b5d8:	00 
 804b5d9:	89 04 24             	mov    %eax,(%esp)
 804b5dc:	e8 5a 3c 00 00       	call   804f23b <_mcrypt_realloc>
 804b5e1:	a3 b0 a0 05 08       	mov    %eax,0x805a0b0
 804b5e6:	a1 b0 a0 05 08       	mov    0x805a0b0,%eax
 804b5eb:	c7 00 73 74 72 65    	movl   $0x65727473,(%eax)
 804b5f1:	66 c7 40 04 61 6d    	movw   $0x6d61,0x4(%eax)
 804b5f7:	c6 40 06 00          	movb   $0x0,0x6(%eax)
 804b5fb:	eb 45                	jmp    804b642 <main+0x812>
 804b5fd:	8b 1d b0 a0 05 08    	mov    0x805a0b0,%ebx
 804b603:	c7 04 24 de 50 05 08 	movl   $0x80550de,(%esp)
 804b60a:	e8 a1 e1 ff ff       	call   80497b0 <gettext@plt>
 804b60f:	8b 15 80 a0 05 08    	mov    0x805a080,%edx
 804b615:	89 5c 24 08          	mov    %ebx,0x8(%esp)
 804b619:	89 44 24 04          	mov    %eax,0x4(%esp)
 804b61d:	89 14 24             	mov    %edx,(%esp)
 804b620:	e8 0b e2 ff ff       	call   8049830 <fprintf@plt>
 804b625:	c7 04 24 01 00 00 00 	movl   $0x1,(%esp)
 804b62c:	e8 4f e1 ff ff       	call   8049780 <exit@plt>
 804b631:	c7 04 24 f3 50 05 08 	movl   $0x80550f3,(%esp)
 804b638:	e8 c3 de ff ff       	call   8049500 <strdup@plt>
 804b63d:	a3 b4 a0 05 08       	mov    %eax,0x805a0b4
 804b642:	8b 44 24 24          	mov    0x24(%esp),%eax
 804b646:	85 c0                	test   %eax,%eax
 804b648:	74 5c                	je     804b6a6 <main+0x876>
 804b64a:	8b 15 f4 a0 05 08    	mov    0x805a0f4,%edx
 804b650:	a1 b0 a0 05 08       	mov    0x805a0b0,%eax
 804b655:	89 54 24 04          	mov    %edx,0x4(%esp)
 804b659:	89 04 24             	mov    %eax,(%esp)
 804b65c:	e8 9f dd ff ff       	call   8049400 <mcrypt_module_is_block_algorithm_mode@plt>
 804b661:	89 84 24 a8 00 00 00 	mov    %eax,0xa8(%esp)
 804b668:	83 bc 24 a8 00 00 00 	cmpl   $0x0,0xa8(%esp)
 804b66f:	00 
 804b670:	79 34                	jns    804b6a6 <main+0x876>
 804b672:	8b 1d b0 a0 05 08    	mov    0x805a0b0,%ebx
 804b678:	c7 04 24 de 50 05 08 	movl   $0x80550de,(%esp)
 804b67f:	e8 2c e1 ff ff       	call   80497b0 <gettext@plt>
 804b684:	8b 15 80 a0 05 08    	mov    0x805a080,%edx
 804b68a:	89 5c 24 08          	mov    %ebx,0x8(%esp)
 804b68e:	89 44 24 04          	mov    %eax,0x4(%esp)
 804b692:	89 14 24             	mov    %edx,(%esp)
 804b695:	e8 96 e1 ff ff       	call   8049830 <fprintf@plt>
 804b69a:	c7 04 24 01 00 00 00 	movl   $0x1,(%esp)
 804b6a1:	e8 da e0 ff ff       	call   8049780 <exit@plt>
 804b6a6:	8b 44 24 50          	mov    0x50(%esp),%eax
 804b6aa:	85 c0                	test   %eax,%eax
 804b6ac:	0f 84 e7 00 00 00    	je     804b799 <main+0x969>
 804b6b2:	8b 5c 24 50          	mov    0x50(%esp),%ebx
 804b6b6:	8b 15 f0 a0 05 08    	mov    0x805a0f0,%edx
 804b6bc:	a1 b4 a0 05 08       	mov    0x805a0b4,%eax
 804b6c1:	89 54 24 04          	mov    %edx,0x4(%esp)
 804b6c5:	89 04 24             	mov    %eax,(%esp)
 804b6c8:	e8 b3 e2 ff ff       	call   8049980 <mcrypt_module_get_algo_key_size@plt>
 804b6cd:	39 c3                	cmp    %eax,%ebx
 804b6cf:	7e 14                	jle    804b6e5 <main+0x8b5>
 804b6d1:	c7 04 24 00 51 05 08 	movl   $0x8055100,(%esp)
 804b6d8:	e8 d3 e0 ff ff       	call   80497b0 <gettext@plt>
 804b6dd:	89 04 24             	mov    %eax,(%esp)
 804b6e0:	e8 49 3d 00 00       	call   804f42e <err_quit>
 804b6e5:	8b 15 f0 a0 05 08    	mov    0x805a0f0,%edx
 804b6eb:	a1 b4 a0 05 08       	mov    0x805a0b4,%eax
 804b6f0:	8d 8c 24 94 00 00 00 	lea    0x94(%esp),%ecx
 804b6f7:	89 4c 24 08          	mov    %ecx,0x8(%esp)
 804b6fb:	89 54 24 04          	mov    %edx,0x4(%esp)
 804b6ff:	89 04 24             	mov    %eax,(%esp)
 804b702:	e8 89 de ff ff       	call   8049590 <mcrypt_module_get_algo_supported_key_sizes@plt>
 804b707:	89 84 24 98 00 00 00 	mov    %eax,0x98(%esp)
 804b70e:	c7 84 24 ac 00 00 00 	movl   $0x0,0xac(%esp)
 804b715:	00 00 00 00 
 804b719:	c7 84 24 a8 00 00 00 	movl   $0x0,0xa8(%esp)
 804b720:	00 00 00 00 
 804b724:	eb 36                	jmp    804b75c <main+0x92c>
 804b726:	8b 84 24 a8 00 00 00 	mov    0xa8(%esp),%eax
 804b72d:	8d 14 85 00 00 00 00 	lea    0x0(,%eax,4),%edx
 804b734:	8b 84 24 98 00 00 00 	mov    0x98(%esp),%eax
 804b73b:	01 d0                	add    %edx,%eax
 804b73d:	8b 10                	mov    (%eax),%edx
 804b73f:	8b 44 24 50          	mov    0x50(%esp),%eax
 804b743:	39 c2                	cmp    %eax,%edx
 804b745:	75 0d                	jne    804b754 <main+0x924>
 804b747:	c7 84 24 ac 00 00 00 	movl   $0x1,0xac(%esp)
 804b74e:	01 00 00 00 
 804b752:	eb 18                	jmp    804b76c <main+0x93c>
 804b754:	83 84 24 a8 00 00 00 	addl   $0x1,0xa8(%esp)
 804b75b:	01 
 804b75c:	8b 84 24 94 00 00 00 	mov    0x94(%esp),%eax
 804b763:	39 84 24 a8 00 00 00 	cmp    %eax,0xa8(%esp)
 804b76a:	7c ba                	jl     804b726 <main+0x8f6>
 804b76c:	83 bc 24 ac 00 00 00 	cmpl   $0x0,0xac(%esp)
 804b773:	00 
 804b774:	75 14                	jne    804b78a <main+0x95a>
 804b776:	c7 04 24 3c 51 05 08 	movl   $0x805513c,(%esp)
 804b77d:	e8 2e e0 ff ff       	call   80497b0 <gettext@plt>
 804b782:	89 04 24             	mov    %eax,(%esp)
 804b785:	e8 a4 3c 00 00       	call   804f42e <err_quit>
 804b78a:	8b 84 24 98 00 00 00 	mov    0x98(%esp),%eax
 804b791:	89 04 24             	mov    %eax,(%esp)
 804b794:	e8 57 dd ff ff       	call   80494f0 <free@plt>
 804b799:	8b 44 24 2c          	mov    0x2c(%esp),%eax
 804b79d:	85 c0                	test   %eax,%eax
 804b79f:	74 1d                	je     804b7be <main+0x98e>
 804b7a1:	e8 2b 3d 00 00       	call   804f4d1 <check_env>
 804b7a6:	85 c0                	test   %eax,%eax
 804b7a8:	75 14                	jne    804b7be <main+0x98e>
 804b7aa:	c7 04 24 74 51 05 08 	movl   $0x8055174,(%esp)
 804b7b1:	e8 fa df ff ff       	call   80497b0 <gettext@plt>
 804b7b6:	89 04 24             	mov    %eax,(%esp)
 804b7b9:	e8 96 3c 00 00       	call   804f454 <err_warn>
 804b7be:	c7 04 24 36 00 00 00 	movl   $0x36,(%esp)
 804b7c5:	e8 66 e2 ff ff       	call   8049a30 <umask@plt>
 804b7ca:	c7 84 24 94 00 00 00 	movl   $0x0,0x94(%esp)
 804b7d1:	00 00 00 00 
 804b7d5:	8b 44 24 1c          	mov    0x1c(%esp),%eax
 804b7d9:	83 f8 01             	cmp    $0x1,%eax
 804b7dc:	75 25                	jne    804b803 <main+0x9d3>
 804b7de:	8b 44 24 18          	mov    0x18(%esp),%eax
 804b7e2:	8b 00                	mov    (%eax),%eax
 804b7e4:	c7 44 24 04 b5 51 05 	movl   $0x80551b5,0x4(%esp)
 804b7eb:	08 
 804b7ec:	89 04 24             	mov    %eax,(%esp)
 804b7ef:	e8 4c dc ff ff       	call   8049440 <strcmp@plt>
 804b7f4:	85 c0                	test   %eax,%eax
 804b7f6:	75 0b                	jne    804b803 <main+0x9d3>
 804b7f8:	8b 44 24 1c          	mov    0x1c(%esp),%eax
 804b7fc:	83 e8 01             	sub    $0x1,%eax
 804b7ff:	89 44 24 1c          	mov    %eax,0x1c(%esp)
 804b803:	8b 44 24 1c          	mov    0x1c(%esp),%eax
 804b807:	01 84 24 a4 00 00 00 	add    %eax,0xa4(%esp)
 804b80e:	83 bc 24 a4 00 00 00 	cmpl   $0x0,0xa4(%esp)
 804b815:	00 
 804b816:	75 0c                	jne    804b824 <main+0x9f4>
 804b818:	c7 05 a8 a0 05 08 01 	movl   $0x1,0x805a0a8
 804b81f:	00 00 00 
 804b822:	eb 3e                	jmp    804b862 <main+0xa32>
 804b824:	eb 3c                	jmp    804b862 <main+0xa32>
 804b826:	8b 84 24 94 00 00 00 	mov    0x94(%esp),%eax
 804b82d:	8d 14 85 00 00 00 00 	lea    0x0(,%eax,4),%edx
 804b834:	8b 84 24 b8 00 00 00 	mov    0xb8(%esp),%eax
 804b83b:	01 c2                	add    %eax,%edx
 804b83d:	8b 44 24 18          	mov    0x18(%esp),%eax
 804b841:	8b 8c 24 94 00 00 00 	mov    0x94(%esp),%ecx
 804b848:	c1 e1 02             	shl    $0x2,%ecx
 804b84b:	01 c8                	add    %ecx,%eax
 804b84d:	8b 00                	mov    (%eax),%eax
 804b84f:	89 02                	mov    %eax,(%edx)
 804b851:	8b 84 24 94 00 00 00 	mov    0x94(%esp),%eax
 804b858:	83 c0 01             	add    $0x1,%eax
 804b85b:	89 84 24 94 00 00 00 	mov    %eax,0x94(%esp)
 804b862:	8b 54 24 1c          	mov    0x1c(%esp),%edx
 804b866:	8b 84 24 94 00 00 00 	mov    0x94(%esp),%eax
 804b86d:	39 c2                	cmp    %eax,%edx
 804b86f:	7f b5                	jg     804b826 <main+0x9f6>
 804b871:	a1 a8 a0 05 08       	mov    0x805a0a8,%eax
 804b876:	83 f8 01             	cmp    $0x1,%eax
 804b879:	75 08                	jne    804b883 <main+0xa53>
 804b87b:	83 84 24 a4 00 00 00 	addl   $0x1,0xa4(%esp)
 804b882:	01 
 804b883:	c7 84 24 94 00 00 00 	movl   $0x0,0x94(%esp)
 804b88a:	00 00 00 00 
 804b88e:	e9 7a 09 00 00       	jmp    804c20d <main+0x13dd>
 804b893:	8b 84 24 94 00 00 00 	mov    0x94(%esp),%eax
 804b89a:	85 c0                	test   %eax,%eax
 804b89c:	74 16                	je     804b8b4 <main+0xa84>
 804b89e:	a1 ec a0 05 08       	mov    0x805a0ec,%eax
 804b8a3:	85 c0                	test   %eax,%eax
 804b8a5:	74 0d                	je     804b8b4 <main+0xa84>
 804b8a7:	a1 ec a0 05 08       	mov    0x805a0ec,%eax
 804b8ac:	89 04 24             	mov    %eax,(%esp)
 804b8af:	e8 c8 3a 00 00       	call   804f37c <_mcrypt_free>
 804b8b4:	66 83 bc 24 ca 00 00 	cmpw   $0x2,0xca(%esp)
 804b8bb:	00 02 
 804b8bd:	0f 85 92 00 00 00    	jne    804b955 <main+0xb25>
 804b8c3:	8b 84 24 90 00 00 00 	mov    0x90(%esp),%eax
 804b8ca:	8d 50 ff             	lea    -0x1(%eax),%edx
 804b8cd:	8b 84 24 94 00 00 00 	mov    0x94(%esp),%eax
 804b8d4:	39 c2                	cmp    %eax,%edx
 804b8d6:	7c 7d                	jl     804b955 <main+0xb25>
 804b8d8:	8b 84 24 94 00 00 00 	mov    0x94(%esp),%eax
 804b8df:	8d 14 85 00 00 00 00 	lea    0x0(,%eax,4),%edx
 804b8e6:	8b 84 24 b4 00 00 00 	mov    0xb4(%esp),%eax
 804b8ed:	01 d0                	add    %edx,%eax
 804b8ef:	8b 00                	mov    (%eax),%eax
 804b8f1:	89 84 24 bc 00 00 00 	mov    %eax,0xbc(%esp)
 804b8f8:	8b 84 24 94 00 00 00 	mov    0x94(%esp),%eax
 804b8ff:	85 c0                	test   %eax,%eax
 804b901:	74 52                	je     804b955 <main+0xb25>
 804b903:	8b 84 24 94 00 00 00 	mov    0x94(%esp),%eax
 804b90a:	05 ff ff ff 3f       	add    $0x3fffffff,%eax
 804b90f:	8d 14 85 00 00 00 00 	lea    0x0(,%eax,4),%edx
 804b916:	8b 84 24 b4 00 00 00 	mov    0xb4(%esp),%eax
 804b91d:	01 d0                	add    %edx,%eax
 804b91f:	8b 00                	mov    (%eax),%eax
 804b921:	89 04 24             	mov    %eax,(%esp)
 804b924:	e8 e7 de ff ff       	call   8049810 <strlen@plt>
 804b929:	89 c2                	mov    %eax,%edx
 804b92b:	8b 84 24 94 00 00 00 	mov    0x94(%esp),%eax
 804b932:	05 ff ff ff 3f       	add    $0x3fffffff,%eax
 804b937:	8d 0c 85 00 00 00 00 	lea    0x0(,%eax,4),%ecx
 804b93e:	8b 84 24 b4 00 00 00 	mov    0xb4(%esp),%eax
 804b945:	01 c8                	add    %ecx,%eax
 804b947:	8b 00                	mov    (%eax),%eax
 804b949:	89 54 24 04          	mov    %edx,0x4(%esp)
 804b94d:	89 04 24             	mov    %eax,(%esp)
 804b950:	e8 3a 3a 00 00       	call   804f38f <_secure_mcrypt_free>
 804b955:	a1 a8 a0 05 08       	mov    0x805a0a8,%eax
 804b95a:	85 c0                	test   %eax,%eax
 804b95c:	0f 85 82 00 00 00    	jne    804b9e4 <main+0xbb4>
 804b962:	8b 84 24 94 00 00 00 	mov    0x94(%esp),%eax
 804b969:	8d 14 85 00 00 00 00 	lea    0x0(,%eax,4),%edx
 804b970:	8b 84 24 b8 00 00 00 	mov    0xb8(%esp),%eax
 804b977:	01 d0                	add    %edx,%eax
 804b979:	8b 00                	mov    (%eax),%eax
 804b97b:	89 04 24             	mov    %eax,(%esp)
 804b97e:	e8 0c ee ff ff       	call   804a78f <is_normal_file>
 804b983:	85 c0                	test   %eax,%eax
 804b985:	75 5d                	jne    804b9e4 <main+0xbb4>
 804b987:	8b 84 24 94 00 00 00 	mov    0x94(%esp),%eax
 804b98e:	8d 14 85 00 00 00 00 	lea    0x0(,%eax,4),%edx
 804b995:	8b 84 24 b8 00 00 00 	mov    0xb8(%esp),%eax
 804b99c:	01 d0                	add    %edx,%eax
 804b99e:	8b 30                	mov    (%eax),%esi
 804b9a0:	8b 45 0c             	mov    0xc(%ebp),%eax
 804b9a3:	8b 18                	mov    (%eax),%ebx
 804b9a5:	c7 04 24 b8 51 05 08 	movl   $0x80551b8,(%esp)
 804b9ac:	e8 ff dd ff ff       	call   80497b0 <gettext@plt>
 804b9b1:	89 74 24 0c          	mov    %esi,0xc(%esp)
 804b9b5:	89 5c 24 08          	mov    %ebx,0x8(%esp)
 804b9b9:	89 44 24 04          	mov    %eax,0x4(%esp)
 804b9bd:	c7 04 24 c0 15 06 08 	movl   $0x80615c0,(%esp)
 804b9c4:	e8 e7 df ff ff       	call   80499b0 <sprintf@plt>
 804b9c9:	c7 04 24 c0 15 06 08 	movl   $0x80615c0,(%esp)
 804b9d0:	e8 a5 3a 00 00       	call   804f47a <err_crit>
 804b9d5:	c7 05 ec a0 05 08 00 	movl   $0x0,0x805a0ec
 804b9dc:	00 00 00 
 804b9df:	e9 18 08 00 00       	jmp    804c1fc <main+0x13cc>
 804b9e4:	66 83 bc 24 cc 00 00 	cmpw   $0x1,0xcc(%esp)
 804b9eb:	00 01 
 804b9ed:	0f 85 af 00 00 00    	jne    804baa2 <main+0xc72>
 804b9f3:	a1 a8 a0 05 08       	mov    0x805a0a8,%eax
 804b9f8:	83 f8 01             	cmp    $0x1,%eax
 804b9fb:	74 20                	je     804ba1d <main+0xbed>
 804b9fd:	8b 84 24 94 00 00 00 	mov    0x94(%esp),%eax
 804ba04:	8d 14 85 00 00 00 00 	lea    0x0(,%eax,4),%edx
 804ba0b:	8b 84 24 b8 00 00 00 	mov    0xb8(%esp),%eax
 804ba12:	01 d0                	add    %edx,%eax
 804ba14:	8b 00                	mov    (%eax),%eax
 804ba16:	89 84 24 c0 00 00 00 	mov    %eax,0xc0(%esp)
 804ba1d:	a1 84 a0 05 08       	mov    0x805a084,%eax
 804ba22:	89 04 24             	mov    %eax,(%esp)
 804ba25:	e8 c6 de ff ff       	call   80498f0 <fileno@plt>
 804ba2a:	89 04 24             	mov    %eax,(%esp)
 804ba2d:	e8 de df ff ff       	call   8049a10 <isatty@plt>
 804ba32:	83 f8 01             	cmp    $0x1,%eax
 804ba35:	0f 85 05 01 00 00    	jne    804bb40 <main+0xd10>
 804ba3b:	a1 a8 a0 05 08       	mov    0x805a0a8,%eax
 804ba40:	83 f8 01             	cmp    $0x1,%eax
 804ba43:	0f 85 f7 00 00 00    	jne    804bb40 <main+0xd10>
 804ba49:	66 83 bc 24 a2 00 00 	cmpw   $0x0,0xa2(%esp)
 804ba50:	00 00 
 804ba52:	0f 85 e8 00 00 00    	jne    804bb40 <main+0xd10>
 804ba58:	8b 45 0c             	mov    0xc(%ebp),%eax
 804ba5b:	8b 18                	mov    (%eax),%ebx
 804ba5d:	c7 04 24 e4 51 05 08 	movl   $0x80551e4,(%esp)
 804ba64:	e8 47 dd ff ff       	call   80497b0 <gettext@plt>
 804ba69:	89 5c 24 08          	mov    %ebx,0x8(%esp)
 804ba6d:	89 44 24 04          	mov    %eax,0x4(%esp)
 804ba71:	c7 04 24 c0 15 06 08 	movl   $0x80615c0,(%esp)
 804ba78:	e8 33 df ff ff       	call   80499b0 <sprintf@plt>
 804ba7d:	c7 04 24 c0 15 06 08 	movl   $0x80615c0,(%esp)
 804ba84:	e8 f1 39 00 00       	call   804f47a <err_crit>
 804ba89:	c7 04 24 1c 52 05 08 	movl   $0x805521c,(%esp)
 804ba90:	e8 1b dd ff ff       	call   80497b0 <gettext@plt>
 804ba95:	89 04 24             	mov    %eax,(%esp)
 804ba98:	e8 91 39 00 00       	call   804f42e <err_quit>
 804ba9d:	e9 9e 00 00 00       	jmp    804bb40 <main+0xd10>
 804baa2:	a1 a8 a0 05 08       	mov    0x805a0a8,%eax
 804baa7:	83 f8 01             	cmp    $0x1,%eax
 804baaa:	74 20                	je     804bacc <main+0xc9c>
 804baac:	8b 84 24 94 00 00 00 	mov    0x94(%esp),%eax
 804bab3:	8d 14 85 00 00 00 00 	lea    0x0(,%eax,4),%edx
 804baba:	8b 84 24 b8 00 00 00 	mov    0xb8(%esp),%eax
 804bac1:	01 d0                	add    %edx,%eax
 804bac3:	8b 00                	mov    (%eax),%eax
 804bac5:	89 84 24 c4 00 00 00 	mov    %eax,0xc4(%esp)
 804bacc:	a1 a0 a0 05 08       	mov    0x805a0a0,%eax
 804bad1:	89 04 24             	mov    %eax,(%esp)
 804bad4:	e8 17 de ff ff       	call   80498f0 <fileno@plt>
 804bad9:	89 04 24             	mov    %eax,(%esp)
 804badc:	e8 2f df ff ff       	call   8049a10 <isatty@plt>
 804bae1:	83 f8 01             	cmp    $0x1,%eax
 804bae4:	75 5a                	jne    804bb40 <main+0xd10>
 804bae6:	a1 a8 a0 05 08       	mov    0x805a0a8,%eax
 804baeb:	83 f8 01             	cmp    $0x1,%eax
 804baee:	75 50                	jne    804bb40 <main+0xd10>
 804baf0:	66 83 bc 24 a2 00 00 	cmpw   $0x0,0xa2(%esp)
 804baf7:	00 00 
 804baf9:	75 45                	jne    804bb40 <main+0xd10>
 804bafb:	8b 45 0c             	mov    0xc(%ebp),%eax
 804bafe:	8b 18                	mov    (%eax),%ebx
 804bb00:	c7 04 24 64 52 05 08 	movl   $0x8055264,(%esp)
 804bb07:	e8 a4 dc ff ff       	call   80497b0 <gettext@plt>
 804bb0c:	89 5c 24 08          	mov    %ebx,0x8(%esp)
 804bb10:	89 44 24 04          	mov    %eax,0x4(%esp)
 804bb14:	c7 04 24 c0 15 06 08 	movl   $0x80615c0,(%esp)
 804bb1b:	e8 90 de ff ff       	call   80499b0 <sprintf@plt>
 804bb20:	c7 04 24 c0 15 06 08 	movl   $0x80615c0,(%esp)
 804bb27:	e8 4e 39 00 00       	call   804f47a <err_crit>
 804bb2c:	c7 04 24 9c 52 05 08 	movl   $0x805529c,(%esp)
 804bb33:	e8 78 dc ff ff       	call   80497b0 <gettext@plt>
 804bb38:	89 04 24             	mov    %eax,(%esp)
 804bb3b:	e8 ee 38 00 00       	call   804f42e <err_quit>
 804bb40:	a1 a8 a0 05 08       	mov    0x805a0a8,%eax
 804bb45:	83 f8 01             	cmp    $0x1,%eax
 804bb48:	0f 84 1a 03 00 00    	je     804be68 <main+0x1038>
 804bb4e:	66 83 bc 24 cc 00 00 	cmpw   $0x1,0xcc(%esp)
 804bb55:	00 01 
 804bb57:	0f 85 8a 01 00 00    	jne    804bce7 <main+0xeb7>
 804bb5d:	8b 84 24 c0 00 00 00 	mov    0xc0(%esp),%eax
 804bb64:	89 04 24             	mov    %eax,(%esp)
 804bb67:	e8 a4 dc ff ff       	call   8049810 <strlen@plt>
 804bb6c:	89 84 24 a8 00 00 00 	mov    %eax,0xa8(%esp)
 804bb73:	8b 84 24 a8 00 00 00 	mov    0xa8(%esp),%eax
 804bb7a:	8d 50 ff             	lea    -0x1(%eax),%edx
 804bb7d:	8b 84 24 c0 00 00 00 	mov    0xc0(%esp),%eax
 804bb84:	01 d0                	add    %edx,%eax
 804bb86:	0f b6 00             	movzbl (%eax),%eax
 804bb89:	3c 63                	cmp    $0x63,%al
 804bb8b:	0f 85 d9 00 00 00    	jne    804bc6a <main+0xe3a>
 804bb91:	8b 84 24 a8 00 00 00 	mov    0xa8(%esp),%eax
 804bb98:	8d 50 fe             	lea    -0x2(%eax),%edx
 804bb9b:	8b 84 24 c0 00 00 00 	mov    0xc0(%esp),%eax
 804bba2:	01 d0                	add    %edx,%eax
 804bba4:	0f b6 00             	movzbl (%eax),%eax
 804bba7:	3c 6e                	cmp    $0x6e,%al
 804bba9:	0f 85 bb 00 00 00    	jne    804bc6a <main+0xe3a>
 804bbaf:	8b 84 24 a8 00 00 00 	mov    0xa8(%esp),%eax
 804bbb6:	8d 50 fd             	lea    -0x3(%eax),%edx
 804bbb9:	8b 84 24 c0 00 00 00 	mov    0xc0(%esp),%eax
 804bbc0:	01 d0                	add    %edx,%eax
 804bbc2:	0f b6 00             	movzbl (%eax),%eax
 804bbc5:	3c 2e                	cmp    $0x2e,%al
 804bbc7:	0f 85 9d 00 00 00    	jne    804bc6a <main+0xe3a>
 804bbcd:	8b 84 24 a8 00 00 00 	mov    0xa8(%esp),%eax
 804bbd4:	83 e8 02             	sub    $0x2,%eax
 804bbd7:	c7 44 24 04 01 00 00 	movl   $0x1,0x4(%esp)
 804bbde:	00 
 804bbdf:	89 04 24             	mov    %eax,(%esp)
 804bbe2:	e8 f5 35 00 00       	call   804f1dc <_mcrypt_calloc>
 804bbe7:	a3 ec a0 05 08       	mov    %eax,0x805a0ec
 804bbec:	8b 84 24 a8 00 00 00 	mov    0xa8(%esp),%eax
 804bbf3:	83 e8 03             	sub    $0x3,%eax
 804bbf6:	89 c2                	mov    %eax,%edx
 804bbf8:	a1 ec a0 05 08       	mov    0x805a0ec,%eax
 804bbfd:	89 54 24 08          	mov    %edx,0x8(%esp)
 804bc01:	8b 94 24 c0 00 00 00 	mov    0xc0(%esp),%edx
 804bc08:	89 54 24 04          	mov    %edx,0x4(%esp)
 804bc0c:	89 04 24             	mov    %eax,(%esp)
 804bc0f:	e8 bc dc ff ff       	call   80498d0 <strncpy@plt>
 804bc14:	a1 ec a0 05 08       	mov    0x805a0ec,%eax
 804bc19:	89 04 24             	mov    %eax,(%esp)
 804bc1c:	e8 b1 e1 ff ff       	call   8049dd2 <check_file>
 804bc21:	85 c0                	test   %eax,%eax
 804bc23:	74 39                	je     804bc5e <main+0xe2e>
 804bc25:	c7 05 dc a0 05 08 00 	movl   $0x0,0x805a0dc
 804bc2c:	00 00 00 
 804bc2f:	8b 15 ec a0 05 08    	mov    0x805a0ec,%edx
 804bc35:	8b 45 0c             	mov    0xc(%ebp),%eax
 804bc38:	8b 00                	mov    (%eax),%eax
 804bc3a:	89 54 24 04          	mov    %edx,0x4(%esp)
 804bc3e:	89 04 24             	mov    %eax,(%esp)
 804bc41:	e8 91 ee ff ff       	call   804aad7 <ask_overwrite>
 804bc46:	85 c0                	test   %eax,%eax
 804bc48:	75 05                	jne    804bc4f <main+0xe1f>
 804bc4a:	e9 ad 05 00 00       	jmp    804c1fc <main+0x13cc>
 804bc4f:	c7 05 dc a0 05 08 01 	movl   $0x1,0x805a0dc
 804bc56:	00 00 00 
 804bc59:	e9 84 00 00 00       	jmp    804bce2 <main+0xeb2>
 804bc5e:	c7 05 dc a0 05 08 01 	movl   $0x1,0x805a0dc
 804bc65:	00 00 00 
 804bc68:	eb 78                	jmp    804bce2 <main+0xeb2>
 804bc6a:	c7 05 dc a0 05 08 01 	movl   $0x1,0x805a0dc
 804bc71:	00 00 00 
 804bc74:	8b 84 24 a8 00 00 00 	mov    0xa8(%esp),%eax
 804bc7b:	83 c0 05             	add    $0x5,%eax
 804bc7e:	c7 44 24 04 01 00 00 	movl   $0x1,0x4(%esp)
 804bc85:	00 
 804bc86:	89 04 24             	mov    %eax,(%esp)
 804bc89:	e8 4e 35 00 00       	call   804f1dc <_mcrypt_calloc>
 804bc8e:	a3 ec a0 05 08       	mov    %eax,0x805a0ec
 804bc93:	8b 94 24 a8 00 00 00 	mov    0xa8(%esp),%edx
 804bc9a:	a1 ec a0 05 08       	mov    0x805a0ec,%eax
 804bc9f:	89 54 24 08          	mov    %edx,0x8(%esp)
 804bca3:	8b 94 24 c0 00 00 00 	mov    0xc0(%esp),%edx
 804bcaa:	89 54 24 04          	mov    %edx,0x4(%esp)
 804bcae:	89 04 24             	mov    %eax,(%esp)
 804bcb1:	e8 1a dc ff ff       	call   80498d0 <strncpy@plt>
 804bcb6:	8b 1d ec a0 05 08    	mov    0x805a0ec,%ebx
 804bcbc:	89 d8                	mov    %ebx,%eax
 804bcbe:	b9 ff ff ff ff       	mov    $0xffffffff,%ecx
 804bcc3:	89 c2                	mov    %eax,%edx
 804bcc5:	b8 00 00 00 00       	mov    $0x0,%eax
 804bcca:	89 d7                	mov    %edx,%edi
 804bccc:	f2 ae                	repnz scas %es:(%edi),%al
 804bcce:	89 c8                	mov    %ecx,%eax
 804bcd0:	f7 d0                	not    %eax
 804bcd2:	83 e8 01             	sub    $0x1,%eax
 804bcd5:	01 d8                	add    %ebx,%eax
 804bcd7:	c7 00 2e 64 63 00    	movl   $0x63642e,(%eax)
 804bcdd:	e9 ac 01 00 00       	jmp    804be8e <main+0x105e>
 804bce2:	e9 a7 01 00 00       	jmp    804be8e <main+0x105e>
 804bce7:	8b 84 24 c4 00 00 00 	mov    0xc4(%esp),%eax
 804bcee:	89 04 24             	mov    %eax,(%esp)
 804bcf1:	e8 1a db ff ff       	call   8049810 <strlen@plt>
 804bcf6:	83 c0 09             	add    $0x9,%eax
 804bcf9:	c7 44 24 04 01 00 00 	movl   $0x1,0x4(%esp)
 804bd00:	00 
 804bd01:	89 04 24             	mov    %eax,(%esp)
 804bd04:	e8 d3 34 00 00       	call   804f1dc <_mcrypt_calloc>
 804bd09:	a3 ec a0 05 08       	mov    %eax,0x805a0ec
 804bd0e:	a1 ec a0 05 08       	mov    0x805a0ec,%eax
 804bd13:	8b 94 24 c4 00 00 00 	mov    0xc4(%esp),%edx
 804bd1a:	89 54 24 04          	mov    %edx,0x4(%esp)
 804bd1e:	89 04 24             	mov    %eax,(%esp)
 804bd21:	e8 aa d9 ff ff       	call   80496d0 <strcpy@plt>
 804bd26:	a1 ec a0 05 08       	mov    0x805a0ec,%eax
 804bd2b:	c7 44 24 04 e2 52 05 	movl   $0x80552e2,0x4(%esp)
 804bd32:	08 
 804bd33:	89 04 24             	mov    %eax,(%esp)
 804bd36:	e8 f5 d6 ff ff       	call   8049430 <strstr@plt>
 804bd3b:	85 c0                	test   %eax,%eax
 804bd3d:	74 40                	je     804bd7f <main+0xf4f>
 804bd3f:	8b 35 ec a0 05 08    	mov    0x805a0ec,%esi
 804bd45:	8b 45 0c             	mov    0xc(%ebp),%eax
 804bd48:	8b 18                	mov    (%eax),%ebx
 804bd4a:	c7 04 24 e8 52 05 08 	movl   $0x80552e8,(%esp)
 804bd51:	e8 5a da ff ff       	call   80497b0 <gettext@plt>
 804bd56:	89 74 24 0c          	mov    %esi,0xc(%esp)
 804bd5a:	89 5c 24 08          	mov    %ebx,0x8(%esp)
 804bd5e:	89 44 24 04          	mov    %eax,0x4(%esp)
 804bd62:	c7 04 24 c0 15 06 08 	movl   $0x80615c0,(%esp)
 804bd69:	e8 42 dc ff ff       	call   80499b0 <sprintf@plt>
 804bd6e:	c7 04 24 c0 15 06 08 	movl   $0x80615c0,(%esp)
 804bd75:	e8 00 37 00 00       	call   804f47a <err_crit>
 804bd7a:	e9 7d 04 00 00       	jmp    804c1fc <main+0x13cc>
 804bd7f:	a1 a8 a0 05 08       	mov    0x805a0a8,%eax
 804bd84:	85 c0                	test   %eax,%eax
 804bd86:	75 66                	jne    804bdee <main+0xfbe>
 804bd88:	a1 e0 a0 05 08       	mov    0x805a0e0,%eax
 804bd8d:	83 f8 01             	cmp    $0x1,%eax
 804bd90:	75 27                	jne    804bdb9 <main+0xf89>
 804bd92:	8b 1d ec a0 05 08    	mov    0x805a0ec,%ebx
 804bd98:	89 d8                	mov    %ebx,%eax
 804bd9a:	b9 ff ff ff ff       	mov    $0xffffffff,%ecx
 804bd9f:	89 c2                	mov    %eax,%edx
 804bda1:	b8 00 00 00 00       	mov    $0x0,%eax
 804bda6:	89 d7                	mov    %edx,%edi
 804bda8:	f2 ae                	repnz scas %es:(%edi),%al
 804bdaa:	89 c8                	mov    %ecx,%eax
 804bdac:	f7 d0                	not    %eax
 804bdae:	83 e8 01             	sub    $0x1,%eax
 804bdb1:	01 d8                	add    %ebx,%eax
 804bdb3:	c7 00 2e 67 7a 00    	movl   $0x7a672e,(%eax)
 804bdb9:	a1 e4 a0 05 08       	mov    0x805a0e4,%eax
 804bdbe:	83 f8 01             	cmp    $0x1,%eax
 804bdc1:	75 2b                	jne    804bdee <main+0xfbe>
 804bdc3:	8b 1d ec a0 05 08    	mov    0x805a0ec,%ebx
 804bdc9:	89 d8                	mov    %ebx,%eax
 804bdcb:	b9 ff ff ff ff       	mov    $0xffffffff,%ecx
 804bdd0:	89 c2                	mov    %eax,%edx
 804bdd2:	b8 00 00 00 00       	mov    $0x0,%eax
 804bdd7:	89 d7                	mov    %edx,%edi
 804bdd9:	f2 ae                	repnz scas %es:(%edi),%al
 804bddb:	89 c8                	mov    %ecx,%eax
 804bddd:	f7 d0                	not    %eax
 804bddf:	83 e8 01             	sub    $0x1,%eax
 804bde2:	01 d8                	add    %ebx,%eax
 804bde4:	c7 00 2e 62 7a 32    	movl   $0x327a622e,(%eax)
 804bdea:	c6 40 04 00          	movb   $0x0,0x4(%eax)
 804bdee:	8b 1d ec a0 05 08    	mov    0x805a0ec,%ebx
 804bdf4:	89 d8                	mov    %ebx,%eax
 804bdf6:	b9 ff ff ff ff       	mov    $0xffffffff,%ecx
 804bdfb:	89 c2                	mov    %eax,%edx
 804bdfd:	b8 00 00 00 00       	mov    $0x0,%eax
 804be02:	89 d7                	mov    %edx,%edi
 804be04:	f2 ae                	repnz scas %es:(%edi),%al
 804be06:	89 c8                	mov    %ecx,%eax
 804be08:	f7 d0                	not    %eax
 804be0a:	83 e8 01             	sub    $0x1,%eax
 804be0d:	01 d8                	add    %ebx,%eax
 804be0f:	c7 00 2e 6e 63 00    	movl   $0x636e2e,(%eax)
 804be15:	a1 ec a0 05 08       	mov    0x805a0ec,%eax
 804be1a:	89 04 24             	mov    %eax,(%esp)
 804be1d:	e8 b0 df ff ff       	call   8049dd2 <check_file>
 804be22:	85 c0                	test   %eax,%eax
 804be24:	74 36                	je     804be5c <main+0x102c>
 804be26:	c7 05 dc a0 05 08 00 	movl   $0x0,0x805a0dc
 804be2d:	00 00 00 
 804be30:	8b 15 ec a0 05 08    	mov    0x805a0ec,%edx
 804be36:	8b 45 0c             	mov    0xc(%ebp),%eax
 804be39:	8b 00                	mov    (%eax),%eax
 804be3b:	89 54 24 04          	mov    %edx,0x4(%esp)
 804be3f:	89 04 24             	mov    %eax,(%esp)
 804be42:	e8 90 ec ff ff       	call   804aad7 <ask_overwrite>
 804be47:	85 c0                	test   %eax,%eax
 804be49:	75 05                	jne    804be50 <main+0x1020>
 804be4b:	e9 ac 03 00 00       	jmp    804c1fc <main+0x13cc>
 804be50:	c7 05 dc a0 05 08 01 	movl   $0x1,0x805a0dc
 804be57:	00 00 00 
 804be5a:	eb 32                	jmp    804be8e <main+0x105e>
 804be5c:	c7 05 dc a0 05 08 01 	movl   $0x1,0x805a0dc
 804be63:	00 00 00 
 804be66:	eb 26                	jmp    804be8e <main+0x105e>
 804be68:	c7 04 24 07 00 00 00 	movl   $0x7,(%esp)
 804be6f:	e8 10 33 00 00       	call   804f184 <_mcrypt_malloc>
 804be74:	a3 ec a0 05 08       	mov    %eax,0x805a0ec
 804be79:	a1 ec a0 05 08       	mov    0x805a0ec,%eax
 804be7e:	c7 00 73 74 64 6f    	movl   $0x6f647473,(%eax)
 804be84:	66 c7 40 04 75 74    	movw   $0x7475,0x4(%eax)
 804be8a:	c6 40 06 00          	movb   $0x0,0x6(%eax)
 804be8e:	66 83 bc 24 cc 00 00 	cmpw   $0x1,0xcc(%esp)
 804be95:	00 01 
 804be97:	0f 85 a8 01 00 00    	jne    804c045 <main+0x1215>
 804be9d:	8b 15 ec a0 05 08    	mov    0x805a0ec,%edx
 804bea3:	a1 b4 a0 05 08       	mov    0x805a0b4,%eax
 804bea8:	8b 8c 24 bc 00 00 00 	mov    0xbc(%esp),%ecx
 804beaf:	89 4c 24 0c          	mov    %ecx,0xc(%esp)
 804beb3:	89 54 24 08          	mov    %edx,0x8(%esp)
 804beb7:	8b 94 24 c0 00 00 00 	mov    0xc0(%esp),%edx
 804bebe:	89 54 24 04          	mov    %edx,0x4(%esp)
 804bec2:	89 04 24             	mov    %eax,(%esp)
 804bec5:	e8 90 10 00 00       	call   804cf5a <decrypt_general>
 804beca:	89 84 24 ac 00 00 00 	mov    %eax,0xac(%esp)
 804bed1:	83 bc 24 ac 00 00 00 	cmpl   $0x0,0xac(%esp)
 804bed8:	00 
 804bed9:	0f 85 cc 00 00 00    	jne    804bfab <main+0x117b>
 804bedf:	a1 a8 a0 05 08       	mov    0x805a0a8,%eax
 804bee4:	85 c0                	test   %eax,%eax
 804bee6:	75 35                	jne    804bf1d <main+0x10ed>
 804bee8:	c7 04 24 17 53 05 08 	movl   $0x8055317,(%esp)
 804beef:	e8 bc d8 ff ff       	call   80497b0 <gettext@plt>
 804bef4:	8b 94 24 c0 00 00 00 	mov    0xc0(%esp),%edx
 804befb:	89 54 24 08          	mov    %edx,0x8(%esp)
 804beff:	89 44 24 04          	mov    %eax,0x4(%esp)
 804bf03:	c7 04 24 c0 15 06 08 	movl   $0x80615c0,(%esp)
 804bf0a:	e8 a1 da ff ff       	call   80499b0 <sprintf@plt>
 804bf0f:	c7 04 24 c0 15 06 08 	movl   $0x80615c0,(%esp)
 804bf16:	e8 39 35 00 00       	call   804f454 <err_warn>
 804bf1b:	eb 28                	jmp    804bf45 <main+0x1115>
 804bf1d:	c7 04 24 2f 53 05 08 	movl   $0x805532f,(%esp)
 804bf24:	e8 87 d8 ff ff       	call   80497b0 <gettext@plt>
 804bf29:	89 44 24 04          	mov    %eax,0x4(%esp)
 804bf2d:	c7 04 24 c0 15 06 08 	movl   $0x80615c0,(%esp)
 804bf34:	e8 77 da ff ff       	call   80499b0 <sprintf@plt>
 804bf39:	c7 04 24 c0 15 06 08 	movl   $0x80615c0,(%esp)
 804bf40:	e8 0f 35 00 00       	call   804f454 <err_warn>
 804bf45:	a1 a8 a0 05 08       	mov    0x805a0a8,%eax
 804bf4a:	85 c0                	test   %eax,%eax
 804bf4c:	75 18                	jne    804bf66 <main+0x1136>
 804bf4e:	a1 ec a0 05 08       	mov    0x805a0ec,%eax
 804bf53:	89 44 24 04          	mov    %eax,0x4(%esp)
 804bf57:	8b 84 24 c0 00 00 00 	mov    0xc0(%esp),%eax
 804bf5e:	89 04 24             	mov    %eax,(%esp)
 804bf61:	e8 c4 e7 ff ff       	call   804a72a <copyDate>
 804bf66:	a1 d0 a0 05 08       	mov    0x805a0d0,%eax
 804bf6b:	83 f8 01             	cmp    $0x1,%eax
 804bf6e:	75 1f                	jne    804bf8f <main+0x115f>
 804bf70:	a1 a8 a0 05 08       	mov    0x805a0a8,%eax
 804bf75:	85 c0                	test   %eax,%eax
 804bf77:	75 16                	jne    804bf8f <main+0x115f>
 804bf79:	8b 84 24 c0 00 00 00 	mov    0xc0(%esp),%eax
 804bf80:	89 04 24             	mov    %eax,(%esp)
 804bf83:	e8 68 d6 ff ff       	call   80495f0 <unlink@plt>
 804bf88:	89 84 24 ac 00 00 00 	mov    %eax,0xac(%esp)
 804bf8f:	83 bc 24 ac 00 00 00 	cmpl   $0x0,0xac(%esp)
 804bf96:	00 
 804bf97:	0f 84 8d 00 00 00    	je     804c02a <main+0x11fa>
 804bf9d:	c7 04 24 45 53 05 08 	movl   $0x8055345,(%esp)
 804bfa4:	e8 b7 d6 ff ff       	call   8049660 <perror@plt>
 804bfa9:	eb 7f                	jmp    804c02a <main+0x11fa>
 804bfab:	a1 a8 a0 05 08       	mov    0x805a0a8,%eax
 804bfb0:	85 c0                	test   %eax,%eax
 804bfb2:	75 62                	jne    804c016 <main+0x11e6>
 804bfb4:	c7 04 24 4c 53 05 08 	movl   $0x805534c,(%esp)
 804bfbb:	e8 f0 d7 ff ff       	call   80497b0 <gettext@plt>
 804bfc0:	8b 94 24 c0 00 00 00 	mov    0xc0(%esp),%edx
 804bfc7:	89 54 24 08          	mov    %edx,0x8(%esp)
 804bfcb:	89 44 24 04          	mov    %eax,0x4(%esp)
 804bfcf:	c7 04 24 c0 15 06 08 	movl   $0x80615c0,(%esp)
 804bfd6:	e8 d5 d9 ff ff       	call   80499b0 <sprintf@plt>
 804bfdb:	c7 04 24 c0 15 06 08 	movl   $0x80615c0,(%esp)
 804bfe2:	e8 93 34 00 00       	call   804f47a <err_crit>
 804bfe7:	83 bc 24 ac 00 00 00 	cmpl   $0xffffffff,0xac(%esp)
 804bfee:	ff 
 804bfef:	74 18                	je     804c009 <main+0x11d9>
 804bff1:	a1 bc a0 05 08       	mov    0x805a0bc,%eax
 804bff6:	85 c0                	test   %eax,%eax
 804bff8:	75 30                	jne    804c02a <main+0x11fa>
 804bffa:	a1 ec a0 05 08       	mov    0x805a0ec,%eax
 804bfff:	89 04 24             	mov    %eax,(%esp)
 804c002:	e8 b9 d9 ff ff       	call   80499c0 <remove@plt>
 804c007:	eb 21                	jmp    804c02a <main+0x11fa>
 804c009:	c7 84 24 ac 00 00 00 	movl   $0x1,0xac(%esp)
 804c010:	01 00 00 00 
 804c014:	eb 14                	jmp    804c02a <main+0x11fa>
 804c016:	c7 04 24 78 53 05 08 	movl   $0x8055378,(%esp)
 804c01d:	e8 8e d7 ff ff       	call   80497b0 <gettext@plt>
 804c022:	89 04 24             	mov    %eax,(%esp)
 804c025:	e8 50 34 00 00       	call   804f47a <err_crit>
 804c02a:	8b 84 24 ac 00 00 00 	mov    0xac(%esp),%eax
 804c031:	89 c2                	mov    %eax,%edx
 804c033:	0f b7 84 24 c8 00 00 	movzwl 0xc8(%esp),%eax
 804c03a:	00 
 804c03b:	01 d0                	add    %edx,%eax
 804c03d:	66 89 84 24 c8 00 00 	mov    %ax,0xc8(%esp)
 804c044:	00 
 804c045:	66 83 bc 24 ce 00 00 	cmpw   $0x1,0xce(%esp)
 804c04c:	00 01 
 804c04e:	0f 85 a8 01 00 00    	jne    804c1fc <main+0x13cc>
 804c054:	8b 15 ec a0 05 08    	mov    0x805a0ec,%edx
 804c05a:	a1 b4 a0 05 08       	mov    0x805a0b4,%eax
 804c05f:	8b 8c 24 bc 00 00 00 	mov    0xbc(%esp),%ecx
 804c066:	89 4c 24 0c          	mov    %ecx,0xc(%esp)
 804c06a:	89 54 24 08          	mov    %edx,0x8(%esp)
 804c06e:	8b 94 24 c4 00 00 00 	mov    0xc4(%esp),%edx
 804c075:	89 54 24 04          	mov    %edx,0x4(%esp)
 804c079:	89 04 24             	mov    %eax,(%esp)
 804c07c:	e8 84 02 00 00       	call   804c305 <encrypt_general>
 804c081:	89 84 24 ac 00 00 00 	mov    %eax,0xac(%esp)
 804c088:	83 bc 24 ac 00 00 00 	cmpl   $0x0,0xac(%esp)
 804c08f:	00 
 804c090:	0f 85 cc 00 00 00    	jne    804c162 <main+0x1332>
 804c096:	a1 a8 a0 05 08       	mov    0x805a0a8,%eax
 804c09b:	85 c0                	test   %eax,%eax
 804c09d:	75 35                	jne    804c0d4 <main+0x12a4>
 804c09f:	c7 04 24 9f 53 05 08 	movl   $0x805539f,(%esp)
 804c0a6:	e8 05 d7 ff ff       	call   80497b0 <gettext@plt>
 804c0ab:	8b 94 24 c4 00 00 00 	mov    0xc4(%esp),%edx
 804c0b2:	89 54 24 08          	mov    %edx,0x8(%esp)
 804c0b6:	89 44 24 04          	mov    %eax,0x4(%esp)
 804c0ba:	c7 04 24 c0 15 06 08 	movl   $0x80615c0,(%esp)
 804c0c1:	e8 ea d8 ff ff       	call   80499b0 <sprintf@plt>
 804c0c6:	c7 04 24 c0 15 06 08 	movl   $0x80615c0,(%esp)
 804c0cd:	e8 82 33 00 00       	call   804f454 <err_warn>
 804c0d2:	eb 28                	jmp    804c0fc <main+0x12cc>
 804c0d4:	c7 04 24 b7 53 05 08 	movl   $0x80553b7,(%esp)
 804c0db:	e8 d0 d6 ff ff       	call   80497b0 <gettext@plt>
 804c0e0:	89 44 24 04          	mov    %eax,0x4(%esp)
 804c0e4:	c7 04 24 c0 15 06 08 	movl   $0x80615c0,(%esp)
 804c0eb:	e8 c0 d8 ff ff       	call   80499b0 <sprintf@plt>
 804c0f0:	c7 04 24 c0 15 06 08 	movl   $0x80615c0,(%esp)
 804c0f7:	e8 58 33 00 00       	call   804f454 <err_warn>
 804c0fc:	a1 a8 a0 05 08       	mov    0x805a0a8,%eax
 804c101:	85 c0                	test   %eax,%eax
 804c103:	75 18                	jne    804c11d <main+0x12ed>
 804c105:	a1 ec a0 05 08       	mov    0x805a0ec,%eax
 804c10a:	89 44 24 04          	mov    %eax,0x4(%esp)
 804c10e:	8b 84 24 c4 00 00 00 	mov    0xc4(%esp),%eax
 804c115:	89 04 24             	mov    %eax,(%esp)
 804c118:	e8 0d e6 ff ff       	call   804a72a <copyDate>
 804c11d:	a1 d0 a0 05 08       	mov    0x805a0d0,%eax
 804c122:	83 f8 01             	cmp    $0x1,%eax
 804c125:	75 1f                	jne    804c146 <main+0x1316>
 804c127:	a1 a8 a0 05 08       	mov    0x805a0a8,%eax
 804c12c:	85 c0                	test   %eax,%eax
 804c12e:	75 16                	jne    804c146 <main+0x1316>
 804c130:	8b 84 24 c4 00 00 00 	mov    0xc4(%esp),%eax
 804c137:	89 04 24             	mov    %eax,(%esp)
 804c13a:	e8 b1 d4 ff ff       	call   80495f0 <unlink@plt>
 804c13f:	89 84 24 ac 00 00 00 	mov    %eax,0xac(%esp)
 804c146:	83 bc 24 ac 00 00 00 	cmpl   $0x0,0xac(%esp)
 804c14d:	00 
 804c14e:	0f 84 8d 00 00 00    	je     804c1e1 <main+0x13b1>
 804c154:	c7 04 24 45 53 05 08 	movl   $0x8055345,(%esp)
 804c15b:	e8 00 d5 ff ff       	call   8049660 <perror@plt>
 804c160:	eb 7f                	jmp    804c1e1 <main+0x13b1>
 804c162:	a1 a8 a0 05 08       	mov    0x805a0a8,%eax
 804c167:	85 c0                	test   %eax,%eax
 804c169:	75 62                	jne    804c1cd <main+0x139d>
 804c16b:	c7 04 24 d0 53 05 08 	movl   $0x80553d0,(%esp)
 804c172:	e8 39 d6 ff ff       	call   80497b0 <gettext@plt>
 804c177:	8b 94 24 c4 00 00 00 	mov    0xc4(%esp),%edx
 804c17e:	89 54 24 08          	mov    %edx,0x8(%esp)
 804c182:	89 44 24 04          	mov    %eax,0x4(%esp)
 804c186:	c7 04 24 c0 15 06 08 	movl   $0x80615c0,(%esp)
 804c18d:	e8 1e d8 ff ff       	call   80499b0 <sprintf@plt>
 804c192:	c7 04 24 c0 15 06 08 	movl   $0x80615c0,(%esp)
 804c199:	e8 dc 32 00 00       	call   804f47a <err_crit>
 804c19e:	83 bc 24 ac 00 00 00 	cmpl   $0xffffffff,0xac(%esp)
 804c1a5:	ff 
 804c1a6:	74 18                	je     804c1c0 <main+0x1390>
 804c1a8:	a1 bc a0 05 08       	mov    0x805a0bc,%eax
 804c1ad:	85 c0                	test   %eax,%eax
 804c1af:	75 30                	jne    804c1e1 <main+0x13b1>
 804c1b1:	a1 ec a0 05 08       	mov    0x805a0ec,%eax
 804c1b6:	89 04 24             	mov    %eax,(%esp)
 804c1b9:	e8 02 d8 ff ff       	call   80499c0 <remove@plt>
 804c1be:	eb 21                	jmp    804c1e1 <main+0x13b1>
 804c1c0:	c7 84 24 ac 00 00 00 	movl   $0x1,0xac(%esp)
 804c1c7:	01 00 00 00 
 804c1cb:	eb 14                	jmp    804c1e1 <main+0x13b1>
 804c1cd:	c7 04 24 fc 53 05 08 	movl   $0x80553fc,(%esp)
 804c1d4:	e8 d7 d5 ff ff       	call   80497b0 <gettext@plt>
 804c1d9:	89 04 24             	mov    %eax,(%esp)
 804c1dc:	e8 99 32 00 00       	call   804f47a <err_crit>
 804c1e1:	8b 84 24 ac 00 00 00 	mov    0xac(%esp),%eax
 804c1e8:	89 c2                	mov    %eax,%edx
 804c1ea:	0f b7 84 24 c8 00 00 	movzwl 0xc8(%esp),%eax
 804c1f1:	00 
 804c1f2:	01 d0                	add    %edx,%eax
 804c1f4:	66 89 84 24 c8 00 00 	mov    %ax,0xc8(%esp)
 804c1fb:	00 
 804c1fc:	8b 84 24 94 00 00 00 	mov    0x94(%esp),%eax
 804c203:	83 c0 01             	add    $0x1,%eax
 804c206:	89 84 24 94 00 00 00 	mov    %eax,0x94(%esp)
 804c20d:	8b 84 24 94 00 00 00 	mov    0x94(%esp),%eax
 804c214:	3b 84 24 a4 00 00 00 	cmp    0xa4(%esp),%eax
 804c21b:	0f 8c 72 f6 ff ff    	jl     804b893 <main+0xa63>
 804c221:	83 bc 24 bc 00 00 00 	cmpl   $0x0,0xbc(%esp)
 804c228:	00 
 804c229:	74 31                	je     804c25c <main+0x142c>
 804c22b:	8b 84 24 bc 00 00 00 	mov    0xbc(%esp),%eax
 804c232:	89 04 24             	mov    %eax,(%esp)
 804c235:	e8 d6 d5 ff ff       	call   8049810 <strlen@plt>
 804c23a:	89 44 24 04          	mov    %eax,0x4(%esp)
 804c23e:	8b 84 24 bc 00 00 00 	mov    0xbc(%esp),%eax
 804c245:	89 04 24             	mov    %eax,(%esp)
 804c248:	e8 63 e9 ff ff       	call   804abb0 <Bzero>
 804c24d:	8b 84 24 bc 00 00 00 	mov    0xbc(%esp),%eax
 804c254:	89 04 24             	mov    %eax,(%esp)
 804c257:	e8 20 31 00 00       	call   804f37c <_mcrypt_free>
 804c25c:	c7 84 24 94 00 00 00 	movl   $0x0,0x94(%esp)
 804c263:	00 00 00 00 
 804c267:	eb 4f                	jmp    804c2b8 <main+0x1488>
 804c269:	8b 84 24 94 00 00 00 	mov    0x94(%esp),%eax
 804c270:	8d 14 85 00 00 00 00 	lea    0x0(,%eax,4),%edx
 804c277:	8b 45 0c             	mov    0xc(%ebp),%eax
 804c27a:	01 d0                	add    %edx,%eax
 804c27c:	8b 00                	mov    (%eax),%eax
 804c27e:	89 04 24             	mov    %eax,(%esp)
 804c281:	e8 8a d5 ff ff       	call   8049810 <strlen@plt>
 804c286:	8b 94 24 94 00 00 00 	mov    0x94(%esp),%edx
 804c28d:	8d 0c 95 00 00 00 00 	lea    0x0(,%edx,4),%ecx
 804c294:	8b 55 0c             	mov    0xc(%ebp),%edx
 804c297:	01 ca                	add    %ecx,%edx
 804c299:	8b 12                	mov    (%edx),%edx
 804c29b:	89 44 24 04          	mov    %eax,0x4(%esp)
 804c29f:	89 14 24             	mov    %edx,(%esp)
 804c2a2:	e8 09 e9 ff ff       	call   804abb0 <Bzero>
 804c2a7:	8b 84 24 94 00 00 00 	mov    0x94(%esp),%eax
 804c2ae:	83 c0 01             	add    $0x1,%eax
 804c2b1:	89 84 24 94 00 00 00 	mov    %eax,0x94(%esp)
 804c2b8:	8b 84 24 94 00 00 00 	mov    0x94(%esp),%eax
 804c2bf:	3b 45 08             	cmp    0x8(%ebp),%eax
 804c2c2:	7c a5                	jl     804c269 <main+0x1439>
 804c2c4:	66 83 bc 24 c8 00 00 	cmpw   $0x0,0xc8(%esp)
 804c2cb:	00 00 
 804c2cd:	74 07                	je     804c2d6 <main+0x14a6>
 804c2cf:	b8 01 00 00 00       	mov    $0x1,%eax
 804c2d4:	eb 05                	jmp    804c2db <main+0x14ab>
 804c2d6:	b8 00 00 00 00       	mov    $0x0,%eax
 804c2db:	8d 65 f4             	lea    -0xc(%ebp),%esp
 804c2de:	5b                   	pop    %ebx
 804c2df:	5e                   	pop    %esi
 804c2e0:	5f                   	pop    %edi
 804c2e1:	5d                   	pop    %ebp
 804c2e2:	c3                   	ret    

0804c2e3 <make_mult>:
 804c2e3:	55                   	push   %ebp
 804c2e4:	89 e5                	mov    %esp,%ebp
 804c2e6:	83 ec 10             	sub    $0x10,%esp
 804c2e9:	c7 45 fc 00 00 00 00 	movl   $0x0,-0x4(%ebp)
 804c2f0:	eb 06                	jmp    804c2f8 <make_mult+0x15>
 804c2f2:	8b 45 0c             	mov    0xc(%ebp),%eax
 804c2f5:	01 45 fc             	add    %eax,-0x4(%ebp)
 804c2f8:	8b 45 fc             	mov    -0x4(%ebp),%eax
 804c2fb:	3b 45 08             	cmp    0x8(%ebp),%eax
 804c2fe:	7c f2                	jl     804c2f2 <make_mult+0xf>
 804c300:	8b 45 fc             	mov    -0x4(%ebp),%eax
 804c303:	c9                   	leave  
 804c304:	c3                   	ret    

0804c305 <encrypt_general>:
 804c305:	55                   	push   %ebp
 804c306:	89 e5                	mov    %esp,%ebp
 804c308:	57                   	push   %edi
 804c309:	56                   	push   %esi
 804c30a:	53                   	push   %ebx
 804c30b:	81 ec 9c 00 00 00    	sub    $0x9c,%esp
 804c311:	c7 45 e4 00 00 00 00 	movl   $0x0,-0x1c(%ebp)
 804c318:	c7 45 e0 00 00 00 00 	movl   $0x0,-0x20(%ebp)
 804c31f:	c7 45 dc 00 00 00 00 	movl   $0x0,-0x24(%ebp)
 804c326:	c7 45 d4 00 00 00 00 	movl   $0x0,-0x2c(%ebp)
 804c32d:	c7 45 d0 00 00 00 00 	movl   $0x0,-0x30(%ebp)
 804c334:	c7 45 b0 00 00 00 00 	movl   $0x0,-0x50(%ebp)
 804c33b:	c7 45 8c 00 00 00 00 	movl   $0x0,-0x74(%ebp)
 804c342:	c7 45 c0 00 00 00 00 	movl   $0x0,-0x40(%ebp)
 804c349:	c7 45 ac 00 00 00 00 	movl   $0x0,-0x54(%ebp)
 804c350:	c7 45 bc 00 00 00 00 	movl   $0x0,-0x44(%ebp)
 804c357:	a1 c8 a0 05 08       	mov    0x805a0c8,%eax
 804c35c:	89 04 24             	mov    %eax,(%esp)
 804c35f:	e8 0c d2 ff ff       	call   8049570 <mhash_get_block_size@plt>
 804c364:	89 45 a8             	mov    %eax,-0x58(%ebp)
 804c367:	c7 45 b8 00 00 00 00 	movl   $0x0,-0x48(%ebp)
 804c36e:	c7 45 b4 00 00 00 00 	movl   $0x0,-0x4c(%ebp)
 804c375:	8b 0d f4 a0 05 08    	mov    0x805a0f4,%ecx
 804c37b:	8b 15 b0 a0 05 08    	mov    0x805a0b0,%edx
 804c381:	a1 f0 a0 05 08       	mov    0x805a0f0,%eax
 804c386:	89 4c 24 0c          	mov    %ecx,0xc(%esp)
 804c38a:	89 54 24 08          	mov    %edx,0x8(%esp)
 804c38e:	89 44 24 04          	mov    %eax,0x4(%esp)
 804c392:	8b 45 08             	mov    0x8(%ebp),%eax
 804c395:	89 04 24             	mov    %eax,(%esp)
 804c398:	e8 33 d1 ff ff       	call   80494d0 <mcrypt_module_open@plt>
 804c39d:	89 45 a4             	mov    %eax,-0x5c(%ebp)
 804c3a0:	83 7d a4 00          	cmpl   $0x0,-0x5c(%ebp)
 804c3a4:	75 1e                	jne    804c3c4 <encrypt_general+0xbf>
 804c3a6:	c7 04 24 24 54 05 08 	movl   $0x8055424,(%esp)
 804c3ad:	e8 fe d3 ff ff       	call   80497b0 <gettext@plt>
 804c3b2:	89 04 24             	mov    %eax,(%esp)
 804c3b5:	e8 c0 30 00 00       	call   804f47a <err_crit>
 804c3ba:	b8 01 00 00 00       	mov    $0x1,%eax
 804c3bf:	e9 8b 0b 00 00       	jmp    804cf4f <encrypt_general+0xc4a>
 804c3c4:	a1 a0 15 06 08       	mov    0x80615a0,%eax
 804c3c9:	85 c0                	test   %eax,%eax
 804c3cb:	75 10                	jne    804c3dd <encrypt_general+0xd8>
 804c3cd:	8b 45 a4             	mov    -0x5c(%ebp),%eax
 804c3d0:	89 04 24             	mov    %eax,(%esp)
 804c3d3:	e8 c8 d6 ff ff       	call   8049aa0 <mcrypt_enc_get_key_size@plt>
 804c3d8:	a3 a0 15 06 08       	mov    %eax,0x80615a0
 804c3dd:	a1 a0 15 06 08       	mov    0x80615a0,%eax
 804c3e2:	89 45 a0             	mov    %eax,-0x60(%ebp)
 804c3e5:	8b 45 a4             	mov    -0x5c(%ebp),%eax
 804c3e8:	89 04 24             	mov    %eax,(%esp)
 804c3eb:	e8 f0 d3 ff ff       	call   80497e0 <mcrypt_enc_get_block_size@plt>
 804c3f0:	89 45 9c             	mov    %eax,-0x64(%ebp)
 804c3f3:	8b 45 9c             	mov    -0x64(%ebp),%eax
 804c3f6:	c1 e0 0a             	shl    $0xa,%eax
 804c3f9:	89 04 24             	mov    %eax,(%esp)
 804c3fc:	e8 83 2d 00 00       	call   804f184 <_mcrypt_malloc>
 804c401:	89 45 98             	mov    %eax,-0x68(%ebp)
 804c404:	a1 d4 a0 05 08       	mov    0x805a0d4,%eax
 804c409:	85 c0                	test   %eax,%eax
 804c40b:	75 5e                	jne    804c46b <encrypt_general+0x166>
 804c40d:	c7 04 24 14 00 00 00 	movl   $0x14,(%esp)
 804c414:	e8 6b 2d 00 00       	call   804f184 <_mcrypt_malloc>
 804c419:	89 45 bc             	mov    %eax,-0x44(%ebp)
 804c41c:	c7 45 d0 00 00 00 00 	movl   $0x0,-0x30(%ebp)
 804c423:	eb 3e                	jmp    804c463 <encrypt_general+0x15e>
 804c425:	a1 d8 a0 05 08       	mov    0x805a0d8,%eax
 804c42a:	83 f8 01             	cmp    $0x1,%eax
 804c42d:	75 19                	jne    804c448 <encrypt_general+0x143>
 804c42f:	8b 45 d0             	mov    -0x30(%ebp),%eax
 804c432:	8d 14 85 00 00 00 00 	lea    0x0(,%eax,4),%edx
 804c439:	8b 45 bc             	mov    -0x44(%ebp),%eax
 804c43c:	8d 1c 02             	lea    (%edx,%eax,1),%ebx
 804c43f:	e8 3e 2b 00 00       	call   804ef82 <get_safe_rand32>
 804c444:	89 03                	mov    %eax,(%ebx)
 804c446:	eb 17                	jmp    804c45f <encrypt_general+0x15a>
 804c448:	8b 45 d0             	mov    -0x30(%ebp),%eax
 804c44b:	8d 14 85 00 00 00 00 	lea    0x0(,%eax,4),%edx
 804c452:	8b 45 bc             	mov    -0x44(%ebp),%eax
 804c455:	8d 1c 02             	lea    (%edx,%eax,1),%ebx
 804c458:	e8 3c 2a 00 00       	call   804ee99 <get_rand32>
 804c45d:	89 03                	mov    %eax,(%ebx)
 804c45f:	83 45 d0 01          	addl   $0x1,-0x30(%ebp)
 804c463:	8b 45 d0             	mov    -0x30(%ebp),%eax
 804c466:	83 f8 04             	cmp    $0x4,%eax
 804c469:	76 ba                	jbe    804c425 <encrypt_general+0x120>
 804c46b:	8b 45 a4             	mov    -0x5c(%ebp),%eax
 804c46e:	89 04 24             	mov    %eax,(%esp)
 804c471:	e8 7a d5 ff ff       	call   80499f0 <mcrypt_enc_get_iv_size@plt>
 804c476:	89 04 24             	mov    %eax,(%esp)
 804c479:	e8 0f 2e 00 00       	call   804f28d <_secure_mcrypt_malloc>
 804c47e:	89 45 ac             	mov    %eax,-0x54(%ebp)
 804c481:	c7 45 d0 00 00 00 00 	movl   $0x0,-0x30(%ebp)
 804c488:	eb 5e                	jmp    804c4e8 <encrypt_general+0x1e3>
 804c48a:	a1 c4 a0 05 08       	mov    0x805a0c4,%eax
 804c48f:	85 c0                	test   %eax,%eax
 804c491:	75 3c                	jne    804c4cf <encrypt_general+0x1ca>
 804c493:	a1 d8 a0 05 08       	mov    0x805a0d8,%eax
 804c498:	83 f8 01             	cmp    $0x1,%eax
 804c49b:	75 19                	jne    804c4b6 <encrypt_general+0x1b1>
 804c49d:	8b 45 d0             	mov    -0x30(%ebp),%eax
 804c4a0:	8d 14 85 00 00 00 00 	lea    0x0(,%eax,4),%edx
 804c4a7:	8b 45 ac             	mov    -0x54(%ebp),%eax
 804c4aa:	8d 1c 02             	lea    (%edx,%eax,1),%ebx
 804c4ad:	e8 d0 2a 00 00       	call   804ef82 <get_safe_rand32>
 804c4b2:	89 03                	mov    %eax,(%ebx)
 804c4b4:	eb 2e                	jmp    804c4e4 <encrypt_general+0x1df>
 804c4b6:	8b 45 d0             	mov    -0x30(%ebp),%eax
 804c4b9:	8d 14 85 00 00 00 00 	lea    0x0(,%eax,4),%edx
 804c4c0:	8b 45 ac             	mov    -0x54(%ebp),%eax
 804c4c3:	8d 1c 02             	lea    (%edx,%eax,1),%ebx
 804c4c6:	e8 ce 29 00 00       	call   804ee99 <get_rand32>
 804c4cb:	89 03                	mov    %eax,(%ebx)
 804c4cd:	eb 15                	jmp    804c4e4 <encrypt_general+0x1df>
 804c4cf:	8b 45 d0             	mov    -0x30(%ebp),%eax
 804c4d2:	8d 14 85 00 00 00 00 	lea    0x0(,%eax,4),%edx
 804c4d9:	8b 45 ac             	mov    -0x54(%ebp),%eax
 804c4dc:	01 d0                	add    %edx,%eax
 804c4de:	c7 00 00 00 00 00    	movl   $0x0,(%eax)
 804c4e4:	83 45 d0 01          	addl   $0x1,-0x30(%ebp)
 804c4e8:	8b 5d d0             	mov    -0x30(%ebp),%ebx
 804c4eb:	8b 45 a4             	mov    -0x5c(%ebp),%eax
 804c4ee:	89 04 24             	mov    %eax,(%esp)
 804c4f1:	e8 fa d4 ff ff       	call   80499f0 <mcrypt_enc_get_iv_size@plt>
 804c4f6:	c1 e8 02             	shr    $0x2,%eax
 804c4f9:	39 c3                	cmp    %eax,%ebx
 804c4fb:	72 8d                	jb     804c48a <encrypt_general+0x185>
 804c4fd:	a1 a8 a0 05 08       	mov    0x805a0a8,%eax
 804c502:	83 f8 01             	cmp    $0x1,%eax
 804c505:	75 27                	jne    804c52e <encrypt_general+0x229>
 804c507:	a1 e0 a0 05 08       	mov    0x805a0e0,%eax
 804c50c:	85 c0                	test   %eax,%eax
 804c50e:	75 1e                	jne    804c52e <encrypt_general+0x229>
 804c510:	a1 e4 a0 05 08       	mov    0x805a0e4,%eax
 804c515:	85 c0                	test   %eax,%eax
 804c517:	75 15                	jne    804c52e <encrypt_general+0x229>
 804c519:	a1 84 a0 05 08       	mov    0x805a084,%eax
 804c51e:	89 45 88             	mov    %eax,-0x78(%ebp)
 804c521:	a1 a0 a0 05 08       	mov    0x805a0a0,%eax
 804c526:	89 45 b4             	mov    %eax,-0x4c(%ebp)
 804c529:	e9 80 02 00 00       	jmp    804c7ae <encrypt_general+0x4a9>
 804c52e:	a1 e0 a0 05 08       	mov    0x805a0e0,%eax
 804c533:	85 c0                	test   %eax,%eax
 804c535:	0f 85 d3 00 00 00    	jne    804c60e <encrypt_general+0x309>
 804c53b:	a1 e4 a0 05 08       	mov    0x805a0e4,%eax
 804c540:	85 c0                	test   %eax,%eax
 804c542:	0f 85 c6 00 00 00    	jne    804c60e <encrypt_general+0x309>
 804c548:	c7 44 24 04 43 54 05 	movl   $0x8055443,0x4(%esp)
 804c54f:	08 
 804c550:	8b 45 0c             	mov    0xc(%ebp),%eax
 804c553:	89 04 24             	mov    %eax,(%esp)
 804c556:	e8 45 d3 ff ff       	call   80498a0 <fopen@plt>
 804c55b:	89 45 88             	mov    %eax,-0x78(%ebp)
 804c55e:	8b 45 88             	mov    -0x78(%ebp),%eax
 804c561:	85 c0                	test   %eax,%eax
 804c563:	75 16                	jne    804c57b <encrypt_general+0x276>
 804c565:	c7 04 24 46 54 05 08 	movl   $0x8055446,(%esp)
 804c56c:	e8 ef d0 ff ff       	call   8049660 <perror@plt>
 804c571:	b8 01 00 00 00       	mov    $0x1,%eax
 804c576:	e9 d4 09 00 00       	jmp    804cf4f <encrypt_general+0xc4a>
 804c57b:	8b 45 88             	mov    -0x78(%ebp),%eax
 804c57e:	89 04 24             	mov    %eax,(%esp)
 804c581:	e8 6a d3 ff ff       	call   80498f0 <fileno@plt>
 804c586:	89 04 24             	mov    %eax,(%esp)
 804c589:	e8 b4 21 00 00       	call   804e742 <read_lock>
 804c58e:	83 f8 ff             	cmp    $0xffffffff,%eax
 804c591:	75 16                	jne    804c5a9 <encrypt_general+0x2a4>
 804c593:	c7 04 24 4c 54 05 08 	movl   $0x805544c,(%esp)
 804c59a:	e8 db 2e 00 00       	call   804f47a <err_crit>
 804c59f:	b8 01 00 00 00       	mov    $0x1,%eax
 804c5a4:	e9 a6 09 00 00       	jmp    804cf4f <encrypt_general+0xc4a>
 804c5a9:	c7 44 24 04 6f 54 05 	movl   $0x805546f,0x4(%esp)
 804c5b0:	08 
 804c5b1:	8b 45 10             	mov    0x10(%ebp),%eax
 804c5b4:	89 04 24             	mov    %eax,(%esp)
 804c5b7:	e8 e4 d2 ff ff       	call   80498a0 <fopen@plt>
 804c5bc:	89 45 b4             	mov    %eax,-0x4c(%ebp)
 804c5bf:	83 7d b4 00          	cmpl   $0x0,-0x4c(%ebp)
 804c5c3:	75 16                	jne    804c5db <encrypt_general+0x2d6>
 804c5c5:	c7 04 24 46 54 05 08 	movl   $0x8055446,(%esp)
 804c5cc:	e8 8f d0 ff ff       	call   8049660 <perror@plt>
 804c5d1:	b8 ff ff ff ff       	mov    $0xffffffff,%eax
 804c5d6:	e9 74 09 00 00       	jmp    804cf4f <encrypt_general+0xc4a>
 804c5db:	8b 45 b4             	mov    -0x4c(%ebp),%eax
 804c5de:	89 04 24             	mov    %eax,(%esp)
 804c5e1:	e8 0a d3 ff ff       	call   80498f0 <fileno@plt>
 804c5e6:	89 04 24             	mov    %eax,(%esp)
 804c5e9:	e8 df 21 00 00       	call   804e7cd <write_lock>
 804c5ee:	83 f8 ff             	cmp    $0xffffffff,%eax
 804c5f1:	75 16                	jne    804c609 <encrypt_general+0x304>
 804c5f3:	c7 04 24 4c 54 05 08 	movl   $0x805544c,(%esp)
 804c5fa:	e8 7b 2e 00 00       	call   804f47a <err_crit>
 804c5ff:	b8 ff ff ff ff       	mov    $0xffffffff,%eax
 804c604:	e9 46 09 00 00       	jmp    804cf4f <encrypt_general+0xc4a>
 804c609:	e9 a0 01 00 00       	jmp    804c7ae <encrypt_general+0x4a9>
 804c60e:	c7 45 cc 05 00 00 00 	movl   $0x5,-0x34(%ebp)
 804c615:	83 7d 0c 00          	cmpl   $0x0,0xc(%ebp)
 804c619:	74 13                	je     804c62e <encrypt_general+0x329>
 804c61b:	8b 45 0c             	mov    0xc(%ebp),%eax
 804c61e:	89 04 24             	mov    %eax,(%esp)
 804c621:	e8 ea d1 ff ff       	call   8049810 <strlen@plt>
 804c626:	8b 55 cc             	mov    -0x34(%ebp),%edx
 804c629:	01 d0                	add    %edx,%eax
 804c62b:	89 45 cc             	mov    %eax,-0x34(%ebp)
 804c62e:	a1 e0 a0 05 08       	mov    0x805a0e0,%eax
 804c633:	83 f8 01             	cmp    $0x1,%eax
 804c636:	75 2d                	jne    804c665 <encrypt_general+0x360>
 804c638:	8b 45 cc             	mov    -0x34(%ebp),%eax
 804c63b:	83 c0 09             	add    $0x9,%eax
 804c63e:	89 45 cc             	mov    %eax,-0x34(%ebp)
 804c641:	8b 45 cc             	mov    -0x34(%ebp),%eax
 804c644:	89 04 24             	mov    %eax,(%esp)
 804c647:	e8 38 2b 00 00       	call   804f184 <_mcrypt_malloc>
 804c64c:	89 45 c0             	mov    %eax,-0x40(%ebp)
 804c64f:	8b 45 c0             	mov    -0x40(%ebp),%eax
 804c652:	c7 00 2f 62 69 6e    	movl   $0x6e69622f,(%eax)
 804c658:	c7 40 04 2f 67 7a 69 	movl   $0x697a672f,0x4(%eax)
 804c65f:	66 c7 40 08 70 00    	movw   $0x70,0x8(%eax)
 804c665:	a1 e4 a0 05 08       	mov    0x805a0e4,%eax
 804c66a:	83 f8 01             	cmp    $0x1,%eax
 804c66d:	75 31                	jne    804c6a0 <encrypt_general+0x39b>
 804c66f:	8b 45 cc             	mov    -0x34(%ebp),%eax
 804c672:	83 c0 0a             	add    $0xa,%eax
 804c675:	89 45 cc             	mov    %eax,-0x34(%ebp)
 804c678:	8b 45 cc             	mov    -0x34(%ebp),%eax
 804c67b:	89 04 24             	mov    %eax,(%esp)
 804c67e:	e8 01 2b 00 00       	call   804f184 <_mcrypt_malloc>
 804c683:	89 45 c0             	mov    %eax,-0x40(%ebp)
 804c686:	8b 45 c0             	mov    -0x40(%ebp),%eax
 804c689:	c7 00 2f 62 69 6e    	movl   $0x6e69622f,(%eax)
 804c68f:	c7 40 04 2f 62 7a 69 	movl   $0x697a622f,0x4(%eax)
 804c696:	66 c7 40 08 70 32    	movw   $0x3270,0x8(%eax)
 804c69c:	c6 40 0a 00          	movb   $0x0,0xa(%eax)
 804c6a0:	8b 45 c0             	mov    -0x40(%ebp),%eax
 804c6a3:	b9 ff ff ff ff       	mov    $0xffffffff,%ecx
 804c6a8:	89 c2                	mov    %eax,%edx
 804c6aa:	b8 00 00 00 00       	mov    $0x0,%eax
 804c6af:	89 d7                	mov    %edx,%edi
 804c6b1:	f2 ae                	repnz scas %es:(%edi),%al
 804c6b3:	89 c8                	mov    %ecx,%eax
 804c6b5:	f7 d0                	not    %eax
 804c6b7:	8d 50 ff             	lea    -0x1(%eax),%edx
 804c6ba:	8b 45 c0             	mov    -0x40(%ebp),%eax
 804c6bd:	01 d0                	add    %edx,%eax
 804c6bf:	c7 00 20 2d 63 20    	movl   $0x20632d20,(%eax)
 804c6c5:	c6 40 04 00          	movb   $0x0,0x4(%eax)
 804c6c9:	83 7d 0c 00          	cmpl   $0x0,0xc(%ebp)
 804c6cd:	74 12                	je     804c6e1 <encrypt_general+0x3dc>
 804c6cf:	8b 45 0c             	mov    0xc(%ebp),%eax
 804c6d2:	89 44 24 04          	mov    %eax,0x4(%esp)
 804c6d6:	8b 45 c0             	mov    -0x40(%ebp),%eax
 804c6d9:	89 04 24             	mov    %eax,(%esp)
 804c6dc:	e8 af cf ff ff       	call   8049690 <strcat@plt>
 804c6e1:	a1 a8 a0 05 08       	mov    0x805a0a8,%eax
 804c6e6:	85 c0                	test   %eax,%eax
 804c6e8:	75 2e                	jne    804c718 <encrypt_general+0x413>
 804c6ea:	c7 44 24 04 72 54 05 	movl   $0x8055472,0x4(%esp)
 804c6f1:	08 
 804c6f2:	8b 45 c0             	mov    -0x40(%ebp),%eax
 804c6f5:	89 04 24             	mov    %eax,(%esp)
 804c6f8:	e8 b3 ce ff ff       	call   80495b0 <popen@plt>
 804c6fd:	89 45 88             	mov    %eax,-0x78(%ebp)
 804c700:	c7 44 24 04 6f 54 05 	movl   $0x805546f,0x4(%esp)
 804c707:	08 
 804c708:	8b 45 10             	mov    0x10(%ebp),%eax
 804c70b:	89 04 24             	mov    %eax,(%esp)
 804c70e:	e8 8d d1 ff ff       	call   80498a0 <fopen@plt>
 804c713:	89 45 b4             	mov    %eax,-0x4c(%ebp)
 804c716:	eb 3c                	jmp    804c754 <encrypt_general+0x44f>
 804c718:	8d 45 88             	lea    -0x78(%ebp),%eax
 804c71b:	89 44 24 08          	mov    %eax,0x8(%esp)
 804c71f:	c7 44 24 04 00 00 00 	movl   $0x0,0x4(%esp)
 804c726:	00 
 804c727:	8b 45 c0             	mov    -0x40(%ebp),%eax
 804c72a:	89 04 24             	mov    %eax,(%esp)
 804c72d:	e8 68 49 00 00       	call   805109a <ppopen>
 804c732:	85 c0                	test   %eax,%eax
 804c734:	7f 16                	jg     804c74c <encrypt_general+0x447>
 804c736:	c7 04 24 74 54 05 08 	movl   $0x8055474,(%esp)
 804c73d:	e8 38 2d 00 00       	call   804f47a <err_crit>
 804c742:	b8 ff ff ff ff       	mov    $0xffffffff,%eax
 804c747:	e9 03 08 00 00       	jmp    804cf4f <encrypt_general+0xc4a>
 804c74c:	a1 a0 a0 05 08       	mov    0x805a0a0,%eax
 804c751:	89 45 b4             	mov    %eax,-0x4c(%ebp)
 804c754:	8b 45 88             	mov    -0x78(%ebp),%eax
 804c757:	85 c0                	test   %eax,%eax
 804c759:	74 06                	je     804c761 <encrypt_general+0x45c>
 804c75b:	83 7d b4 00          	cmpl   $0x0,-0x4c(%ebp)
 804c75f:	75 16                	jne    804c777 <encrypt_general+0x472>
 804c761:	c7 04 24 82 54 05 08 	movl   $0x8055482,(%esp)
 804c768:	e8 f3 ce ff ff       	call   8049660 <perror@plt>
 804c76d:	b8 01 00 00 00       	mov    $0x1,%eax
 804c772:	e9 d8 07 00 00       	jmp    804cf4f <encrypt_general+0xc4a>
 804c777:	a1 a8 a0 05 08       	mov    0x805a0a8,%eax
 804c77c:	85 c0                	test   %eax,%eax
 804c77e:	75 2e                	jne    804c7ae <encrypt_general+0x4a9>
 804c780:	8b 45 b4             	mov    -0x4c(%ebp),%eax
 804c783:	89 04 24             	mov    %eax,(%esp)
 804c786:	e8 65 d1 ff ff       	call   80498f0 <fileno@plt>
 804c78b:	89 04 24             	mov    %eax,(%esp)
 804c78e:	e8 3a 20 00 00       	call   804e7cd <write_lock>
 804c793:	83 f8 ff             	cmp    $0xffffffff,%eax
 804c796:	75 16                	jne    804c7ae <encrypt_general+0x4a9>
 804c798:	c7 04 24 4c 54 05 08 	movl   $0x805544c,(%esp)
 804c79f:	e8 d6 2c 00 00       	call   804f47a <err_crit>
 804c7a4:	b8 ff ff ff ff       	mov    $0xffffffff,%eax
 804c7a9:	e9 a1 07 00 00       	jmp    804cf4f <encrypt_general+0xc4a>
 804c7ae:	a1 ac a0 05 08       	mov    0x805a0ac,%eax
 804c7b3:	89 04 24             	mov    %eax,(%esp)
 804c7b6:	e8 54 25 00 00       	call   804ed0f <_which_algo>
 804c7bb:	89 45 94             	mov    %eax,-0x6c(%ebp)
 804c7be:	83 7d 94 ff          	cmpl   $0xffffffff,-0x6c(%ebp)
 804c7c2:	75 32                	jne    804c7f6 <encrypt_general+0x4f1>
 804c7c4:	8b 1d ac a0 05 08    	mov    0x805a0ac,%ebx
 804c7ca:	c7 04 24 89 54 05 08 	movl   $0x8055489,(%esp)
 804c7d1:	e8 da cf ff ff       	call   80497b0 <gettext@plt>
 804c7d6:	8b 15 80 a0 05 08    	mov    0x805a080,%edx
 804c7dc:	89 5c 24 08          	mov    %ebx,0x8(%esp)
 804c7e0:	89 44 24 04          	mov    %eax,0x4(%esp)
 804c7e4:	89 14 24             	mov    %edx,(%esp)
 804c7e7:	e8 44 d0 ff ff       	call   8049830 <fprintf@plt>
 804c7ec:	b8 01 00 00 00       	mov    $0x1,%eax
 804c7f1:	e9 59 07 00 00       	jmp    804cf4f <encrypt_general+0xc4a>
 804c7f6:	8b 45 94             	mov    -0x6c(%ebp),%eax
 804c7f9:	89 04 24             	mov    %eax,(%esp)
 804c7fc:	e8 0f cd ff ff       	call   8049510 <mhash_keygen_uses_salt@plt>
 804c801:	84 c0                	test   %al,%al
 804c803:	74 1d                	je     804c822 <encrypt_general+0x51d>
 804c805:	8b 45 94             	mov    -0x6c(%ebp),%eax
 804c808:	89 04 24             	mov    %eax,(%esp)
 804c80b:	e8 50 cf ff ff       	call   8049760 <mhash_get_keygen_salt_size@plt>
 804c810:	89 45 c8             	mov    %eax,-0x38(%ebp)
 804c813:	83 7d c8 00          	cmpl   $0x0,-0x38(%ebp)
 804c817:	75 10                	jne    804c829 <encrypt_general+0x524>
 804c819:	c7 45 c8 14 00 00 00 	movl   $0x14,-0x38(%ebp)
 804c820:	eb 07                	jmp    804c829 <encrypt_general+0x524>
 804c822:	c7 45 c8 00 00 00 00 	movl   $0x0,-0x38(%ebp)
 804c829:	a1 d4 a0 05 08       	mov    0x805a0d4,%eax
 804c82e:	85 c0                	test   %eax,%eax
 804c830:	75 55                	jne    804c887 <encrypt_general+0x582>
 804c832:	8b 15 ac a0 05 08    	mov    0x805a0ac,%edx
 804c838:	a1 b0 a0 05 08       	mov    0x805a0b0,%eax
 804c83d:	8b 4d c8             	mov    -0x38(%ebp),%ecx
 804c840:	89 4c 24 18          	mov    %ecx,0x18(%esp)
 804c844:	8b 4d bc             	mov    -0x44(%ebp),%ecx
 804c847:	89 4c 24 14          	mov    %ecx,0x14(%esp)
 804c84b:	c7 44 24 10 a0 15 06 	movl   $0x80615a0,0x10(%esp)
 804c852:	08 
 804c853:	89 54 24 0c          	mov    %edx,0xc(%esp)
 804c857:	89 44 24 08          	mov    %eax,0x8(%esp)
 804c85b:	8b 45 08             	mov    0x8(%ebp),%eax
 804c85e:	89 44 24 04          	mov    %eax,0x4(%esp)
 804c862:	8b 45 b4             	mov    -0x4c(%ebp),%eax
 804c865:	89 04 24             	mov    %eax,(%esp)
 804c868:	e8 2b da ff ff       	call   804a298 <write_file_head>
 804c86d:	85 c0                	test   %eax,%eax
 804c86f:	74 16                	je     804c887 <encrypt_general+0x582>
 804c871:	c7 04 24 a1 54 05 08 	movl   $0x80554a1,(%esp)
 804c878:	e8 fd 2b 00 00       	call   804f47a <err_crit>
 804c87d:	b8 ff ff ff ff       	mov    $0xffffffff,%eax
 804c882:	e9 c8 06 00 00       	jmp    804cf4f <encrypt_general+0xc4a>
 804c887:	8b 45 a4             	mov    -0x5c(%ebp),%eax
 804c88a:	89 04 24             	mov    %eax,(%esp)
 804c88d:	e8 ce cb ff ff       	call   8049460 <mcrypt_enc_mode_has_iv@plt>
 804c892:	83 f8 01             	cmp    $0x1,%eax
 804c895:	75 44                	jne    804c8db <encrypt_general+0x5d6>
 804c897:	a1 c4 a0 05 08       	mov    0x805a0c4,%eax
 804c89c:	85 c0                	test   %eax,%eax
 804c89e:	75 3b                	jne    804c8db <encrypt_general+0x5d6>
 804c8a0:	8b 45 a4             	mov    -0x5c(%ebp),%eax
 804c8a3:	89 04 24             	mov    %eax,(%esp)
 804c8a6:	e8 45 d1 ff ff       	call   80499f0 <mcrypt_enc_get_iv_size@plt>
 804c8ab:	89 44 24 08          	mov    %eax,0x8(%esp)
 804c8af:	8b 45 ac             	mov    -0x54(%ebp),%eax
 804c8b2:	89 44 24 04          	mov    %eax,0x4(%esp)
 804c8b6:	8b 45 b4             	mov    -0x4c(%ebp),%eax
 804c8b9:	89 04 24             	mov    %eax,(%esp)
 804c8bc:	e8 be dd ff ff       	call   804a67f <write_iv>
 804c8c1:	85 c0                	test   %eax,%eax
 804c8c3:	74 16                	je     804c8db <encrypt_general+0x5d6>
 804c8c5:	c7 04 24 a1 54 05 08 	movl   $0x80554a1,(%esp)
 804c8cc:	e8 a9 2b 00 00       	call   804f47a <err_crit>
 804c8d1:	b8 ff ff ff ff       	mov    $0xffffffff,%eax
 804c8d6:	e9 74 06 00 00       	jmp    804cf4f <encrypt_general+0xc4a>
 804c8db:	a1 e8 a0 05 08       	mov    0x805a0e8,%eax
 804c8e0:	83 f8 01             	cmp    $0x1,%eax
 804c8e3:	75 0b                	jne    804c8f0 <encrypt_general+0x5eb>
 804c8e5:	8b 45 b4             	mov    -0x4c(%ebp),%eax
 804c8e8:	89 04 24             	mov    %eax,(%esp)
 804c8eb:	e8 b0 cb ff ff       	call   80494a0 <fflush@plt>
 804c8f0:	a1 58 92 05 08       	mov    0x8059258,%eax
 804c8f5:	85 c0                	test   %eax,%eax
 804c8f7:	75 52                	jne    804c94b <encrypt_general+0x646>
 804c8f9:	a1 b8 a0 05 08       	mov    0x805a0b8,%eax
 804c8fe:	89 45 84             	mov    %eax,-0x7c(%ebp)
 804c901:	8b 3d ac a0 05 08    	mov    0x805a0ac,%edi
 804c907:	8b 35 b0 a0 05 08    	mov    0x805a0b0,%esi
 804c90d:	8b 1d a0 15 06 08    	mov    0x80615a0,%ebx
 804c913:	c7 04 24 b8 54 05 08 	movl   $0x80554b8,(%esp)
 804c91a:	e8 91 ce ff ff       	call   80497b0 <gettext@plt>
 804c91f:	8b 15 80 a0 05 08    	mov    0x805a080,%edx
 804c925:	8b 4d 84             	mov    -0x7c(%ebp),%ecx
 804c928:	89 4c 24 18          	mov    %ecx,0x18(%esp)
 804c92c:	89 7c 24 14          	mov    %edi,0x14(%esp)
 804c930:	89 74 24 10          	mov    %esi,0x10(%esp)
 804c934:	89 5c 24 0c          	mov    %ebx,0xc(%esp)
 804c938:	8b 4d 08             	mov    0x8(%ebp),%ecx
 804c93b:	89 4c 24 08          	mov    %ecx,0x8(%esp)
 804c93f:	89 44 24 04          	mov    %eax,0x4(%esp)
 804c943:	89 14 24             	mov    %edx,(%esp)
 804c946:	e8 e5 ce ff ff       	call   8049830 <fprintf@plt>
 804c94b:	83 7d 14 00          	cmpl   $0x0,0x14(%ebp)
 804c94f:	75 38                	jne    804c989 <encrypt_general+0x684>
 804c951:	a1 a8 a0 05 08       	mov    0x805a0a8,%eax
 804c956:	85 c0                	test   %eax,%eax
 804c958:	75 2f                	jne    804c989 <encrypt_general+0x684>
 804c95a:	c7 04 24 f9 54 05 08 	movl   $0x80554f9,(%esp)
 804c961:	e8 4a ce ff ff       	call   80497b0 <gettext@plt>
 804c966:	8b 55 0c             	mov    0xc(%ebp),%edx
 804c969:	89 54 24 08          	mov    %edx,0x8(%esp)
 804c96d:	89 44 24 04          	mov    %eax,0x4(%esp)
 804c971:	c7 04 24 c0 15 06 08 	movl   $0x80615c0,(%esp)
 804c978:	e8 33 d0 ff ff       	call   80499b0 <sprintf@plt>
 804c97d:	c7 04 24 c0 15 06 08 	movl   $0x80615c0,(%esp)
 804c984:	e8 cb 2a 00 00       	call   804f454 <err_warn>
 804c989:	83 7d 14 00          	cmpl   $0x0,0x14(%ebp)
 804c98d:	75 56                	jne    804c9e5 <encrypt_general+0x6e0>
 804c98f:	a1 a8 a0 05 08       	mov    0x805a0a8,%eax
 804c994:	89 c3                	mov    %eax,%ebx
 804c996:	8b 0d 58 92 05 08    	mov    0x8059258,%ecx
 804c99c:	8b 15 a0 15 06 08    	mov    0x80615a0,%edx
 804c9a2:	a1 ac a0 05 08       	mov    0x805a0ac,%eax
 804c9a7:	c7 44 24 20 00 00 00 	movl   $0x0,0x20(%esp)
 804c9ae:	00 
 804c9af:	8b 75 c8             	mov    -0x38(%ebp),%esi
 804c9b2:	89 74 24 1c          	mov    %esi,0x1c(%esp)
 804c9b6:	8b 75 bc             	mov    -0x44(%ebp),%esi
 804c9b9:	89 74 24 18          	mov    %esi,0x18(%esp)
 804c9bd:	89 5c 24 14          	mov    %ebx,0x14(%esp)
 804c9c1:	89 4c 24 10          	mov    %ecx,0x10(%esp)
 804c9c5:	89 54 24 0c          	mov    %edx,0xc(%esp)
 804c9c9:	89 44 24 08          	mov    %eax,0x8(%esp)
 804c9cd:	8d 45 8c             	lea    -0x74(%ebp),%eax
 804c9d0:	89 44 24 04          	mov    %eax,0x4(%esp)
 804c9d4:	c7 04 24 00 00 00 00 	movl   $0x0,(%esp)
 804c9db:	e8 ad 21 00 00       	call   804eb8d <fixkey>
 804c9e0:	89 45 d8             	mov    %eax,-0x28(%ebp)
 804c9e3:	eb 61                	jmp    804ca46 <encrypt_general+0x741>
 804c9e5:	8b 45 14             	mov    0x14(%ebp),%eax
 804c9e8:	89 04 24             	mov    %eax,(%esp)
 804c9eb:	e8 20 ce ff ff       	call   8049810 <strlen@plt>
 804c9f0:	89 45 8c             	mov    %eax,-0x74(%ebp)
 804c9f3:	a1 a8 a0 05 08       	mov    0x805a0a8,%eax
 804c9f8:	89 c3                	mov    %eax,%ebx
 804c9fa:	8b 0d 58 92 05 08    	mov    0x8059258,%ecx
 804ca00:	8b 15 a0 15 06 08    	mov    0x80615a0,%edx
 804ca06:	a1 ac a0 05 08       	mov    0x805a0ac,%eax
 804ca0b:	c7 44 24 20 00 00 00 	movl   $0x0,0x20(%esp)
 804ca12:	00 
 804ca13:	8b 75 c8             	mov    -0x38(%ebp),%esi
 804ca16:	89 74 24 1c          	mov    %esi,0x1c(%esp)
 804ca1a:	8b 75 bc             	mov    -0x44(%ebp),%esi
 804ca1d:	89 74 24 18          	mov    %esi,0x18(%esp)
 804ca21:	89 5c 24 14          	mov    %ebx,0x14(%esp)
 804ca25:	89 4c 24 10          	mov    %ecx,0x10(%esp)
 804ca29:	89 54 24 0c          	mov    %edx,0xc(%esp)
 804ca2d:	89 44 24 08          	mov    %eax,0x8(%esp)
 804ca31:	8d 45 8c             	lea    -0x74(%ebp),%eax
 804ca34:	89 44 24 04          	mov    %eax,0x4(%esp)
 804ca38:	8b 45 14             	mov    0x14(%ebp),%eax
 804ca3b:	89 04 24             	mov    %eax,(%esp)
 804ca3e:	e8 4a 21 00 00       	call   804eb8d <fixkey>
 804ca43:	89 45 d8             	mov    %eax,-0x28(%ebp)
 804ca46:	83 7d d8 00          	cmpl   $0x0,-0x28(%ebp)
 804ca4a:	75 16                	jne    804ca62 <encrypt_general+0x75d>
 804ca4c:	c7 04 24 04 55 05 08 	movl   $0x8055504,(%esp)
 804ca53:	e8 22 2a 00 00       	call   804f47a <err_crit>
 804ca58:	b8 01 00 00 00       	mov    $0x1,%eax
 804ca5d:	e9 ed 04 00 00       	jmp    804cf4f <encrypt_general+0xc4a>
 804ca62:	8b 45 8c             	mov    -0x74(%ebp),%eax
 804ca65:	8b 55 ac             	mov    -0x54(%ebp),%edx
 804ca68:	89 54 24 0c          	mov    %edx,0xc(%esp)
 804ca6c:	89 44 24 08          	mov    %eax,0x8(%esp)
 804ca70:	8b 45 d8             	mov    -0x28(%ebp),%eax
 804ca73:	89 44 24 04          	mov    %eax,0x4(%esp)
 804ca77:	8b 45 a4             	mov    -0x5c(%ebp),%eax
 804ca7a:	89 04 24             	mov    %eax,(%esp)
 804ca7d:	e8 1e cb ff ff       	call   80495a0 <mcrypt_generic_init@plt>
 804ca82:	89 45 90             	mov    %eax,-0x70(%ebp)
 804ca85:	83 7d 90 00          	cmpl   $0x0,-0x70(%ebp)
 804ca89:	79 15                	jns    804caa0 <encrypt_general+0x79b>
 804ca8b:	8b 45 90             	mov    -0x70(%ebp),%eax
 804ca8e:	89 04 24             	mov    %eax,(%esp)
 804ca91:	e8 4a ce ff ff       	call   80498e0 <mcrypt_perror@plt>
 804ca96:	b8 01 00 00 00       	mov    $0x1,%eax
 804ca9b:	e9 af 04 00 00       	jmp    804cf4f <encrypt_general+0xc4a>
 804caa0:	a1 d4 a0 05 08       	mov    0x805a0d4,%eax
 804caa5:	85 c0                	test   %eax,%eax
 804caa7:	75 10                	jne    804cab9 <encrypt_general+0x7b4>
 804caa9:	a1 c8 a0 05 08       	mov    0x805a0c8,%eax
 804caae:	89 04 24             	mov    %eax,(%esp)
 804cab1:	e8 9a cd ff ff       	call   8049850 <mhash_init@plt>
 804cab6:	89 45 d4             	mov    %eax,-0x2c(%ebp)
 804cab9:	8b 55 88             	mov    -0x78(%ebp),%edx
 804cabc:	8b 45 9c             	mov    -0x64(%ebp),%eax
 804cabf:	c1 e0 0a             	shl    $0xa,%eax
 804cac2:	89 54 24 0c          	mov    %edx,0xc(%esp)
 804cac6:	89 44 24 08          	mov    %eax,0x8(%esp)
 804caca:	c7 44 24 04 01 00 00 	movl   $0x1,0x4(%esp)
 804cad1:	00 
 804cad2:	8b 45 98             	mov    -0x68(%ebp),%eax
 804cad5:	89 04 24             	mov    %eax,(%esp)
 804cad8:	e8 d3 cb ff ff       	call   80496b0 <fread@plt>
 804cadd:	89 45 b0             	mov    %eax,-0x50(%ebp)
 804cae0:	8b 45 9c             	mov    -0x64(%ebp),%eax
 804cae3:	c1 e0 0a             	shl    $0xa,%eax
 804cae6:	3b 45 b0             	cmp    -0x50(%ebp),%eax
 804cae9:	0f 8e 44 01 00 00    	jle    804cc33 <encrypt_general+0x92e>
 804caef:	8b 45 88             	mov    -0x78(%ebp),%eax
 804caf2:	89 04 24             	mov    %eax,(%esp)
 804caf5:	e8 26 ca ff ff       	call   8049520 <ferror@plt>
 804cafa:	85 c0                	test   %eax,%eax
 804cafc:	74 16                	je     804cb14 <encrypt_general+0x80f>
 804cafe:	c7 04 24 2a 55 05 08 	movl   $0x805552a,(%esp)
 804cb05:	e8 56 cb ff ff       	call   8049660 <perror@plt>
 804cb0a:	b8 01 00 00 00       	mov    $0x1,%eax
 804cb0f:	e9 3b 04 00 00       	jmp    804cf4f <encrypt_general+0xc4a>
 804cb14:	a1 d4 a0 05 08       	mov    0x805a0d4,%eax
 804cb19:	85 c0                	test   %eax,%eax
 804cb1b:	75 19                	jne    804cb36 <encrypt_general+0x831>
 804cb1d:	8b 45 b0             	mov    -0x50(%ebp),%eax
 804cb20:	89 44 24 08          	mov    %eax,0x8(%esp)
 804cb24:	8b 45 98             	mov    -0x68(%ebp),%eax
 804cb27:	89 44 24 04          	mov    %eax,0x4(%esp)
 804cb2b:	8b 45 d4             	mov    -0x2c(%ebp),%eax
 804cb2e:	89 04 24             	mov    %eax,(%esp)
 804cb31:	e8 8a c9 ff ff       	call   80494c0 <mhash@plt>
 804cb36:	8b 45 a4             	mov    -0x5c(%ebp),%eax
 804cb39:	89 04 24             	mov    %eax,(%esp)
 804cb3c:	e8 4f ce ff ff       	call   8049990 <mcrypt_enc_is_block_mode@plt>
 804cb41:	83 f8 01             	cmp    $0x1,%eax
 804cb44:	75 77                	jne    804cbbd <encrypt_general+0x8b8>
 804cb46:	8b 45 b0             	mov    -0x50(%ebp),%eax
 804cb49:	99                   	cltd   
 804cb4a:	f7 7d 9c             	idivl  -0x64(%ebp)
 804cb4d:	89 55 e0             	mov    %edx,-0x20(%ebp)
 804cb50:	8b 45 b0             	mov    -0x50(%ebp),%eax
 804cb53:	99                   	cltd   
 804cb54:	f7 7d 9c             	idivl  -0x64(%ebp)
 804cb57:	89 45 e4             	mov    %eax,-0x1c(%ebp)
 804cb5a:	8b 45 e4             	mov    -0x1c(%ebp),%eax
 804cb5d:	0f af 45 9c          	imul   -0x64(%ebp),%eax
 804cb61:	89 44 24 08          	mov    %eax,0x8(%esp)
 804cb65:	8b 45 98             	mov    -0x68(%ebp),%eax
 804cb68:	89 44 24 04          	mov    %eax,0x4(%esp)
 804cb6c:	8b 45 a4             	mov    -0x5c(%ebp),%eax
 804cb6f:	89 04 24             	mov    %eax,(%esp)
 804cb72:	e8 99 cd ff ff       	call   8049910 <mcrypt_generic@plt>
 804cb77:	8b 45 e4             	mov    -0x1c(%ebp),%eax
 804cb7a:	0f af 45 9c          	imul   -0x64(%ebp),%eax
 804cb7e:	8b 55 b4             	mov    -0x4c(%ebp),%edx
 804cb81:	89 54 24 0c          	mov    %edx,0xc(%esp)
 804cb85:	89 44 24 08          	mov    %eax,0x8(%esp)
 804cb89:	c7 44 24 04 01 00 00 	movl   $0x1,0x4(%esp)
 804cb90:	00 
 804cb91:	8b 45 98             	mov    -0x68(%ebp),%eax
 804cb94:	89 04 24             	mov    %eax,(%esp)
 804cb97:	e8 d4 ca ff ff       	call   8049670 <fwrite@plt>
 804cb9c:	8b 55 e4             	mov    -0x1c(%ebp),%edx
 804cb9f:	0f af 55 9c          	imul   -0x64(%ebp),%edx
 804cba3:	39 d0                	cmp    %edx,%eax
 804cba5:	73 6d                	jae    804cc14 <encrypt_general+0x90f>
 804cba7:	c7 04 24 30 55 05 08 	movl   $0x8055530,(%esp)
 804cbae:	e8 ad ca ff ff       	call   8049660 <perror@plt>
 804cbb3:	b8 01 00 00 00       	mov    $0x1,%eax
 804cbb8:	e9 92 03 00 00       	jmp    804cf4f <encrypt_general+0xc4a>
 804cbbd:	8b 45 b0             	mov    -0x50(%ebp),%eax
 804cbc0:	89 44 24 08          	mov    %eax,0x8(%esp)
 804cbc4:	8b 45 98             	mov    -0x68(%ebp),%eax
 804cbc7:	89 44 24 04          	mov    %eax,0x4(%esp)
 804cbcb:	8b 45 a4             	mov    -0x5c(%ebp),%eax
 804cbce:	89 04 24             	mov    %eax,(%esp)
 804cbd1:	e8 3a cd ff ff       	call   8049910 <mcrypt_generic@plt>
 804cbd6:	8b 45 b0             	mov    -0x50(%ebp),%eax
 804cbd9:	8b 55 b4             	mov    -0x4c(%ebp),%edx
 804cbdc:	89 54 24 0c          	mov    %edx,0xc(%esp)
 804cbe0:	89 44 24 08          	mov    %eax,0x8(%esp)
 804cbe4:	c7 44 24 04 01 00 00 	movl   $0x1,0x4(%esp)
 804cbeb:	00 
 804cbec:	8b 45 98             	mov    -0x68(%ebp),%eax
 804cbef:	89 04 24             	mov    %eax,(%esp)
 804cbf2:	e8 79 ca ff ff       	call   8049670 <fwrite@plt>
 804cbf7:	8b 55 b0             	mov    -0x50(%ebp),%edx
 804cbfa:	39 d0                	cmp    %edx,%eax
 804cbfc:	73 16                	jae    804cc14 <encrypt_general+0x90f>
 804cbfe:	c7 04 24 30 55 05 08 	movl   $0x8055530,(%esp)
 804cc05:	e8 56 ca ff ff       	call   8049660 <perror@plt>
 804cc0a:	b8 01 00 00 00       	mov    $0x1,%eax
 804cc0f:	e9 3b 03 00 00       	jmp    804cf4f <encrypt_general+0xc4a>
 804cc14:	a1 e8 a0 05 08       	mov    0x805a0e8,%eax
 804cc19:	83 f8 01             	cmp    $0x1,%eax
 804cc1c:	75 10                	jne    804cc2e <encrypt_general+0x929>
 804cc1e:	8b 45 b4             	mov    -0x4c(%ebp),%eax
 804cc21:	89 04 24             	mov    %eax,(%esp)
 804cc24:	e8 77 c8 ff ff       	call   80494a0 <fflush@plt>
 804cc29:	e9 9d 00 00 00       	jmp    804cccb <encrypt_general+0x9c6>
 804cc2e:	e9 98 00 00 00       	jmp    804cccb <encrypt_general+0x9c6>
 804cc33:	a1 d4 a0 05 08       	mov    0x805a0d4,%eax
 804cc38:	85 c0                	test   %eax,%eax
 804cc3a:	75 19                	jne    804cc55 <encrypt_general+0x950>
 804cc3c:	8b 45 b0             	mov    -0x50(%ebp),%eax
 804cc3f:	89 44 24 08          	mov    %eax,0x8(%esp)
 804cc43:	8b 45 98             	mov    -0x68(%ebp),%eax
 804cc46:	89 44 24 04          	mov    %eax,0x4(%esp)
 804cc4a:	8b 45 d4             	mov    -0x2c(%ebp),%eax
 804cc4d:	89 04 24             	mov    %eax,(%esp)
 804cc50:	e8 6b c8 ff ff       	call   80494c0 <mhash@plt>
 804cc55:	8b 45 b0             	mov    -0x50(%ebp),%eax
 804cc58:	89 44 24 08          	mov    %eax,0x8(%esp)
 804cc5c:	8b 45 98             	mov    -0x68(%ebp),%eax
 804cc5f:	89 44 24 04          	mov    %eax,0x4(%esp)
 804cc63:	8b 45 a4             	mov    -0x5c(%ebp),%eax
 804cc66:	89 04 24             	mov    %eax,(%esp)
 804cc69:	e8 a2 cc ff ff       	call   8049910 <mcrypt_generic@plt>
 804cc6e:	8b 45 b0             	mov    -0x50(%ebp),%eax
 804cc71:	8b 55 b4             	mov    -0x4c(%ebp),%edx
 804cc74:	89 54 24 0c          	mov    %edx,0xc(%esp)
 804cc78:	89 44 24 08          	mov    %eax,0x8(%esp)
 804cc7c:	c7 44 24 04 01 00 00 	movl   $0x1,0x4(%esp)
 804cc83:	00 
 804cc84:	8b 45 98             	mov    -0x68(%ebp),%eax
 804cc87:	89 04 24             	mov    %eax,(%esp)
 804cc8a:	e8 e1 c9 ff ff       	call   8049670 <fwrite@plt>
 804cc8f:	8b 55 9c             	mov    -0x64(%ebp),%edx
 804cc92:	39 d0                	cmp    %edx,%eax
 804cc94:	73 16                	jae    804ccac <encrypt_general+0x9a7>
 804cc96:	c7 04 24 30 55 05 08 	movl   $0x8055530,(%esp)
 804cc9d:	e8 be c9 ff ff       	call   8049660 <perror@plt>
 804cca2:	b8 01 00 00 00       	mov    $0x1,%eax
 804cca7:	e9 a3 02 00 00       	jmp    804cf4f <encrypt_general+0xc4a>
 804ccac:	a1 e8 a0 05 08       	mov    0x805a0e8,%eax
 804ccb1:	83 f8 01             	cmp    $0x1,%eax
 804ccb4:	75 10                	jne    804ccc6 <encrypt_general+0x9c1>
 804ccb6:	8b 45 b4             	mov    -0x4c(%ebp),%eax
 804ccb9:	89 04 24             	mov    %eax,(%esp)
 804ccbc:	e8 df c7 ff ff       	call   80494a0 <fflush@plt>
 804ccc1:	e9 f3 fd ff ff       	jmp    804cab9 <encrypt_general+0x7b4>
 804ccc6:	e9 ee fd ff ff       	jmp    804cab9 <encrypt_general+0x7b4>
 804cccb:	a1 d4 a0 05 08       	mov    0x805a0d4,%eax
 804ccd0:	85 c0                	test   %eax,%eax
 804ccd2:	75 0e                	jne    804cce2 <encrypt_general+0x9dd>
 804ccd4:	8b 45 d4             	mov    -0x2c(%ebp),%eax
 804ccd7:	89 04 24             	mov    %eax,(%esp)
 804ccda:	e8 c1 cc ff ff       	call   80499a0 <mhash_end@plt>
 804ccdf:	89 45 dc             	mov    %eax,-0x24(%ebp)
 804cce2:	a1 d4 a0 05 08       	mov    0x805a0d4,%eax
 804cce7:	85 c0                	test   %eax,%eax
 804cce9:	75 34                	jne    804cd1f <encrypt_general+0xa1a>
 804cceb:	8b 45 a8             	mov    -0x58(%ebp),%eax
 804ccee:	8b 55 e0             	mov    -0x20(%ebp),%edx
 804ccf1:	01 d0                	add    %edx,%eax
 804ccf3:	8d 50 01             	lea    0x1(%eax),%edx
 804ccf6:	8b 45 9c             	mov    -0x64(%ebp),%eax
 804ccf9:	89 44 24 04          	mov    %eax,0x4(%esp)
 804ccfd:	89 14 24             	mov    %edx,(%esp)
 804cd00:	e8 de f5 ff ff       	call   804c2e3 <make_mult>
 804cd05:	89 45 c4             	mov    %eax,-0x3c(%ebp)
 804cd08:	8b 45 a4             	mov    -0x5c(%ebp),%eax
 804cd0b:	89 04 24             	mov    %eax,(%esp)
 804cd0e:	e8 7d cc ff ff       	call   8049990 <mcrypt_enc_is_block_mode@plt>
 804cd13:	85 c0                	test   %eax,%eax
 804cd15:	75 24                	jne    804cd3b <encrypt_general+0xa36>
 804cd17:	8b 45 a8             	mov    -0x58(%ebp),%eax
 804cd1a:	89 45 c4             	mov    %eax,-0x3c(%ebp)
 804cd1d:	eb 1c                	jmp    804cd3b <encrypt_general+0xa36>
 804cd1f:	8b 45 9c             	mov    -0x64(%ebp),%eax
 804cd22:	89 45 c4             	mov    %eax,-0x3c(%ebp)
 804cd25:	8b 45 a4             	mov    -0x5c(%ebp),%eax
 804cd28:	89 04 24             	mov    %eax,(%esp)
 804cd2b:	e8 60 cc ff ff       	call   8049990 <mcrypt_enc_is_block_mode@plt>
 804cd30:	85 c0                	test   %eax,%eax
 804cd32:	75 07                	jne    804cd3b <encrypt_general+0xa36>
 804cd34:	c7 45 c4 00 00 00 00 	movl   $0x0,-0x3c(%ebp)
 804cd3b:	83 7d c4 00          	cmpl   $0x0,-0x3c(%ebp)
 804cd3f:	7e 0e                	jle    804cd4f <encrypt_general+0xa4a>
 804cd41:	8b 45 c4             	mov    -0x3c(%ebp),%eax
 804cd44:	89 04 24             	mov    %eax,(%esp)
 804cd47:	e8 38 24 00 00       	call   804f184 <_mcrypt_malloc>
 804cd4c:	89 45 b8             	mov    %eax,-0x48(%ebp)
 804cd4f:	8b 45 a4             	mov    -0x5c(%ebp),%eax
 804cd52:	89 04 24             	mov    %eax,(%esp)
 804cd55:	e8 36 cc ff ff       	call   8049990 <mcrypt_enc_is_block_mode@plt>
 804cd5a:	83 f8 01             	cmp    $0x1,%eax
 804cd5d:	0f 85 80 00 00 00    	jne    804cde3 <encrypt_general+0xade>
 804cd63:	8b 45 e0             	mov    -0x20(%ebp),%eax
 804cd66:	8b 55 e4             	mov    -0x1c(%ebp),%edx
 804cd69:	0f af 55 9c          	imul   -0x64(%ebp),%edx
 804cd6d:	89 d1                	mov    %edx,%ecx
 804cd6f:	8b 55 98             	mov    -0x68(%ebp),%edx
 804cd72:	01 ca                	add    %ecx,%edx
 804cd74:	89 44 24 08          	mov    %eax,0x8(%esp)
 804cd78:	89 54 24 04          	mov    %edx,0x4(%esp)
 804cd7c:	8b 45 b8             	mov    -0x48(%ebp),%eax
 804cd7f:	89 04 24             	mov    %eax,(%esp)
 804cd82:	e8 59 c7 ff ff       	call   80494e0 <memmove@plt>
 804cd87:	a1 d4 a0 05 08       	mov    0x805a0d4,%eax
 804cd8c:	85 c0                	test   %eax,%eax
 804cd8e:	75 41                	jne    804cdd1 <encrypt_general+0xacc>
 804cd90:	8b 45 a8             	mov    -0x58(%ebp),%eax
 804cd93:	8b 4d e0             	mov    -0x20(%ebp),%ecx
 804cd96:	8b 55 b8             	mov    -0x48(%ebp),%edx
 804cd99:	01 ca                	add    %ecx,%edx
 804cd9b:	89 44 24 08          	mov    %eax,0x8(%esp)
 804cd9f:	8b 45 dc             	mov    -0x24(%ebp),%eax
 804cda2:	89 44 24 04          	mov    %eax,0x4(%esp)
 804cda6:	89 14 24             	mov    %edx,(%esp)
 804cda9:	e8 32 c7 ff ff       	call   80494e0 <memmove@plt>
 804cdae:	8b 45 c4             	mov    -0x3c(%ebp),%eax
 804cdb1:	8d 50 ff             	lea    -0x1(%eax),%edx
 804cdb4:	8b 45 b8             	mov    -0x48(%ebp),%eax
 804cdb7:	01 d0                	add    %edx,%eax
 804cdb9:	8b 55 9c             	mov    -0x64(%ebp),%edx
 804cdbc:	8b 4d a8             	mov    -0x58(%ebp),%ecx
 804cdbf:	89 cb                	mov    %ecx,%ebx
 804cdc1:	8b 4d c4             	mov    -0x3c(%ebp),%ecx
 804cdc4:	29 cb                	sub    %ecx,%ebx
 804cdc6:	8b 4d e0             	mov    -0x20(%ebp),%ecx
 804cdc9:	01 d9                	add    %ebx,%ecx
 804cdcb:	01 ca                	add    %ecx,%edx
 804cdcd:	88 10                	mov    %dl,(%eax)
 804cdcf:	eb 34                	jmp    804ce05 <encrypt_general+0xb00>
 804cdd1:	8b 45 c4             	mov    -0x3c(%ebp),%eax
 804cdd4:	8d 50 ff             	lea    -0x1(%eax),%edx
 804cdd7:	8b 45 b8             	mov    -0x48(%ebp),%eax
 804cdda:	01 c2                	add    %eax,%edx
 804cddc:	8b 45 e0             	mov    -0x20(%ebp),%eax
 804cddf:	88 02                	mov    %al,(%edx)
 804cde1:	eb 22                	jmp    804ce05 <encrypt_general+0xb00>
 804cde3:	a1 d4 a0 05 08       	mov    0x805a0d4,%eax
 804cde8:	85 c0                	test   %eax,%eax
 804cdea:	75 19                	jne    804ce05 <encrypt_general+0xb00>
 804cdec:	8b 45 a8             	mov    -0x58(%ebp),%eax
 804cdef:	89 44 24 08          	mov    %eax,0x8(%esp)
 804cdf3:	8b 45 dc             	mov    -0x24(%ebp),%eax
 804cdf6:	89 44 24 04          	mov    %eax,0x4(%esp)
 804cdfa:	8b 45 b8             	mov    -0x48(%ebp),%eax
 804cdfd:	89 04 24             	mov    %eax,(%esp)
 804ce00:	e8 db c6 ff ff       	call   80494e0 <memmove@plt>
 804ce05:	83 7d c4 00          	cmpl   $0x0,-0x3c(%ebp)
 804ce09:	7e 57                	jle    804ce62 <encrypt_general+0xb5d>
 804ce0b:	8b 45 c4             	mov    -0x3c(%ebp),%eax
 804ce0e:	89 44 24 08          	mov    %eax,0x8(%esp)
 804ce12:	8b 45 b8             	mov    -0x48(%ebp),%eax
 804ce15:	89 44 24 04          	mov    %eax,0x4(%esp)
 804ce19:	8b 45 a4             	mov    -0x5c(%ebp),%eax
 804ce1c:	89 04 24             	mov    %eax,(%esp)
 804ce1f:	e8 ec ca ff ff       	call   8049910 <mcrypt_generic@plt>
 804ce24:	8b 45 c4             	mov    -0x3c(%ebp),%eax
 804ce27:	8b 55 b4             	mov    -0x4c(%ebp),%edx
 804ce2a:	89 54 24 0c          	mov    %edx,0xc(%esp)
 804ce2e:	89 44 24 08          	mov    %eax,0x8(%esp)
 804ce32:	c7 44 24 04 01 00 00 	movl   $0x1,0x4(%esp)
 804ce39:	00 
 804ce3a:	8b 45 b8             	mov    -0x48(%ebp),%eax
 804ce3d:	89 04 24             	mov    %eax,(%esp)
 804ce40:	e8 2b c8 ff ff       	call   8049670 <fwrite@plt>
 804ce45:	8b 55 c4             	mov    -0x3c(%ebp),%edx
 804ce48:	39 d0                	cmp    %edx,%eax
 804ce4a:	73 16                	jae    804ce62 <encrypt_general+0xb5d>
 804ce4c:	c7 04 24 30 55 05 08 	movl   $0x8055530,(%esp)
 804ce53:	e8 08 c8 ff ff       	call   8049660 <perror@plt>
 804ce58:	b8 01 00 00 00       	mov    $0x1,%eax
 804ce5d:	e9 ed 00 00 00       	jmp    804cf4f <encrypt_general+0xc4a>
 804ce62:	a1 e8 a0 05 08       	mov    0x805a0e8,%eax
 804ce67:	83 f8 01             	cmp    $0x1,%eax
 804ce6a:	75 0b                	jne    804ce77 <encrypt_general+0xb72>
 804ce6c:	8b 45 b4             	mov    -0x4c(%ebp),%eax
 804ce6f:	89 04 24             	mov    %eax,(%esp)
 804ce72:	e8 29 c6 ff ff       	call   80494a0 <fflush@plt>
 804ce77:	8b 45 b4             	mov    -0x4c(%ebp),%eax
 804ce7a:	89 04 24             	mov    %eax,(%esp)
 804ce7d:	e8 1e c6 ff ff       	call   80494a0 <fflush@plt>
 804ce82:	a1 a8 a0 05 08       	mov    0x805a0a8,%eax
 804ce87:	85 c0                	test   %eax,%eax
 804ce89:	75 4e                	jne    804ced9 <encrypt_general+0xbd4>
 804ce8b:	8b 45 88             	mov    -0x78(%ebp),%eax
 804ce8e:	89 04 24             	mov    %eax,(%esp)
 804ce91:	e8 0a c6 ff ff       	call   80494a0 <fflush@plt>
 804ce96:	8b 45 b4             	mov    -0x4c(%ebp),%eax
 804ce99:	89 04 24             	mov    %eax,(%esp)
 804ce9c:	e8 ff c5 ff ff       	call   80494a0 <fflush@plt>
 804cea1:	a1 e0 a0 05 08       	mov    0x805a0e0,%eax
 804cea6:	85 c0                	test   %eax,%eax
 804cea8:	75 1c                	jne    804cec6 <encrypt_general+0xbc1>
 804ceaa:	a1 e4 a0 05 08       	mov    0x805a0e4,%eax
 804ceaf:	85 c0                	test   %eax,%eax
 804ceb1:	75 13                	jne    804cec6 <encrypt_general+0xbc1>
 804ceb3:	8b 45 88             	mov    -0x78(%ebp),%eax
 804ceb6:	89 04 24             	mov    %eax,(%esp)
 804ceb9:	e8 32 ca ff ff       	call   80498f0 <fileno@plt>
 804cebe:	89 04 24             	mov    %eax,(%esp)
 804cec1:	e8 1d 1a 00 00       	call   804e8e3 <unlock>
 804cec6:	8b 45 b4             	mov    -0x4c(%ebp),%eax
 804cec9:	89 04 24             	mov    %eax,(%esp)
 804cecc:	e8 1f ca ff ff       	call   80498f0 <fileno@plt>
 804ced1:	89 04 24             	mov    %eax,(%esp)
 804ced4:	e8 0a 1a 00 00       	call   804e8e3 <unlock>
 804ced9:	8b 45 b4             	mov    -0x4c(%ebp),%eax
 804cedc:	89 04 24             	mov    %eax,(%esp)
 804cedf:	e8 6c c6 ff ff       	call   8049550 <fclose@plt>
 804cee4:	a1 e0 a0 05 08       	mov    0x805a0e0,%eax
 804cee9:	85 c0                	test   %eax,%eax
 804ceeb:	75 16                	jne    804cf03 <encrypt_general+0xbfe>
 804ceed:	a1 e4 a0 05 08       	mov    0x805a0e4,%eax
 804cef2:	85 c0                	test   %eax,%eax
 804cef4:	75 0d                	jne    804cf03 <encrypt_general+0xbfe>
 804cef6:	8b 45 88             	mov    -0x78(%ebp),%eax
 804cef9:	89 04 24             	mov    %eax,(%esp)
 804cefc:	e8 4f c6 ff ff       	call   8049550 <fclose@plt>
 804cf01:	eb 0b                	jmp    804cf0e <encrypt_general+0xc09>
 804cf03:	8b 45 88             	mov    -0x78(%ebp),%eax
 804cf06:	89 04 24             	mov    %eax,(%esp)
 804cf09:	e8 c2 c8 ff ff       	call   80497d0 <pclose@plt>
 804cf0e:	8b 45 a4             	mov    -0x5c(%ebp),%eax
 804cf11:	89 04 24             	mov    %eax,(%esp)
 804cf14:	e8 a7 c7 ff ff       	call   80496c0 <mcrypt_generic_end@plt>
 804cf19:	a1 d4 a0 05 08       	mov    0x805a0d4,%eax
 804cf1e:	85 c0                	test   %eax,%eax
 804cf20:	75 0b                	jne    804cf2d <encrypt_general+0xc28>
 804cf22:	8b 45 bc             	mov    -0x44(%ebp),%eax
 804cf25:	89 04 24             	mov    %eax,(%esp)
 804cf28:	e8 4f 24 00 00       	call   804f37c <_mcrypt_free>
 804cf2d:	8b 45 a0             	mov    -0x60(%ebp),%eax
 804cf30:	89 44 24 04          	mov    %eax,0x4(%esp)
 804cf34:	8b 45 d8             	mov    -0x28(%ebp),%eax
 804cf37:	89 04 24             	mov    %eax,(%esp)
 804cf3a:	e8 50 24 00 00       	call   804f38f <_secure_mcrypt_free>
 804cf3f:	8b 45 98             	mov    -0x68(%ebp),%eax
 804cf42:	89 04 24             	mov    %eax,(%esp)
 804cf45:	e8 32 24 00 00       	call   804f37c <_mcrypt_free>
 804cf4a:	b8 00 00 00 00       	mov    $0x0,%eax
 804cf4f:	81 c4 9c 00 00 00    	add    $0x9c,%esp
 804cf55:	5b                   	pop    %ebx
 804cf56:	5e                   	pop    %esi
 804cf57:	5f                   	pop    %edi
 804cf58:	5d                   	pop    %ebp
 804cf59:	c3                   	ret    

0804cf5a <decrypt_general>:
 804cf5a:	55                   	push   %ebp
 804cf5b:	89 e5                	mov    %esp,%ebp
 804cf5d:	57                   	push   %edi
 804cf5e:	56                   	push   %esi
 804cf5f:	53                   	push   %ebx
 804cf60:	81 ec ac 05 00 00    	sub    $0x5ac,%esp
 804cf66:	c7 45 e4 00 00 00 00 	movl   $0x0,-0x1c(%ebp)
 804cf6d:	c7 45 e0 00 00 00 00 	movl   $0x0,-0x20(%ebp)
 804cf74:	c7 45 b4 00 00 00 00 	movl   $0x0,-0x4c(%ebp)
 804cf7b:	c7 45 d8 00 00 00 00 	movl   $0x0,-0x28(%ebp)
 804cf82:	c7 85 88 fa ff ff 00 	movl   $0x0,-0x578(%ebp)
 804cf89:	00 00 00 
 804cf8c:	a1 a8 a0 05 08       	mov    0x805a0a8,%eax
 804cf91:	83 f8 01             	cmp    $0x1,%eax
 804cf94:	0f 85 42 01 00 00    	jne    804d0dc <decrypt_general+0x182>
 804cf9a:	a1 84 a0 05 08       	mov    0x805a084,%eax
 804cf9f:	89 45 b8             	mov    %eax,-0x48(%ebp)
 804cfa2:	a1 a0 a0 05 08       	mov    0x805a0a0,%eax
 804cfa7:	89 85 84 fa ff ff    	mov    %eax,-0x57c(%ebp)
 804cfad:	a1 e4 a0 05 08       	mov    0x805a0e4,%eax
 804cfb2:	83 f8 01             	cmp    $0x1,%eax
 804cfb5:	74 0e                	je     804cfc5 <decrypt_general+0x6b>
 804cfb7:	a1 e0 a0 05 08       	mov    0x805a0e0,%eax
 804cfbc:	83 f8 01             	cmp    $0x1,%eax
 804cfbf:	0f 85 e1 01 00 00    	jne    804d1a6 <decrypt_general+0x24c>
 804cfc5:	c7 45 bc 0a 00 00 00 	movl   $0xa,-0x44(%ebp)
 804cfcc:	83 7d 0c 00          	cmpl   $0x0,0xc(%ebp)
 804cfd0:	74 13                	je     804cfe5 <decrypt_general+0x8b>
 804cfd2:	8b 45 0c             	mov    0xc(%ebp),%eax
 804cfd5:	89 04 24             	mov    %eax,(%esp)
 804cfd8:	e8 33 c8 ff ff       	call   8049810 <strlen@plt>
 804cfdd:	8b 55 bc             	mov    -0x44(%ebp),%edx
 804cfe0:	01 d0                	add    %edx,%eax
 804cfe2:	89 45 bc             	mov    %eax,-0x44(%ebp)
 804cfe5:	a1 e0 a0 05 08       	mov    0x805a0e0,%eax
 804cfea:	83 f8 01             	cmp    $0x1,%eax
 804cfed:	75 2d                	jne    804d01c <decrypt_general+0xc2>
 804cfef:	8b 45 bc             	mov    -0x44(%ebp),%eax
 804cff2:	83 c0 09             	add    $0x9,%eax
 804cff5:	89 45 bc             	mov    %eax,-0x44(%ebp)
 804cff8:	8b 45 bc             	mov    -0x44(%ebp),%eax
 804cffb:	89 04 24             	mov    %eax,(%esp)
 804cffe:	e8 81 21 00 00       	call   804f184 <_mcrypt_malloc>
 804d003:	89 45 c8             	mov    %eax,-0x38(%ebp)
 804d006:	8b 45 c8             	mov    -0x38(%ebp),%eax
 804d009:	c7 00 2f 62 69 6e    	movl   $0x6e69622f,(%eax)
 804d00f:	c7 40 04 2f 67 7a 69 	movl   $0x697a672f,0x4(%eax)
 804d016:	66 c7 40 08 70 00    	movw   $0x70,0x8(%eax)
 804d01c:	a1 e4 a0 05 08       	mov    0x805a0e4,%eax
 804d021:	83 f8 01             	cmp    $0x1,%eax
 804d024:	75 31                	jne    804d057 <decrypt_general+0xfd>
 804d026:	8b 45 bc             	mov    -0x44(%ebp),%eax
 804d029:	83 c0 0a             	add    $0xa,%eax
 804d02c:	89 45 bc             	mov    %eax,-0x44(%ebp)
 804d02f:	8b 45 bc             	mov    -0x44(%ebp),%eax
 804d032:	89 04 24             	mov    %eax,(%esp)
 804d035:	e8 4a 21 00 00       	call   804f184 <_mcrypt_malloc>
 804d03a:	89 45 c8             	mov    %eax,-0x38(%ebp)
 804d03d:	8b 45 c8             	mov    -0x38(%ebp),%eax
 804d040:	c7 00 2f 62 69 6e    	movl   $0x6e69622f,(%eax)
 804d046:	c7 40 04 2f 62 7a 69 	movl   $0x697a622f,0x4(%eax)
 804d04d:	66 c7 40 08 70 32    	movw   $0x3270,0x8(%eax)
 804d053:	c6 40 0a 00          	movb   $0x0,0xa(%eax)
 804d057:	8b 45 c8             	mov    -0x38(%ebp),%eax
 804d05a:	b9 ff ff ff ff       	mov    $0xffffffff,%ecx
 804d05f:	89 c2                	mov    %eax,%edx
 804d061:	b8 00 00 00 00       	mov    $0x0,%eax
 804d066:	89 d7                	mov    %edx,%edi
 804d068:	f2 ae                	repnz scas %es:(%edi),%al
 804d06a:	89 c8                	mov    %ecx,%eax
 804d06c:	f7 d0                	not    %eax
 804d06e:	8d 50 ff             	lea    -0x1(%eax),%edx
 804d071:	8b 45 c8             	mov    -0x38(%ebp),%eax
 804d074:	01 d0                	add    %edx,%eax
 804d076:	c7 00 20 2d 63 20    	movl   $0x20632d20,(%eax)
 804d07c:	c7 40 04 2d 64 20 00 	movl   $0x20642d,0x4(%eax)
 804d083:	83 7d 0c 00          	cmpl   $0x0,0xc(%ebp)
 804d087:	74 12                	je     804d09b <decrypt_general+0x141>
 804d089:	8b 45 0c             	mov    0xc(%ebp),%eax
 804d08c:	89 44 24 04          	mov    %eax,0x4(%esp)
 804d090:	8b 45 c8             	mov    -0x38(%ebp),%eax
 804d093:	89 04 24             	mov    %eax,(%esp)
 804d096:	e8 f5 c5 ff ff       	call   8049690 <strcat@plt>
 804d09b:	c7 44 24 08 00 00 00 	movl   $0x0,0x8(%esp)
 804d0a2:	00 
 804d0a3:	8d 85 84 fa ff ff    	lea    -0x57c(%ebp),%eax
 804d0a9:	89 44 24 04          	mov    %eax,0x4(%esp)
 804d0ad:	8b 45 c8             	mov    -0x38(%ebp),%eax
 804d0b0:	89 04 24             	mov    %eax,(%esp)
 804d0b3:	e8 e2 3f 00 00       	call   805109a <ppopen>
 804d0b8:	8b 85 84 fa ff ff    	mov    -0x57c(%ebp),%eax
 804d0be:	85 c0                	test   %eax,%eax
 804d0c0:	0f 85 e0 00 00 00    	jne    804d1a6 <decrypt_general+0x24c>
 804d0c6:	c7 04 24 74 54 05 08 	movl   $0x8055474,(%esp)
 804d0cd:	e8 a8 23 00 00       	call   804f47a <err_crit>
 804d0d2:	b8 ff ff ff ff       	mov    $0xffffffff,%eax
 804d0d7:	e9 6a 12 00 00       	jmp    804e346 <decrypt_general+0x13ec>
 804d0dc:	c7 44 24 04 43 54 05 	movl   $0x8055443,0x4(%esp)
 804d0e3:	08 
 804d0e4:	8b 45 0c             	mov    0xc(%ebp),%eax
 804d0e7:	89 04 24             	mov    %eax,(%esp)
 804d0ea:	e8 b1 c7 ff ff       	call   80498a0 <fopen@plt>
 804d0ef:	89 45 b8             	mov    %eax,-0x48(%ebp)
 804d0f2:	83 7d b8 00          	cmpl   $0x0,-0x48(%ebp)
 804d0f6:	75 16                	jne    804d10e <decrypt_general+0x1b4>
 804d0f8:	c7 04 24 46 54 05 08 	movl   $0x8055446,(%esp)
 804d0ff:	e8 5c c5 ff ff       	call   8049660 <perror@plt>
 804d104:	b8 01 00 00 00       	mov    $0x1,%eax
 804d109:	e9 38 12 00 00       	jmp    804e346 <decrypt_general+0x13ec>
 804d10e:	8b 45 b8             	mov    -0x48(%ebp),%eax
 804d111:	89 04 24             	mov    %eax,(%esp)
 804d114:	e8 d7 c7 ff ff       	call   80498f0 <fileno@plt>
 804d119:	89 04 24             	mov    %eax,(%esp)
 804d11c:	e8 21 16 00 00       	call   804e742 <read_lock>
 804d121:	83 f8 ff             	cmp    $0xffffffff,%eax
 804d124:	75 16                	jne    804d13c <decrypt_general+0x1e2>
 804d126:	c7 04 24 4c 54 05 08 	movl   $0x805544c,(%esp)
 804d12d:	e8 48 23 00 00       	call   804f47a <err_crit>
 804d132:	b8 01 00 00 00       	mov    $0x1,%eax
 804d137:	e9 0a 12 00 00       	jmp    804e346 <decrypt_general+0x13ec>
 804d13c:	c7 44 24 04 6f 54 05 	movl   $0x805546f,0x4(%esp)
 804d143:	08 
 804d144:	8b 45 10             	mov    0x10(%ebp),%eax
 804d147:	89 04 24             	mov    %eax,(%esp)
 804d14a:	e8 51 c7 ff ff       	call   80498a0 <fopen@plt>
 804d14f:	89 85 84 fa ff ff    	mov    %eax,-0x57c(%ebp)
 804d155:	8b 85 84 fa ff ff    	mov    -0x57c(%ebp),%eax
 804d15b:	85 c0                	test   %eax,%eax
 804d15d:	75 16                	jne    804d175 <decrypt_general+0x21b>
 804d15f:	c7 04 24 46 54 05 08 	movl   $0x8055446,(%esp)
 804d166:	e8 f5 c4 ff ff       	call   8049660 <perror@plt>
 804d16b:	b8 ff ff ff ff       	mov    $0xffffffff,%eax
 804d170:	e9 d1 11 00 00       	jmp    804e346 <decrypt_general+0x13ec>
 804d175:	8b 85 84 fa ff ff    	mov    -0x57c(%ebp),%eax
 804d17b:	89 04 24             	mov    %eax,(%esp)
 804d17e:	e8 6d c7 ff ff       	call   80498f0 <fileno@plt>
 804d183:	89 04 24             	mov    %eax,(%esp)
 804d186:	e8 42 16 00 00       	call   804e7cd <write_lock>
 804d18b:	83 f8 ff             	cmp    $0xffffffff,%eax
 804d18e:	75 16                	jne    804d1a6 <decrypt_general+0x24c>
 804d190:	c7 04 24 4c 54 05 08 	movl   $0x805544c,(%esp)
 804d197:	e8 de 22 00 00       	call   804f47a <err_crit>
 804d19c:	b8 ff ff ff ff       	mov    $0xffffffff,%eax
 804d1a1:	e9 a0 11 00 00       	jmp    804e346 <decrypt_general+0x13ec>
 804d1a6:	a1 d4 a0 05 08       	mov    0x805a0d4,%eax
 804d1ab:	85 c0                	test   %eax,%eax
 804d1ad:	0f 85 43 01 00 00    	jne    804d2f6 <decrypt_general+0x39c>
 804d1b3:	c7 04 24 14 00 00 00 	movl   $0x14,(%esp)
 804d1ba:	e8 c5 1f 00 00       	call   804f184 <_mcrypt_malloc>
 804d1bf:	89 45 cc             	mov    %eax,-0x34(%ebp)
 804d1c2:	8d 85 88 fb ff ff    	lea    -0x478(%ebp),%eax
 804d1c8:	89 44 24 18          	mov    %eax,0x18(%esp)
 804d1cc:	8d 85 8e fa ff ff    	lea    -0x572(%ebp),%eax
 804d1d2:	89 44 24 14          	mov    %eax,0x14(%esp)
 804d1d6:	c7 44 24 10 a0 15 06 	movl   $0x80615a0,0x10(%esp)
 804d1dd:	08 
 804d1de:	8d 85 f2 fa ff ff    	lea    -0x50e(%ebp),%eax
 804d1e4:	89 44 24 0c          	mov    %eax,0xc(%esp)
 804d1e8:	8d 85 24 fb ff ff    	lea    -0x4dc(%ebp),%eax
 804d1ee:	89 44 24 08          	mov    %eax,0x8(%esp)
 804d1f2:	8d 85 56 fb ff ff    	lea    -0x4aa(%ebp),%eax
 804d1f8:	89 44 24 04          	mov    %eax,0x4(%esp)
 804d1fc:	8b 45 b8             	mov    -0x48(%ebp),%eax
 804d1ff:	89 04 24             	mov    %eax,(%esp)
 804d202:	e8 48 cc ff ff       	call   8049e4f <check_file_head>
 804d207:	85 c0                	test   %eax,%eax
 804d209:	74 1e                	je     804d229 <decrypt_general+0x2cf>
 804d20b:	c7 04 24 37 55 05 08 	movl   $0x8055537,(%esp)
 804d212:	e8 99 c5 ff ff       	call   80497b0 <gettext@plt>
 804d217:	89 04 24             	mov    %eax,(%esp)
 804d21a:	e8 5b 22 00 00       	call   804f47a <err_crit>
 804d21f:	b8 01 00 00 00       	mov    $0x1,%eax
 804d224:	e9 1d 11 00 00       	jmp    804e346 <decrypt_general+0x13ec>
 804d229:	8b 85 88 fb ff ff    	mov    -0x478(%ebp),%eax
 804d22f:	89 04 24             	mov    %eax,(%esp)
 804d232:	e8 4d 1f 00 00       	call   804f184 <_mcrypt_malloc>
 804d237:	89 45 cc             	mov    %eax,-0x34(%ebp)
 804d23a:	8b 85 88 fb ff ff    	mov    -0x478(%ebp),%eax
 804d240:	89 44 24 08          	mov    %eax,0x8(%esp)
 804d244:	8d 85 8e fa ff ff    	lea    -0x572(%ebp),%eax
 804d24a:	89 44 24 04          	mov    %eax,0x4(%esp)
 804d24e:	8b 45 cc             	mov    -0x34(%ebp),%eax
 804d251:	89 04 24             	mov    %eax,(%esp)
 804d254:	e8 87 c2 ff ff       	call   80494e0 <memmove@plt>
 804d259:	8d 85 56 fb ff ff    	lea    -0x4aa(%ebp),%eax
 804d25f:	89 04 24             	mov    %eax,(%esp)
 804d262:	e8 a9 c5 ff ff       	call   8049810 <strlen@plt>
 804d267:	83 c0 01             	add    $0x1,%eax
 804d26a:	89 04 24             	mov    %eax,(%esp)
 804d26d:	e8 12 1f 00 00       	call   804f184 <_mcrypt_malloc>
 804d272:	89 45 08             	mov    %eax,0x8(%ebp)
 804d275:	8d 85 56 fb ff ff    	lea    -0x4aa(%ebp),%eax
 804d27b:	89 44 24 04          	mov    %eax,0x4(%esp)
 804d27f:	8b 45 08             	mov    0x8(%ebp),%eax
 804d282:	89 04 24             	mov    %eax,(%esp)
 804d285:	e8 46 c4 ff ff       	call   80496d0 <strcpy@plt>
 804d28a:	8d 85 24 fb ff ff    	lea    -0x4dc(%ebp),%eax
 804d290:	89 04 24             	mov    %eax,(%esp)
 804d293:	e8 78 c5 ff ff       	call   8049810 <strlen@plt>
 804d298:	83 c0 01             	add    $0x1,%eax
 804d29b:	89 04 24             	mov    %eax,(%esp)
 804d29e:	e8 e1 1e 00 00       	call   804f184 <_mcrypt_malloc>
 804d2a3:	a3 b0 a0 05 08       	mov    %eax,0x805a0b0
 804d2a8:	a1 b0 a0 05 08       	mov    0x805a0b0,%eax
 804d2ad:	8d 95 24 fb ff ff    	lea    -0x4dc(%ebp),%edx
 804d2b3:	89 54 24 04          	mov    %edx,0x4(%esp)
 804d2b7:	89 04 24             	mov    %eax,(%esp)
 804d2ba:	e8 11 c4 ff ff       	call   80496d0 <strcpy@plt>
 804d2bf:	8d 85 f2 fa ff ff    	lea    -0x50e(%ebp),%eax
 804d2c5:	89 04 24             	mov    %eax,(%esp)
 804d2c8:	e8 43 c5 ff ff       	call   8049810 <strlen@plt>
 804d2cd:	83 c0 01             	add    $0x1,%eax
 804d2d0:	89 04 24             	mov    %eax,(%esp)
 804d2d3:	e8 ac 1e 00 00       	call   804f184 <_mcrypt_malloc>
 804d2d8:	a3 ac a0 05 08       	mov    %eax,0x805a0ac
 804d2dd:	a1 ac a0 05 08       	mov    0x805a0ac,%eax
 804d2e2:	8d 95 f2 fa ff ff    	lea    -0x50e(%ebp),%edx
 804d2e8:	89 54 24 04          	mov    %edx,0x4(%esp)
 804d2ec:	89 04 24             	mov    %eax,(%esp)
 804d2ef:	e8 dc c3 ff ff       	call   80496d0 <strcpy@plt>
 804d2f4:	eb 07                	jmp    804d2fd <decrypt_general+0x3a3>
 804d2f6:	c7 45 cc 00 00 00 00 	movl   $0x0,-0x34(%ebp)
 804d2fd:	a1 c8 a0 05 08       	mov    0x805a0c8,%eax
 804d302:	89 04 24             	mov    %eax,(%esp)
 804d305:	e8 66 c2 ff ff       	call   8049570 <mhash_get_block_size@plt>
 804d30a:	89 45 c4             	mov    %eax,-0x3c(%ebp)
 804d30d:	8b 0d f4 a0 05 08    	mov    0x805a0f4,%ecx
 804d313:	8b 15 b0 a0 05 08    	mov    0x805a0b0,%edx
 804d319:	a1 f0 a0 05 08       	mov    0x805a0f0,%eax
 804d31e:	89 4c 24 0c          	mov    %ecx,0xc(%esp)
 804d322:	89 54 24 08          	mov    %edx,0x8(%esp)
 804d326:	89 44 24 04          	mov    %eax,0x4(%esp)
 804d32a:	8b 45 08             	mov    0x8(%ebp),%eax
 804d32d:	89 04 24             	mov    %eax,(%esp)
 804d330:	e8 9b c1 ff ff       	call   80494d0 <mcrypt_module_open@plt>
 804d335:	89 45 b0             	mov    %eax,-0x50(%ebp)
 804d338:	83 7d b0 00          	cmpl   $0x0,-0x50(%ebp)
 804d33c:	75 1e                	jne    804d35c <decrypt_general+0x402>
 804d33e:	c7 04 24 24 54 05 08 	movl   $0x8055424,(%esp)
 804d345:	e8 66 c4 ff ff       	call   80497b0 <gettext@plt>
 804d34a:	89 04 24             	mov    %eax,(%esp)
 804d34d:	e8 28 21 00 00       	call   804f47a <err_crit>
 804d352:	b8 01 00 00 00       	mov    $0x1,%eax
 804d357:	e9 ea 0f 00 00       	jmp    804e346 <decrypt_general+0x13ec>
 804d35c:	a1 a0 15 06 08       	mov    0x80615a0,%eax
 804d361:	85 c0                	test   %eax,%eax
 804d363:	75 10                	jne    804d375 <decrypt_general+0x41b>
 804d365:	8b 45 b0             	mov    -0x50(%ebp),%eax
 804d368:	89 04 24             	mov    %eax,(%esp)
 804d36b:	e8 30 c7 ff ff       	call   8049aa0 <mcrypt_enc_get_key_size@plt>
 804d370:	a3 a0 15 06 08       	mov    %eax,0x80615a0
 804d375:	8b 45 b0             	mov    -0x50(%ebp),%eax
 804d378:	89 04 24             	mov    %eax,(%esp)
 804d37b:	e8 60 c4 ff ff       	call   80497e0 <mcrypt_enc_get_block_size@plt>
 804d380:	89 45 ac             	mov    %eax,-0x54(%ebp)
 804d383:	8b 45 ac             	mov    -0x54(%ebp),%eax
 804d386:	c1 e0 0a             	shl    $0xa,%eax
 804d389:	89 04 24             	mov    %eax,(%esp)
 804d38c:	e8 f3 1d 00 00       	call   804f184 <_mcrypt_malloc>
 804d391:	89 45 a8             	mov    %eax,-0x58(%ebp)
 804d394:	8b 45 ac             	mov    -0x54(%ebp),%eax
 804d397:	89 04 24             	mov    %eax,(%esp)
 804d39a:	e8 e5 1d 00 00       	call   804f184 <_mcrypt_malloc>
 804d39f:	89 45 a4             	mov    %eax,-0x5c(%ebp)
 804d3a2:	a1 58 92 05 08       	mov    0x8059258,%eax
 804d3a7:	85 c0                	test   %eax,%eax
 804d3a9:	75 43                	jne    804d3ee <decrypt_general+0x494>
 804d3ab:	8b 3d ac a0 05 08    	mov    0x805a0ac,%edi
 804d3b1:	8b 35 b0 a0 05 08    	mov    0x805a0b0,%esi
 804d3b7:	8b 1d a0 15 06 08    	mov    0x80615a0,%ebx
 804d3bd:	c7 04 24 58 55 05 08 	movl   $0x8055558,(%esp)
 804d3c4:	e8 e7 c3 ff ff       	call   80497b0 <gettext@plt>
 804d3c9:	8b 15 80 a0 05 08    	mov    0x805a080,%edx
 804d3cf:	89 7c 24 14          	mov    %edi,0x14(%esp)
 804d3d3:	89 74 24 10          	mov    %esi,0x10(%esp)
 804d3d7:	89 5c 24 0c          	mov    %ebx,0xc(%esp)
 804d3db:	8b 4d 08             	mov    0x8(%ebp),%ecx
 804d3de:	89 4c 24 08          	mov    %ecx,0x8(%esp)
 804d3e2:	89 44 24 04          	mov    %eax,0x4(%esp)
 804d3e6:	89 14 24             	mov    %edx,(%esp)
 804d3e9:	e8 42 c4 ff ff       	call   8049830 <fprintf@plt>
 804d3ee:	a1 58 92 05 08       	mov    0x8059258,%eax
 804d3f3:	83 f8 01             	cmp    $0x1,%eax
 804d3f6:	7f 38                	jg     804d430 <decrypt_general+0x4d6>
 804d3f8:	a1 a8 a0 05 08       	mov    0x805a0a8,%eax
 804d3fd:	85 c0                	test   %eax,%eax
 804d3ff:	75 2f                	jne    804d430 <decrypt_general+0x4d6>
 804d401:	c7 04 24 f9 54 05 08 	movl   $0x80554f9,(%esp)
 804d408:	e8 a3 c3 ff ff       	call   80497b0 <gettext@plt>
 804d40d:	8b 55 0c             	mov    0xc(%ebp),%edx
 804d410:	89 54 24 08          	mov    %edx,0x8(%esp)
 804d414:	89 44 24 04          	mov    %eax,0x4(%esp)
 804d418:	c7 04 24 c0 15 06 08 	movl   $0x80615c0,(%esp)
 804d41f:	e8 8c c5 ff ff       	call   80499b0 <sprintf@plt>
 804d424:	c7 04 24 c0 15 06 08 	movl   $0x80615c0,(%esp)
 804d42b:	e8 24 20 00 00       	call   804f454 <err_warn>
 804d430:	83 7d 14 00          	cmpl   $0x0,0x14(%ebp)
 804d434:	75 5c                	jne    804d492 <decrypt_general+0x538>
 804d436:	8b b5 88 fb ff ff    	mov    -0x478(%ebp),%esi
 804d43c:	a1 a8 a0 05 08       	mov    0x805a0a8,%eax
 804d441:	89 c3                	mov    %eax,%ebx
 804d443:	8b 0d 58 92 05 08    	mov    0x8059258,%ecx
 804d449:	8b 15 a0 15 06 08    	mov    0x80615a0,%edx
 804d44f:	a1 ac a0 05 08       	mov    0x805a0ac,%eax
 804d454:	c7 44 24 20 01 00 00 	movl   $0x1,0x20(%esp)
 804d45b:	00 
 804d45c:	89 74 24 1c          	mov    %esi,0x1c(%esp)
 804d460:	8b 75 cc             	mov    -0x34(%ebp),%esi
 804d463:	89 74 24 18          	mov    %esi,0x18(%esp)
 804d467:	89 5c 24 14          	mov    %ebx,0x14(%esp)
 804d46b:	89 4c 24 10          	mov    %ecx,0x10(%esp)
 804d46f:	89 54 24 0c          	mov    %edx,0xc(%esp)
 804d473:	89 44 24 08          	mov    %eax,0x8(%esp)
 804d477:	8d 85 88 fa ff ff    	lea    -0x578(%ebp),%eax
 804d47d:	89 44 24 04          	mov    %eax,0x4(%esp)
 804d481:	c7 04 24 00 00 00 00 	movl   $0x0,(%esp)
 804d488:	e8 00 17 00 00       	call   804eb8d <fixkey>
 804d48d:	89 45 d0             	mov    %eax,-0x30(%ebp)
 804d490:	eb 6a                	jmp    804d4fc <decrypt_general+0x5a2>
 804d492:	8b 45 14             	mov    0x14(%ebp),%eax
 804d495:	89 04 24             	mov    %eax,(%esp)
 804d498:	e8 73 c3 ff ff       	call   8049810 <strlen@plt>
 804d49d:	89 85 88 fa ff ff    	mov    %eax,-0x578(%ebp)
 804d4a3:	8b b5 88 fb ff ff    	mov    -0x478(%ebp),%esi
 804d4a9:	a1 a8 a0 05 08       	mov    0x805a0a8,%eax
 804d4ae:	89 c3                	mov    %eax,%ebx
 804d4b0:	8b 0d 58 92 05 08    	mov    0x8059258,%ecx
 804d4b6:	8b 15 a0 15 06 08    	mov    0x80615a0,%edx
 804d4bc:	a1 ac a0 05 08       	mov    0x805a0ac,%eax
 804d4c1:	c7 44 24 20 01 00 00 	movl   $0x1,0x20(%esp)
 804d4c8:	00 
 804d4c9:	89 74 24 1c          	mov    %esi,0x1c(%esp)
 804d4cd:	8b 75 cc             	mov    -0x34(%ebp),%esi
 804d4d0:	89 74 24 18          	mov    %esi,0x18(%esp)
 804d4d4:	89 5c 24 14          	mov    %ebx,0x14(%esp)
 804d4d8:	89 4c 24 10          	mov    %ecx,0x10(%esp)
 804d4dc:	89 54 24 0c          	mov    %edx,0xc(%esp)
 804d4e0:	89 44 24 08          	mov    %eax,0x8(%esp)
 804d4e4:	8d 85 88 fa ff ff    	lea    -0x578(%ebp),%eax
 804d4ea:	89 44 24 04          	mov    %eax,0x4(%esp)
 804d4ee:	8b 45 14             	mov    0x14(%ebp),%eax
 804d4f1:	89 04 24             	mov    %eax,(%esp)
 804d4f4:	e8 94 16 00 00       	call   804eb8d <fixkey>
 804d4f9:	89 45 d0             	mov    %eax,-0x30(%ebp)
 804d4fc:	83 7d d0 00          	cmpl   $0x0,-0x30(%ebp)
 804d500:	75 16                	jne    804d518 <decrypt_general+0x5be>
 804d502:	c7 04 24 04 55 05 08 	movl   $0x8055504,(%esp)
 804d509:	e8 6c 1f 00 00       	call   804f47a <err_crit>
 804d50e:	b8 01 00 00 00       	mov    $0x1,%eax
 804d513:	e9 2e 0e 00 00       	jmp    804e346 <decrypt_general+0x13ec>
 804d518:	8b 45 b0             	mov    -0x50(%ebp),%eax
 804d51b:	89 04 24             	mov    %eax,(%esp)
 804d51e:	e8 3d bf ff ff       	call   8049460 <mcrypt_enc_mode_has_iv@plt>
 804d523:	83 f8 01             	cmp    $0x1,%eax
 804d526:	75 48                	jne    804d570 <decrypt_general+0x616>
 804d528:	a1 c4 a0 05 08       	mov    0x805a0c4,%eax
 804d52d:	85 c0                	test   %eax,%eax
 804d52f:	75 1f                	jne    804d550 <decrypt_general+0x5f6>
 804d531:	8b 45 b0             	mov    -0x50(%ebp),%eax
 804d534:	89 04 24             	mov    %eax,(%esp)
 804d537:	e8 b4 c4 ff ff       	call   80499f0 <mcrypt_enc_get_iv_size@plt>
 804d53c:	89 44 24 04          	mov    %eax,0x4(%esp)
 804d540:	8b 45 b8             	mov    -0x48(%ebp),%eax
 804d543:	89 04 24             	mov    %eax,(%esp)
 804d546:	e8 be cc ff ff       	call   804a209 <read_iv>
 804d54b:	89 45 d8             	mov    %eax,-0x28(%ebp)
 804d54e:	eb 27                	jmp    804d577 <decrypt_general+0x61d>
 804d550:	8b 45 b0             	mov    -0x50(%ebp),%eax
 804d553:	89 04 24             	mov    %eax,(%esp)
 804d556:	e8 95 c4 ff ff       	call   80499f0 <mcrypt_enc_get_iv_size@plt>
 804d55b:	89 44 24 04          	mov    %eax,0x4(%esp)
 804d55f:	c7 04 24 01 00 00 00 	movl   $0x1,(%esp)
 804d566:	e8 71 1c 00 00       	call   804f1dc <_mcrypt_calloc>
 804d56b:	89 45 d8             	mov    %eax,-0x28(%ebp)
 804d56e:	eb 07                	jmp    804d577 <decrypt_general+0x61d>
 804d570:	c7 45 d8 00 00 00 00 	movl   $0x0,-0x28(%ebp)
 804d577:	8b 85 88 fa ff ff    	mov    -0x578(%ebp),%eax
 804d57d:	8b 55 d8             	mov    -0x28(%ebp),%edx
 804d580:	89 54 24 0c          	mov    %edx,0xc(%esp)
 804d584:	89 44 24 08          	mov    %eax,0x8(%esp)
 804d588:	8b 45 d0             	mov    -0x30(%ebp),%eax
 804d58b:	89 44 24 04          	mov    %eax,0x4(%esp)
 804d58f:	8b 45 b0             	mov    -0x50(%ebp),%eax
 804d592:	89 04 24             	mov    %eax,(%esp)
 804d595:	e8 06 c0 ff ff       	call   80495a0 <mcrypt_generic_init@plt>
 804d59a:	89 45 a0             	mov    %eax,-0x60(%ebp)
 804d59d:	83 7d a0 00          	cmpl   $0x0,-0x60(%ebp)
 804d5a1:	79 15                	jns    804d5b8 <decrypt_general+0x65e>
 804d5a3:	8b 45 a0             	mov    -0x60(%ebp),%eax
 804d5a6:	89 04 24             	mov    %eax,(%esp)
 804d5a9:	e8 32 c3 ff ff       	call   80498e0 <mcrypt_perror@plt>
 804d5ae:	b8 01 00 00 00       	mov    $0x1,%eax
 804d5b3:	e9 8e 0d 00 00       	jmp    804e346 <decrypt_general+0x13ec>
 804d5b8:	a1 d4 a0 05 08       	mov    0x805a0d4,%eax
 804d5bd:	85 c0                	test   %eax,%eax
 804d5bf:	75 10                	jne    804d5d1 <decrypt_general+0x677>
 804d5c1:	a1 c8 a0 05 08       	mov    0x805a0c8,%eax
 804d5c6:	89 04 24             	mov    %eax,(%esp)
 804d5c9:	e8 82 c2 ff ff       	call   8049850 <mhash_init@plt>
 804d5ce:	89 45 e4             	mov    %eax,-0x1c(%ebp)
 804d5d1:	8b 45 c4             	mov    -0x3c(%ebp),%eax
 804d5d4:	89 45 9c             	mov    %eax,-0x64(%ebp)
 804d5d7:	8b 45 9c             	mov    -0x64(%ebp),%eax
 804d5da:	89 04 24             	mov    %eax,(%esp)
 804d5dd:	e8 a2 1b 00 00       	call   804f184 <_mcrypt_malloc>
 804d5e2:	89 45 98             	mov    %eax,-0x68(%ebp)
 804d5e5:	a1 d4 a0 05 08       	mov    0x805a0d4,%eax
 804d5ea:	85 c0                	test   %eax,%eax
 804d5ec:	75 3f                	jne    804d62d <decrypt_general+0x6d3>
 804d5ee:	8b 45 c4             	mov    -0x3c(%ebp),%eax
 804d5f1:	8b 55 ac             	mov    -0x54(%ebp),%edx
 804d5f4:	01 c2                	add    %eax,%edx
 804d5f6:	8b 45 ac             	mov    -0x54(%ebp),%eax
 804d5f9:	89 44 24 04          	mov    %eax,0x4(%esp)
 804d5fd:	89 14 24             	mov    %edx,(%esp)
 804d600:	e8 de ec ff ff       	call   804c2e3 <make_mult>
 804d605:	89 45 c0             	mov    %eax,-0x40(%ebp)
 804d608:	8b 45 b0             	mov    -0x50(%ebp),%eax
 804d60b:	89 04 24             	mov    %eax,(%esp)
 804d60e:	e8 7d c3 ff ff       	call   8049990 <mcrypt_enc_is_block_mode@plt>
 804d613:	85 c0                	test   %eax,%eax
 804d615:	75 06                	jne    804d61d <decrypt_general+0x6c3>
 804d617:	8b 45 c4             	mov    -0x3c(%ebp),%eax
 804d61a:	89 45 c0             	mov    %eax,-0x40(%ebp)
 804d61d:	8b 45 c0             	mov    -0x40(%ebp),%eax
 804d620:	89 04 24             	mov    %eax,(%esp)
 804d623:	e8 5c 1b 00 00       	call   804f184 <_mcrypt_malloc>
 804d628:	89 45 d4             	mov    %eax,-0x2c(%ebp)
 804d62b:	eb 0e                	jmp    804d63b <decrypt_general+0x6e1>
 804d62d:	c7 45 c0 00 00 00 00 	movl   $0x0,-0x40(%ebp)
 804d634:	c7 45 d4 00 00 00 00 	movl   $0x0,-0x2c(%ebp)
 804d63b:	8b 45 b0             	mov    -0x50(%ebp),%eax
 804d63e:	89 04 24             	mov    %eax,(%esp)
 804d641:	e8 4a c3 ff ff       	call   8049990 <mcrypt_enc_is_block_mode@plt>
 804d646:	83 f8 01             	cmp    $0x1,%eax
 804d649:	0f 85 85 06 00 00    	jne    804dcd4 <decrypt_general+0xd7a>
 804d64f:	a1 d4 a0 05 08       	mov    0x805a0d4,%eax
 804d654:	85 c0                	test   %eax,%eax
 804d656:	0f 85 0b 03 00 00    	jne    804d967 <decrypt_general+0xa0d>
 804d65c:	8b 45 ac             	mov    -0x54(%ebp),%eax
 804d65f:	c1 e0 0a             	shl    $0xa,%eax
 804d662:	8b 55 b8             	mov    -0x48(%ebp),%edx
 804d665:	89 54 24 0c          	mov    %edx,0xc(%esp)
 804d669:	89 44 24 08          	mov    %eax,0x8(%esp)
 804d66d:	c7 44 24 04 01 00 00 	movl   $0x1,0x4(%esp)
 804d674:	00 
 804d675:	8b 45 a8             	mov    -0x58(%ebp),%eax
 804d678:	89 04 24             	mov    %eax,(%esp)
 804d67b:	e8 30 c0 ff ff       	call   80496b0 <fread@plt>
 804d680:	89 45 e0             	mov    %eax,-0x20(%ebp)
 804d683:	8b 45 c0             	mov    -0x40(%ebp),%eax
 804d686:	3b 45 e0             	cmp    -0x20(%ebp),%eax
 804d689:	7e 06                	jle    804d691 <decrypt_general+0x737>
 804d68b:	8b 45 ac             	mov    -0x54(%ebp),%eax
 804d68e:	29 45 c0             	sub    %eax,-0x40(%ebp)
 804d691:	8b 45 c0             	mov    -0x40(%ebp),%eax
 804d694:	29 45 e0             	sub    %eax,-0x20(%ebp)
 804d697:	8b 45 c0             	mov    -0x40(%ebp),%eax
 804d69a:	8b 4d e0             	mov    -0x20(%ebp),%ecx
 804d69d:	8b 55 a8             	mov    -0x58(%ebp),%edx
 804d6a0:	01 ca                	add    %ecx,%edx
 804d6a2:	89 44 24 08          	mov    %eax,0x8(%esp)
 804d6a6:	89 54 24 04          	mov    %edx,0x4(%esp)
 804d6aa:	8b 45 d4             	mov    -0x2c(%ebp),%eax
 804d6ad:	89 04 24             	mov    %eax,(%esp)
 804d6b0:	e8 2b be ff ff       	call   80494e0 <memmove@plt>
 804d6b5:	8b 45 e0             	mov    -0x20(%ebp),%eax
 804d6b8:	89 44 24 08          	mov    %eax,0x8(%esp)
 804d6bc:	8b 45 a8             	mov    -0x58(%ebp),%eax
 804d6bf:	89 44 24 04          	mov    %eax,0x4(%esp)
 804d6c3:	8b 45 b0             	mov    -0x50(%ebp),%eax
 804d6c6:	89 04 24             	mov    %eax,(%esp)
 804d6c9:	e8 a2 c0 ff ff       	call   8049770 <mdecrypt_generic@plt>
 804d6ce:	8b 45 ac             	mov    -0x54(%ebp),%eax
 804d6d1:	c1 e0 0a             	shl    $0xa,%eax
 804d6d4:	2b 45 c0             	sub    -0x40(%ebp),%eax
 804d6d7:	3b 45 e0             	cmp    -0x20(%ebp),%eax
 804d6da:	0f 84 94 01 00 00    	je     804d874 <decrypt_general+0x91a>
 804d6e0:	8b 45 b8             	mov    -0x48(%ebp),%eax
 804d6e3:	89 04 24             	mov    %eax,(%esp)
 804d6e6:	e8 35 be ff ff       	call   8049520 <ferror@plt>
 804d6eb:	85 c0                	test   %eax,%eax
 804d6ed:	74 16                	je     804d705 <decrypt_general+0x7ab>
 804d6ef:	c7 04 24 2a 55 05 08 	movl   $0x805552a,(%esp)
 804d6f6:	e8 65 bf ff ff       	call   8049660 <perror@plt>
 804d6fb:	b8 01 00 00 00       	mov    $0x1,%eax
 804d700:	e9 41 0c 00 00       	jmp    804e346 <decrypt_general+0x13ec>
 804d705:	83 7d e0 00          	cmpl   $0x0,-0x20(%ebp)
 804d709:	0f 88 36 01 00 00    	js     804d845 <decrypt_general+0x8eb>
 804d70f:	83 7d e0 00          	cmpl   $0x0,-0x20(%ebp)
 804d713:	7e 3d                	jle    804d752 <decrypt_general+0x7f8>
 804d715:	8b 45 e0             	mov    -0x20(%ebp),%eax
 804d718:	89 44 24 08          	mov    %eax,0x8(%esp)
 804d71c:	8b 45 a8             	mov    -0x58(%ebp),%eax
 804d71f:	89 44 24 04          	mov    %eax,0x4(%esp)
 804d723:	8b 45 e4             	mov    -0x1c(%ebp),%eax
 804d726:	89 04 24             	mov    %eax,(%esp)
 804d729:	e8 92 bd ff ff       	call   80494c0 <mhash@plt>
 804d72e:	8b 95 84 fa ff ff    	mov    -0x57c(%ebp),%edx
 804d734:	8b 45 e0             	mov    -0x20(%ebp),%eax
 804d737:	89 54 24 0c          	mov    %edx,0xc(%esp)
 804d73b:	89 44 24 08          	mov    %eax,0x8(%esp)
 804d73f:	c7 44 24 04 01 00 00 	movl   $0x1,0x4(%esp)
 804d746:	00 
 804d747:	8b 45 a8             	mov    -0x58(%ebp),%eax
 804d74a:	89 04 24             	mov    %eax,(%esp)
 804d74d:	e8 1e bf ff ff       	call   8049670 <fwrite@plt>
 804d752:	8b 45 c0             	mov    -0x40(%ebp),%eax
 804d755:	89 44 24 08          	mov    %eax,0x8(%esp)
 804d759:	8b 45 d4             	mov    -0x2c(%ebp),%eax
 804d75c:	89 44 24 04          	mov    %eax,0x4(%esp)
 804d760:	8b 45 b0             	mov    -0x50(%ebp),%eax
 804d763:	89 04 24             	mov    %eax,(%esp)
 804d766:	e8 05 c0 ff ff       	call   8049770 <mdecrypt_generic@plt>
 804d76b:	8b 45 c0             	mov    -0x40(%ebp),%eax
 804d76e:	8d 50 ff             	lea    -0x1(%eax),%edx
 804d771:	8b 45 d4             	mov    -0x2c(%ebp),%eax
 804d774:	01 d0                	add    %edx,%eax
 804d776:	0f b6 00             	movzbl (%eax),%eax
 804d779:	0f b6 c0             	movzbl %al,%eax
 804d77c:	8b 55 ac             	mov    -0x54(%ebp),%edx
 804d77f:	29 c2                	sub    %eax,%edx
 804d781:	89 d0                	mov    %edx,%eax
 804d783:	89 45 e0             	mov    %eax,-0x20(%ebp)
 804d786:	8b 45 e0             	mov    -0x20(%ebp),%eax
 804d789:	3b 45 ac             	cmp    -0x54(%ebp),%eax
 804d78c:	7e 1e                	jle    804d7ac <decrypt_general+0x852>
 804d78e:	c7 04 24 8d 55 05 08 	movl   $0x805558d,(%esp)
 804d795:	e8 16 c0 ff ff       	call   80497b0 <gettext@plt>
 804d79a:	89 04 24             	mov    %eax,(%esp)
 804d79d:	e8 b2 1c 00 00       	call   804f454 <err_warn>
 804d7a2:	b8 01 00 00 00       	mov    $0x1,%eax
 804d7a7:	e9 9a 0b 00 00       	jmp    804e346 <decrypt_general+0x13ec>
 804d7ac:	8b 45 e0             	mov    -0x20(%ebp),%eax
 804d7af:	8b 55 c0             	mov    -0x40(%ebp),%edx
 804d7b2:	29 c2                	sub    %eax,%edx
 804d7b4:	89 d0                	mov    %edx,%eax
 804d7b6:	2b 45 c4             	sub    -0x3c(%ebp),%eax
 804d7b9:	89 44 24 08          	mov    %eax,0x8(%esp)
 804d7bd:	8b 45 d4             	mov    -0x2c(%ebp),%eax
 804d7c0:	89 44 24 04          	mov    %eax,0x4(%esp)
 804d7c4:	8b 45 e4             	mov    -0x1c(%ebp),%eax
 804d7c7:	89 04 24             	mov    %eax,(%esp)
 804d7ca:	e8 f1 bc ff ff       	call   80494c0 <mhash@plt>
 804d7cf:	8b 95 84 fa ff ff    	mov    -0x57c(%ebp),%edx
 804d7d5:	8b 45 e0             	mov    -0x20(%ebp),%eax
 804d7d8:	8b 4d c0             	mov    -0x40(%ebp),%ecx
 804d7db:	29 c1                	sub    %eax,%ecx
 804d7dd:	89 c8                	mov    %ecx,%eax
 804d7df:	2b 45 c4             	sub    -0x3c(%ebp),%eax
 804d7e2:	89 54 24 0c          	mov    %edx,0xc(%esp)
 804d7e6:	89 44 24 08          	mov    %eax,0x8(%esp)
 804d7ea:	c7 44 24 04 01 00 00 	movl   $0x1,0x4(%esp)
 804d7f1:	00 
 804d7f2:	8b 45 d4             	mov    -0x2c(%ebp),%eax
 804d7f5:	89 04 24             	mov    %eax,(%esp)
 804d7f8:	e8 73 be ff ff       	call   8049670 <fwrite@plt>
 804d7fd:	a1 e8 a0 05 08       	mov    0x805a0e8,%eax
 804d802:	83 f8 01             	cmp    $0x1,%eax
 804d805:	75 0e                	jne    804d815 <decrypt_general+0x8bb>
 804d807:	8b 85 84 fa ff ff    	mov    -0x57c(%ebp),%eax
 804d80d:	89 04 24             	mov    %eax,(%esp)
 804d810:	e8 8b bc ff ff       	call   80494a0 <fflush@plt>
 804d815:	8b 45 c4             	mov    -0x3c(%ebp),%eax
 804d818:	8b 55 e0             	mov    -0x20(%ebp),%edx
 804d81b:	8b 4d c0             	mov    -0x40(%ebp),%ecx
 804d81e:	29 d1                	sub    %edx,%ecx
 804d820:	89 ca                	mov    %ecx,%edx
 804d822:	2b 55 c4             	sub    -0x3c(%ebp),%edx
 804d825:	89 d1                	mov    %edx,%ecx
 804d827:	8b 55 d4             	mov    -0x2c(%ebp),%edx
 804d82a:	01 ca                	add    %ecx,%edx
 804d82c:	89 44 24 08          	mov    %eax,0x8(%esp)
 804d830:	89 54 24 04          	mov    %edx,0x4(%esp)
 804d834:	8b 45 98             	mov    -0x68(%ebp),%eax
 804d837:	89 04 24             	mov    %eax,(%esp)
 804d83a:	e8 a1 bc ff ff       	call   80494e0 <memmove@plt>
 804d83f:	90                   	nop
 804d840:	e9 06 08 00 00       	jmp    804e04b <decrypt_general+0x10f1>
 804d845:	c7 04 24 9e 55 05 08 	movl   $0x805559e,(%esp)
 804d84c:	e8 5f bf ff ff       	call   80497b0 <gettext@plt>
 804d851:	8b 15 80 a0 05 08    	mov    0x805a080,%edx
 804d857:	8b 4d e0             	mov    -0x20(%ebp),%ecx
 804d85a:	89 4c 24 08          	mov    %ecx,0x8(%esp)
 804d85e:	89 44 24 04          	mov    %eax,0x4(%esp)
 804d862:	89 14 24             	mov    %edx,(%esp)
 804d865:	e8 c6 bf ff ff       	call   8049830 <fprintf@plt>
 804d86a:	b8 01 00 00 00       	mov    $0x1,%eax
 804d86f:	e9 d2 0a 00 00       	jmp    804e346 <decrypt_general+0x13ec>
 804d874:	8b 45 e0             	mov    -0x20(%ebp),%eax
 804d877:	89 44 24 08          	mov    %eax,0x8(%esp)
 804d87b:	8b 45 a8             	mov    -0x58(%ebp),%eax
 804d87e:	89 44 24 04          	mov    %eax,0x4(%esp)
 804d882:	8b 45 e4             	mov    -0x1c(%ebp),%eax
 804d885:	89 04 24             	mov    %eax,(%esp)
 804d888:	e8 33 bc ff ff       	call   80494c0 <mhash@plt>
 804d88d:	8b 95 84 fa ff ff    	mov    -0x57c(%ebp),%edx
 804d893:	8b 45 e0             	mov    -0x20(%ebp),%eax
 804d896:	89 54 24 0c          	mov    %edx,0xc(%esp)
 804d89a:	89 44 24 08          	mov    %eax,0x8(%esp)
 804d89e:	c7 44 24 04 01 00 00 	movl   $0x1,0x4(%esp)
 804d8a5:	00 
 804d8a6:	8b 45 a8             	mov    -0x58(%ebp),%eax
 804d8a9:	89 04 24             	mov    %eax,(%esp)
 804d8ac:	e8 bf bd ff ff       	call   8049670 <fwrite@plt>
 804d8b1:	85 c0                	test   %eax,%eax
 804d8b3:	75 16                	jne    804d8cb <decrypt_general+0x971>
 804d8b5:	c7 04 24 30 55 05 08 	movl   $0x8055530,(%esp)
 804d8bc:	e8 9f bd ff ff       	call   8049660 <perror@plt>
 804d8c1:	b8 01 00 00 00       	mov    $0x1,%eax
 804d8c6:	e9 7b 0a 00 00       	jmp    804e346 <decrypt_general+0x13ec>
 804d8cb:	a1 e8 a0 05 08       	mov    0x805a0e8,%eax
 804d8d0:	83 f8 01             	cmp    $0x1,%eax
 804d8d3:	75 0e                	jne    804d8e3 <decrypt_general+0x989>
 804d8d5:	8b 85 84 fa ff ff    	mov    -0x57c(%ebp),%eax
 804d8db:	89 04 24             	mov    %eax,(%esp)
 804d8de:	e8 bd bb ff ff       	call   80494a0 <fflush@plt>
 804d8e3:	8b 45 c0             	mov    -0x40(%ebp),%eax
 804d8e6:	89 44 24 08          	mov    %eax,0x8(%esp)
 804d8ea:	8b 45 d4             	mov    -0x2c(%ebp),%eax
 804d8ed:	89 44 24 04          	mov    %eax,0x4(%esp)
 804d8f1:	8b 45 a8             	mov    -0x58(%ebp),%eax
 804d8f4:	89 04 24             	mov    %eax,(%esp)
 804d8f7:	e8 e4 bb ff ff       	call   80494e0 <memmove@plt>
 804d8fc:	8b 45 ac             	mov    -0x54(%ebp),%eax
 804d8ff:	c1 e0 0a             	shl    $0xa,%eax
 804d902:	2b 45 c0             	sub    -0x40(%ebp),%eax
 804d905:	8b 4d c0             	mov    -0x40(%ebp),%ecx
 804d908:	8b 55 a8             	mov    -0x58(%ebp),%edx
 804d90b:	01 d1                	add    %edx,%ecx
 804d90d:	8b 55 b8             	mov    -0x48(%ebp),%edx
 804d910:	89 54 24 0c          	mov    %edx,0xc(%esp)
 804d914:	89 44 24 08          	mov    %eax,0x8(%esp)
 804d918:	c7 44 24 04 01 00 00 	movl   $0x1,0x4(%esp)
 804d91f:	00 
 804d920:	89 0c 24             	mov    %ecx,(%esp)
 804d923:	e8 88 bd ff ff       	call   80496b0 <fread@plt>
 804d928:	89 45 e0             	mov    %eax,-0x20(%ebp)
 804d92b:	8b 45 e0             	mov    -0x20(%ebp),%eax
 804d92e:	89 44 24 08          	mov    %eax,0x8(%esp)
 804d932:	8b 45 a8             	mov    -0x58(%ebp),%eax
 804d935:	89 44 24 04          	mov    %eax,0x4(%esp)
 804d939:	8b 45 b0             	mov    -0x50(%ebp),%eax
 804d93c:	89 04 24             	mov    %eax,(%esp)
 804d93f:	e8 2c be ff ff       	call   8049770 <mdecrypt_generic@plt>
 804d944:	8b 45 c0             	mov    -0x40(%ebp),%eax
 804d947:	8b 4d e0             	mov    -0x20(%ebp),%ecx
 804d94a:	8b 55 a8             	mov    -0x58(%ebp),%edx
 804d94d:	01 ca                	add    %ecx,%edx
 804d94f:	89 44 24 08          	mov    %eax,0x8(%esp)
 804d953:	89 54 24 04          	mov    %edx,0x4(%esp)
 804d957:	8b 45 d4             	mov    -0x2c(%ebp),%eax
 804d95a:	89 04 24             	mov    %eax,(%esp)
 804d95d:	e8 7e bb ff ff       	call   80494e0 <memmove@plt>
 804d962:	e9 67 fd ff ff       	jmp    804d6ce <decrypt_general+0x774>
 804d967:	8b 45 ac             	mov    -0x54(%ebp),%eax
 804d96a:	c1 e0 0a             	shl    $0xa,%eax
 804d96d:	89 45 94             	mov    %eax,-0x6c(%ebp)
 804d970:	c7 45 dc 00 00 00 00 	movl   $0x0,-0x24(%ebp)
 804d977:	8b 45 94             	mov    -0x6c(%ebp),%eax
 804d97a:	8b 55 b8             	mov    -0x48(%ebp),%edx
 804d97d:	89 54 24 0c          	mov    %edx,0xc(%esp)
 804d981:	89 44 24 08          	mov    %eax,0x8(%esp)
 804d985:	c7 44 24 04 01 00 00 	movl   $0x1,0x4(%esp)
 804d98c:	00 
 804d98d:	8b 45 a8             	mov    -0x58(%ebp),%eax
 804d990:	89 04 24             	mov    %eax,(%esp)
 804d993:	e8 18 bd ff ff       	call   80496b0 <fread@plt>
 804d998:	89 45 e0             	mov    %eax,-0x20(%ebp)
 804d99b:	8b 45 e0             	mov    -0x20(%ebp),%eax
 804d99e:	3b 45 94             	cmp    -0x6c(%ebp),%eax
 804d9a1:	75 5c                	jne    804d9ff <decrypt_general+0xaa5>
 804d9a3:	83 7d dc 01          	cmpl   $0x1,-0x24(%ebp)
 804d9a7:	75 56                	jne    804d9ff <decrypt_general+0xaa5>
 804d9a9:	8b 95 84 fa ff ff    	mov    -0x57c(%ebp),%edx
 804d9af:	8b 45 ac             	mov    -0x54(%ebp),%eax
 804d9b2:	89 54 24 0c          	mov    %edx,0xc(%esp)
 804d9b6:	89 44 24 08          	mov    %eax,0x8(%esp)
 804d9ba:	c7 44 24 04 01 00 00 	movl   $0x1,0x4(%esp)
 804d9c1:	00 
 804d9c2:	8b 45 a4             	mov    -0x5c(%ebp),%eax
 804d9c5:	89 04 24             	mov    %eax,(%esp)
 804d9c8:	e8 a3 bc ff ff       	call   8049670 <fwrite@plt>
 804d9cd:	85 c0                	test   %eax,%eax
 804d9cf:	75 16                	jne    804d9e7 <decrypt_general+0xa8d>
 804d9d1:	c7 04 24 30 55 05 08 	movl   $0x8055530,(%esp)
 804d9d8:	e8 83 bc ff ff       	call   8049660 <perror@plt>
 804d9dd:	b8 01 00 00 00       	mov    $0x1,%eax
 804d9e2:	e9 5f 09 00 00       	jmp    804e346 <decrypt_general+0x13ec>
 804d9e7:	a1 e8 a0 05 08       	mov    0x805a0e8,%eax
 804d9ec:	83 f8 01             	cmp    $0x1,%eax
 804d9ef:	75 0e                	jne    804d9ff <decrypt_general+0xaa5>
 804d9f1:	8b 85 84 fa ff ff    	mov    -0x57c(%ebp),%eax
 804d9f7:	89 04 24             	mov    %eax,(%esp)
 804d9fa:	e8 a1 ba ff ff       	call   80494a0 <fflush@plt>
 804d9ff:	8b 45 e0             	mov    -0x20(%ebp),%eax
 804da02:	89 44 24 08          	mov    %eax,0x8(%esp)
 804da06:	8b 45 a8             	mov    -0x58(%ebp),%eax
 804da09:	89 44 24 04          	mov    %eax,0x4(%esp)
 804da0d:	8b 45 b0             	mov    -0x50(%ebp),%eax
 804da10:	89 04 24             	mov    %eax,(%esp)
 804da13:	e8 58 bd ff ff       	call   8049770 <mdecrypt_generic@plt>
 804da18:	8b 45 e0             	mov    -0x20(%ebp),%eax
 804da1b:	3b 45 94             	cmp    -0x6c(%ebp),%eax
 804da1e:	0f 84 16 02 00 00    	je     804dc3a <decrypt_general+0xce0>
 804da24:	8b 45 b8             	mov    -0x48(%ebp),%eax
 804da27:	89 04 24             	mov    %eax,(%esp)
 804da2a:	e8 f1 ba ff ff       	call   8049520 <ferror@plt>
 804da2f:	85 c0                	test   %eax,%eax
 804da31:	74 16                	je     804da49 <decrypt_general+0xaef>
 804da33:	c7 04 24 2a 55 05 08 	movl   $0x805552a,(%esp)
 804da3a:	e8 21 bc ff ff       	call   8049660 <perror@plt>
 804da3f:	b8 01 00 00 00       	mov    $0x1,%eax
 804da44:	e9 fd 08 00 00       	jmp    804e346 <decrypt_general+0x13ec>
 804da49:	8b 45 e0             	mov    -0x20(%ebp),%eax
 804da4c:	99                   	cltd   
 804da4d:	f7 7d ac             	idivl  -0x54(%ebp)
 804da50:	89 d0                	mov    %edx,%eax
 804da52:	85 c0                	test   %eax,%eax
 804da54:	74 1e                	je     804da74 <decrypt_general+0xb1a>
 804da56:	c7 04 24 8d 55 05 08 	movl   $0x805558d,(%esp)
 804da5d:	e8 4e bd ff ff       	call   80497b0 <gettext@plt>
 804da62:	89 04 24             	mov    %eax,(%esp)
 804da65:	e8 10 1a 00 00       	call   804f47a <err_crit>
 804da6a:	b8 01 00 00 00       	mov    $0x1,%eax
 804da6f:	e9 d2 08 00 00       	jmp    804e346 <decrypt_general+0x13ec>
 804da74:	83 7d e0 00          	cmpl   $0x0,-0x20(%ebp)
 804da78:	0f 85 84 00 00 00    	jne    804db02 <decrypt_general+0xba8>
 804da7e:	83 7d dc 00          	cmpl   $0x0,-0x24(%ebp)
 804da82:	74 5d                	je     804dae1 <decrypt_general+0xb87>
 804da84:	8b 95 84 fa ff ff    	mov    -0x57c(%ebp),%edx
 804da8a:	8b 45 ac             	mov    -0x54(%ebp),%eax
 804da8d:	8d 48 ff             	lea    -0x1(%eax),%ecx
 804da90:	8b 45 a4             	mov    -0x5c(%ebp),%eax
 804da93:	01 c8                	add    %ecx,%eax
 804da95:	0f b6 00             	movzbl (%eax),%eax
 804da98:	0f b6 c0             	movzbl %al,%eax
 804da9b:	89 54 24 0c          	mov    %edx,0xc(%esp)
 804da9f:	89 44 24 08          	mov    %eax,0x8(%esp)
 804daa3:	c7 44 24 04 01 00 00 	movl   $0x1,0x4(%esp)
 804daaa:	00 
 804daab:	8b 45 a4             	mov    -0x5c(%ebp),%eax
 804daae:	89 04 24             	mov    %eax,(%esp)
 804dab1:	e8 ba bb ff ff       	call   8049670 <fwrite@plt>
 804dab6:	8b 55 ac             	mov    -0x54(%ebp),%edx
 804dab9:	8d 4a ff             	lea    -0x1(%edx),%ecx
 804dabc:	8b 55 a4             	mov    -0x5c(%ebp),%edx
 804dabf:	01 ca                	add    %ecx,%edx
 804dac1:	0f b6 12             	movzbl (%edx),%edx
 804dac4:	0f b6 d2             	movzbl %dl,%edx
 804dac7:	39 d0                	cmp    %edx,%eax
 804dac9:	74 16                	je     804dae1 <decrypt_general+0xb87>
 804dacb:	c7 04 24 30 55 05 08 	movl   $0x8055530,(%esp)
 804dad2:	e8 89 bb ff ff       	call   8049660 <perror@plt>
 804dad7:	b8 01 00 00 00       	mov    $0x1,%eax
 804dadc:	e9 65 08 00 00       	jmp    804e346 <decrypt_general+0x13ec>
 804dae1:	a1 e8 a0 05 08       	mov    0x805a0e8,%eax
 804dae6:	83 f8 01             	cmp    $0x1,%eax
 804dae9:	0f 85 46 01 00 00    	jne    804dc35 <decrypt_general+0xcdb>
 804daef:	8b 85 84 fa ff ff    	mov    -0x57c(%ebp),%eax
 804daf5:	89 04 24             	mov    %eax,(%esp)
 804daf8:	e8 a3 b9 ff ff       	call   80494a0 <fflush@plt>
 804dafd:	e9 cd 01 00 00       	jmp    804dccf <decrypt_general+0xd75>
 804db02:	83 7d dc 00          	cmpl   $0x0,-0x24(%ebp)
 804db06:	74 3e                	je     804db46 <decrypt_general+0xbec>
 804db08:	8b 95 84 fa ff ff    	mov    -0x57c(%ebp),%edx
 804db0e:	8b 45 ac             	mov    -0x54(%ebp),%eax
 804db11:	89 54 24 0c          	mov    %edx,0xc(%esp)
 804db15:	89 44 24 08          	mov    %eax,0x8(%esp)
 804db19:	c7 44 24 04 01 00 00 	movl   $0x1,0x4(%esp)
 804db20:	00 
 804db21:	8b 45 a4             	mov    -0x5c(%ebp),%eax
 804db24:	89 04 24             	mov    %eax,(%esp)
 804db27:	e8 44 bb ff ff       	call   8049670 <fwrite@plt>
 804db2c:	85 c0                	test   %eax,%eax
 804db2e:	75 16                	jne    804db46 <decrypt_general+0xbec>
 804db30:	c7 04 24 30 55 05 08 	movl   $0x8055530,(%esp)
 804db37:	e8 24 bb ff ff       	call   8049660 <perror@plt>
 804db3c:	b8 01 00 00 00       	mov    $0x1,%eax
 804db41:	e9 00 08 00 00       	jmp    804e346 <decrypt_general+0x13ec>
 804db46:	8b 95 84 fa ff ff    	mov    -0x57c(%ebp),%edx
 804db4c:	8b 45 ac             	mov    -0x54(%ebp),%eax
 804db4f:	8b 4d e0             	mov    -0x20(%ebp),%ecx
 804db52:	29 c1                	sub    %eax,%ecx
 804db54:	89 c8                	mov    %ecx,%eax
 804db56:	89 54 24 0c          	mov    %edx,0xc(%esp)
 804db5a:	89 44 24 08          	mov    %eax,0x8(%esp)
 804db5e:	c7 44 24 04 01 00 00 	movl   $0x1,0x4(%esp)
 804db65:	00 
 804db66:	8b 45 a8             	mov    -0x58(%ebp),%eax
 804db69:	89 04 24             	mov    %eax,(%esp)
 804db6c:	e8 ff ba ff ff       	call   8049670 <fwrite@plt>
 804db71:	8b 55 ac             	mov    -0x54(%ebp),%edx
 804db74:	8b 4d e0             	mov    -0x20(%ebp),%ecx
 804db77:	29 d1                	sub    %edx,%ecx
 804db79:	89 ca                	mov    %ecx,%edx
 804db7b:	39 d0                	cmp    %edx,%eax
 804db7d:	74 16                	je     804db95 <decrypt_general+0xc3b>
 804db7f:	c7 04 24 30 55 05 08 	movl   $0x8055530,(%esp)
 804db86:	e8 d5 ba ff ff       	call   8049660 <perror@plt>
 804db8b:	b8 01 00 00 00       	mov    $0x1,%eax
 804db90:	e9 b1 07 00 00       	jmp    804e346 <decrypt_general+0x13ec>
 804db95:	a1 e8 a0 05 08       	mov    0x805a0e8,%eax
 804db9a:	83 f8 01             	cmp    $0x1,%eax
 804db9d:	75 0e                	jne    804dbad <decrypt_general+0xc53>
 804db9f:	8b 85 84 fa ff ff    	mov    -0x57c(%ebp),%eax
 804dba5:	89 04 24             	mov    %eax,(%esp)
 804dba8:	e8 f3 b8 ff ff       	call   80494a0 <fflush@plt>
 804dbad:	8b 95 84 fa ff ff    	mov    -0x57c(%ebp),%edx
 804dbb3:	8b 45 e0             	mov    -0x20(%ebp),%eax
 804dbb6:	8d 48 ff             	lea    -0x1(%eax),%ecx
 804dbb9:	8b 45 a8             	mov    -0x58(%ebp),%eax
 804dbbc:	01 c8                	add    %ecx,%eax
 804dbbe:	0f b6 00             	movzbl (%eax),%eax
 804dbc1:	0f b6 c0             	movzbl %al,%eax
 804dbc4:	8b 4d ac             	mov    -0x54(%ebp),%ecx
 804dbc7:	8b 5d e0             	mov    -0x20(%ebp),%ebx
 804dbca:	29 cb                	sub    %ecx,%ebx
 804dbcc:	89 d9                	mov    %ebx,%ecx
 804dbce:	89 cb                	mov    %ecx,%ebx
 804dbd0:	8b 4d a8             	mov    -0x58(%ebp),%ecx
 804dbd3:	01 d9                	add    %ebx,%ecx
 804dbd5:	89 54 24 0c          	mov    %edx,0xc(%esp)
 804dbd9:	89 44 24 08          	mov    %eax,0x8(%esp)
 804dbdd:	c7 44 24 04 01 00 00 	movl   $0x1,0x4(%esp)
 804dbe4:	00 
 804dbe5:	89 0c 24             	mov    %ecx,(%esp)
 804dbe8:	e8 83 ba ff ff       	call   8049670 <fwrite@plt>
 804dbed:	8b 55 e0             	mov    -0x20(%ebp),%edx
 804dbf0:	8d 4a ff             	lea    -0x1(%edx),%ecx
 804dbf3:	8b 55 a8             	mov    -0x58(%ebp),%edx
 804dbf6:	01 ca                	add    %ecx,%edx
 804dbf8:	0f b6 12             	movzbl (%edx),%edx
 804dbfb:	0f b6 d2             	movzbl %dl,%edx
 804dbfe:	39 d0                	cmp    %edx,%eax
 804dc00:	74 16                	je     804dc18 <decrypt_general+0xcbe>
 804dc02:	c7 04 24 30 55 05 08 	movl   $0x8055530,(%esp)
 804dc09:	e8 52 ba ff ff       	call   8049660 <perror@plt>
 804dc0e:	b8 01 00 00 00       	mov    $0x1,%eax
 804dc13:	e9 2e 07 00 00       	jmp    804e346 <decrypt_general+0x13ec>
 804dc18:	a1 e8 a0 05 08       	mov    0x805a0e8,%eax
 804dc1d:	83 f8 01             	cmp    $0x1,%eax
 804dc20:	75 13                	jne    804dc35 <decrypt_general+0xcdb>
 804dc22:	8b 85 84 fa ff ff    	mov    -0x57c(%ebp),%eax
 804dc28:	89 04 24             	mov    %eax,(%esp)
 804dc2b:	e8 70 b8 ff ff       	call   80494a0 <fflush@plt>
 804dc30:	e9 9a 00 00 00       	jmp    804dccf <decrypt_general+0xd75>
 804dc35:	e9 95 00 00 00       	jmp    804dccf <decrypt_general+0xd75>
 804dc3a:	8b 45 ac             	mov    -0x54(%ebp),%eax
 804dc3d:	8b 55 ac             	mov    -0x54(%ebp),%edx
 804dc40:	8b 4d 94             	mov    -0x6c(%ebp),%ecx
 804dc43:	29 d1                	sub    %edx,%ecx
 804dc45:	89 ca                	mov    %ecx,%edx
 804dc47:	89 d1                	mov    %edx,%ecx
 804dc49:	8b 55 a8             	mov    -0x58(%ebp),%edx
 804dc4c:	01 ca                	add    %ecx,%edx
 804dc4e:	89 44 24 08          	mov    %eax,0x8(%esp)
 804dc52:	89 54 24 04          	mov    %edx,0x4(%esp)
 804dc56:	8b 45 a4             	mov    -0x5c(%ebp),%eax
 804dc59:	89 04 24             	mov    %eax,(%esp)
 804dc5c:	e8 7f b8 ff ff       	call   80494e0 <memmove@plt>
 804dc61:	c7 45 dc 01 00 00 00 	movl   $0x1,-0x24(%ebp)
 804dc68:	8b 95 84 fa ff ff    	mov    -0x57c(%ebp),%edx
 804dc6e:	8b 45 ac             	mov    -0x54(%ebp),%eax
 804dc71:	8b 4d 94             	mov    -0x6c(%ebp),%ecx
 804dc74:	29 c1                	sub    %eax,%ecx
 804dc76:	89 c8                	mov    %ecx,%eax
 804dc78:	89 54 24 0c          	mov    %edx,0xc(%esp)
 804dc7c:	89 44 24 08          	mov    %eax,0x8(%esp)
 804dc80:	c7 44 24 04 01 00 00 	movl   $0x1,0x4(%esp)
 804dc87:	00 
 804dc88:	8b 45 a8             	mov    -0x58(%ebp),%eax
 804dc8b:	89 04 24             	mov    %eax,(%esp)
 804dc8e:	e8 dd b9 ff ff       	call   8049670 <fwrite@plt>
 804dc93:	85 c0                	test   %eax,%eax
 804dc95:	75 16                	jne    804dcad <decrypt_general+0xd53>
 804dc97:	c7 04 24 30 55 05 08 	movl   $0x8055530,(%esp)
 804dc9e:	e8 bd b9 ff ff       	call   8049660 <perror@plt>
 804dca3:	b8 01 00 00 00       	mov    $0x1,%eax
 804dca8:	e9 99 06 00 00       	jmp    804e346 <decrypt_general+0x13ec>
 804dcad:	a1 e8 a0 05 08       	mov    0x805a0e8,%eax
 804dcb2:	83 f8 01             	cmp    $0x1,%eax
 804dcb5:	75 13                	jne    804dcca <decrypt_general+0xd70>
 804dcb7:	8b 85 84 fa ff ff    	mov    -0x57c(%ebp),%eax
 804dcbd:	89 04 24             	mov    %eax,(%esp)
 804dcc0:	e8 db b7 ff ff       	call   80494a0 <fflush@plt>
 804dcc5:	e9 ad fc ff ff       	jmp    804d977 <decrypt_general+0xa1d>
 804dcca:	e9 a8 fc ff ff       	jmp    804d977 <decrypt_general+0xa1d>
 804dccf:	e9 77 03 00 00       	jmp    804e04b <decrypt_general+0x10f1>
 804dcd4:	a1 d4 a0 05 08       	mov    0x805a0d4,%eax
 804dcd9:	85 c0                	test   %eax,%eax
 804dcdb:	0f 85 39 02 00 00    	jne    804df1a <decrypt_general+0xfc0>
 804dce1:	8b 45 b8             	mov    -0x48(%ebp),%eax
 804dce4:	89 44 24 0c          	mov    %eax,0xc(%esp)
 804dce8:	c7 44 24 08 00 04 00 	movl   $0x400,0x8(%esp)
 804dcef:	00 
 804dcf0:	c7 44 24 04 01 00 00 	movl   $0x1,0x4(%esp)
 804dcf7:	00 
 804dcf8:	8b 45 a8             	mov    -0x58(%ebp),%eax
 804dcfb:	89 04 24             	mov    %eax,(%esp)
 804dcfe:	e8 ad b9 ff ff       	call   80496b0 <fread@plt>
 804dd03:	89 45 e0             	mov    %eax,-0x20(%ebp)
 804dd06:	8b 45 e0             	mov    -0x20(%ebp),%eax
 804dd09:	89 44 24 08          	mov    %eax,0x8(%esp)
 804dd0d:	8b 45 a8             	mov    -0x58(%ebp),%eax
 804dd10:	89 44 24 04          	mov    %eax,0x4(%esp)
 804dd14:	8b 45 b0             	mov    -0x50(%ebp),%eax
 804dd17:	89 04 24             	mov    %eax,(%esp)
 804dd1a:	e8 51 ba ff ff       	call   8049770 <mdecrypt_generic@plt>
 804dd1f:	81 7d e0 00 04 00 00 	cmpl   $0x400,-0x20(%ebp)
 804dd26:	0f 84 4e 01 00 00    	je     804de7a <decrypt_general+0xf20>
 804dd2c:	8b 45 b8             	mov    -0x48(%ebp),%eax
 804dd2f:	89 04 24             	mov    %eax,(%esp)
 804dd32:	e8 e9 b7 ff ff       	call   8049520 <ferror@plt>
 804dd37:	85 c0                	test   %eax,%eax
 804dd39:	74 16                	je     804dd51 <decrypt_general+0xdf7>
 804dd3b:	c7 04 24 2a 55 05 08 	movl   $0x805552a,(%esp)
 804dd42:	e8 19 b9 ff ff       	call   8049660 <perror@plt>
 804dd47:	b8 01 00 00 00       	mov    $0x1,%eax
 804dd4c:	e9 f5 05 00 00       	jmp    804e346 <decrypt_general+0x13ec>
 804dd51:	8b 45 e0             	mov    -0x20(%ebp),%eax
 804dd54:	3b 45 c4             	cmp    -0x3c(%ebp),%eax
 804dd57:	7d 5d                	jge    804ddb6 <decrypt_general+0xe5c>
 804dd59:	8b 45 e0             	mov    -0x20(%ebp),%eax
 804dd5c:	8b 55 c4             	mov    -0x3c(%ebp),%edx
 804dd5f:	29 c2                	sub    %eax,%edx
 804dd61:	89 d0                	mov    %edx,%eax
 804dd63:	ba 00 04 00 00       	mov    $0x400,%edx
 804dd68:	89 d1                	mov    %edx,%ecx
 804dd6a:	2b 4d c4             	sub    -0x3c(%ebp),%ecx
 804dd6d:	8b 55 e0             	mov    -0x20(%ebp),%edx
 804dd70:	01 d1                	add    %edx,%ecx
 804dd72:	8d 95 8c fb ff ff    	lea    -0x474(%ebp),%edx
 804dd78:	01 ca                	add    %ecx,%edx
 804dd7a:	89 44 24 08          	mov    %eax,0x8(%esp)
 804dd7e:	89 54 24 04          	mov    %edx,0x4(%esp)
 804dd82:	8b 45 98             	mov    -0x68(%ebp),%eax
 804dd85:	89 04 24             	mov    %eax,(%esp)
 804dd88:	e8 53 b7 ff ff       	call   80494e0 <memmove@plt>
 804dd8d:	8b 45 e0             	mov    -0x20(%ebp),%eax
 804dd90:	8b 55 e0             	mov    -0x20(%ebp),%edx
 804dd93:	8b 4d c4             	mov    -0x3c(%ebp),%ecx
 804dd96:	29 d1                	sub    %edx,%ecx
 804dd98:	89 ca                	mov    %ecx,%edx
 804dd9a:	89 d1                	mov    %edx,%ecx
 804dd9c:	8b 55 98             	mov    -0x68(%ebp),%edx
 804dd9f:	01 ca                	add    %ecx,%edx
 804dda1:	89 44 24 08          	mov    %eax,0x8(%esp)
 804dda5:	8b 45 a8             	mov    -0x58(%ebp),%eax
 804dda8:	89 44 24 04          	mov    %eax,0x4(%esp)
 804ddac:	89 14 24             	mov    %edx,(%esp)
 804ddaf:	e8 2c b7 ff ff       	call   80494e0 <memmove@plt>
 804ddb4:	eb 27                	jmp    804dddd <decrypt_general+0xe83>
 804ddb6:	8b 45 c4             	mov    -0x3c(%ebp),%eax
 804ddb9:	8b 55 c4             	mov    -0x3c(%ebp),%edx
 804ddbc:	8b 4d e0             	mov    -0x20(%ebp),%ecx
 804ddbf:	29 d1                	sub    %edx,%ecx
 804ddc1:	89 ca                	mov    %ecx,%edx
 804ddc3:	89 d1                	mov    %edx,%ecx
 804ddc5:	8b 55 a8             	mov    -0x58(%ebp),%edx
 804ddc8:	01 ca                	add    %ecx,%edx
 804ddca:	89 44 24 08          	mov    %eax,0x8(%esp)
 804ddce:	89 54 24 04          	mov    %edx,0x4(%esp)
 804ddd2:	8b 45 98             	mov    -0x68(%ebp),%eax
 804ddd5:	89 04 24             	mov    %eax,(%esp)
 804ddd8:	e8 03 b7 ff ff       	call   80494e0 <memmove@plt>
 804dddd:	8b 45 e0             	mov    -0x20(%ebp),%eax
 804dde0:	3b 45 c4             	cmp    -0x3c(%ebp),%eax
 804dde3:	0f 8e 8c 00 00 00    	jle    804de75 <decrypt_general+0xf1b>
 804dde9:	8b 45 c4             	mov    -0x3c(%ebp),%eax
 804ddec:	8b 55 e0             	mov    -0x20(%ebp),%edx
 804ddef:	29 c2                	sub    %eax,%edx
 804ddf1:	89 d0                	mov    %edx,%eax
 804ddf3:	89 44 24 08          	mov    %eax,0x8(%esp)
 804ddf7:	8b 45 a8             	mov    -0x58(%ebp),%eax
 804ddfa:	89 44 24 04          	mov    %eax,0x4(%esp)
 804ddfe:	8b 45 e4             	mov    -0x1c(%ebp),%eax
 804de01:	89 04 24             	mov    %eax,(%esp)
 804de04:	e8 b7 b6 ff ff       	call   80494c0 <mhash@plt>
 804de09:	8b 95 84 fa ff ff    	mov    -0x57c(%ebp),%edx
 804de0f:	8b 45 c4             	mov    -0x3c(%ebp),%eax
 804de12:	8b 4d e0             	mov    -0x20(%ebp),%ecx
 804de15:	29 c1                	sub    %eax,%ecx
 804de17:	89 c8                	mov    %ecx,%eax
 804de19:	89 54 24 0c          	mov    %edx,0xc(%esp)
 804de1d:	89 44 24 08          	mov    %eax,0x8(%esp)
 804de21:	c7 44 24 04 01 00 00 	movl   $0x1,0x4(%esp)
 804de28:	00 
 804de29:	8b 45 a8             	mov    -0x58(%ebp),%eax
 804de2c:	89 04 24             	mov    %eax,(%esp)
 804de2f:	e8 3c b8 ff ff       	call   8049670 <fwrite@plt>
 804de34:	8b 55 c4             	mov    -0x3c(%ebp),%edx
 804de37:	8b 4d e0             	mov    -0x20(%ebp),%ecx
 804de3a:	29 d1                	sub    %edx,%ecx
 804de3c:	89 ca                	mov    %ecx,%edx
 804de3e:	39 d0                	cmp    %edx,%eax
 804de40:	74 16                	je     804de58 <decrypt_general+0xefe>
 804de42:	c7 04 24 30 55 05 08 	movl   $0x8055530,(%esp)
 804de49:	e8 12 b8 ff ff       	call   8049660 <perror@plt>
 804de4e:	b8 01 00 00 00       	mov    $0x1,%eax
 804de53:	e9 ee 04 00 00       	jmp    804e346 <decrypt_general+0x13ec>
 804de58:	a1 e8 a0 05 08       	mov    0x805a0e8,%eax
 804de5d:	83 f8 01             	cmp    $0x1,%eax
 804de60:	75 13                	jne    804de75 <decrypt_general+0xf1b>
 804de62:	8b 85 84 fa ff ff    	mov    -0x57c(%ebp),%eax
 804de68:	89 04 24             	mov    %eax,(%esp)
 804de6b:	e8 30 b6 ff ff       	call   80494a0 <fflush@plt>
 804de70:	e9 a0 00 00 00       	jmp    804df15 <decrypt_general+0xfbb>
 804de75:	e9 9b 00 00 00       	jmp    804df15 <decrypt_general+0xfbb>
 804de7a:	c7 44 24 08 00 04 00 	movl   $0x400,0x8(%esp)
 804de81:	00 
 804de82:	8b 45 a8             	mov    -0x58(%ebp),%eax
 804de85:	89 44 24 04          	mov    %eax,0x4(%esp)
 804de89:	8d 85 8c fb ff ff    	lea    -0x474(%ebp),%eax
 804de8f:	89 04 24             	mov    %eax,(%esp)
 804de92:	e8 49 b6 ff ff       	call   80494e0 <memmove@plt>
 804de97:	c7 44 24 08 00 04 00 	movl   $0x400,0x8(%esp)
 804de9e:	00 
 804de9f:	8b 45 a8             	mov    -0x58(%ebp),%eax
 804dea2:	89 44 24 04          	mov    %eax,0x4(%esp)
 804dea6:	8b 45 e4             	mov    -0x1c(%ebp),%eax
 804dea9:	89 04 24             	mov    %eax,(%esp)
 804deac:	e8 0f b6 ff ff       	call   80494c0 <mhash@plt>
 804deb1:	8b 85 84 fa ff ff    	mov    -0x57c(%ebp),%eax
 804deb7:	89 44 24 0c          	mov    %eax,0xc(%esp)
 804debb:	c7 44 24 08 00 04 00 	movl   $0x400,0x8(%esp)
 804dec2:	00 
 804dec3:	c7 44 24 04 01 00 00 	movl   $0x1,0x4(%esp)
 804deca:	00 
 804decb:	8b 45 a8             	mov    -0x58(%ebp),%eax
 804dece:	89 04 24             	mov    %eax,(%esp)
 804ded1:	e8 9a b7 ff ff       	call   8049670 <fwrite@plt>
 804ded6:	3d 00 04 00 00       	cmp    $0x400,%eax
 804dedb:	74 16                	je     804def3 <decrypt_general+0xf99>
 804dedd:	c7 04 24 30 55 05 08 	movl   $0x8055530,(%esp)
 804dee4:	e8 77 b7 ff ff       	call   8049660 <perror@plt>
 804dee9:	b8 01 00 00 00       	mov    $0x1,%eax
 804deee:	e9 53 04 00 00       	jmp    804e346 <decrypt_general+0x13ec>
 804def3:	a1 e8 a0 05 08       	mov    0x805a0e8,%eax
 804def8:	83 f8 01             	cmp    $0x1,%eax
 804defb:	75 13                	jne    804df10 <decrypt_general+0xfb6>
 804defd:	8b 85 84 fa ff ff    	mov    -0x57c(%ebp),%eax
 804df03:	89 04 24             	mov    %eax,(%esp)
 804df06:	e8 95 b5 ff ff       	call   80494a0 <fflush@plt>
 804df0b:	e9 d1 fd ff ff       	jmp    804dce1 <decrypt_general+0xd87>
 804df10:	e9 cc fd ff ff       	jmp    804dce1 <decrypt_general+0xd87>
 804df15:	e9 31 01 00 00       	jmp    804e04b <decrypt_general+0x10f1>
 804df1a:	8b 45 b8             	mov    -0x48(%ebp),%eax
 804df1d:	89 44 24 0c          	mov    %eax,0xc(%esp)
 804df21:	c7 44 24 08 00 04 00 	movl   $0x400,0x8(%esp)
 804df28:	00 
 804df29:	c7 44 24 04 01 00 00 	movl   $0x1,0x4(%esp)
 804df30:	00 
 804df31:	8b 45 a8             	mov    -0x58(%ebp),%eax
 804df34:	89 04 24             	mov    %eax,(%esp)
 804df37:	e8 74 b7 ff ff       	call   80496b0 <fread@plt>
 804df3c:	89 45 e0             	mov    %eax,-0x20(%ebp)
 804df3f:	8b 45 e0             	mov    -0x20(%ebp),%eax
 804df42:	89 44 24 08          	mov    %eax,0x8(%esp)
 804df46:	8b 45 a8             	mov    -0x58(%ebp),%eax
 804df49:	89 44 24 04          	mov    %eax,0x4(%esp)
 804df4d:	8b 45 b0             	mov    -0x50(%ebp),%eax
 804df50:	89 04 24             	mov    %eax,(%esp)
 804df53:	e8 18 b8 ff ff       	call   8049770 <mdecrypt_generic@plt>
 804df58:	81 7d e0 00 04 00 00 	cmpl   $0x400,-0x20(%ebp)
 804df5f:	0f 84 82 00 00 00    	je     804dfe7 <decrypt_general+0x108d>
 804df65:	8b 45 b8             	mov    -0x48(%ebp),%eax
 804df68:	89 04 24             	mov    %eax,(%esp)
 804df6b:	e8 b0 b5 ff ff       	call   8049520 <ferror@plt>
 804df70:	85 c0                	test   %eax,%eax
 804df72:	74 16                	je     804df8a <decrypt_general+0x1030>
 804df74:	c7 04 24 2a 55 05 08 	movl   $0x805552a,(%esp)
 804df7b:	e8 e0 b6 ff ff       	call   8049660 <perror@plt>
 804df80:	b8 01 00 00 00       	mov    $0x1,%eax
 804df85:	e9 bc 03 00 00       	jmp    804e346 <decrypt_general+0x13ec>
 804df8a:	8b 95 84 fa ff ff    	mov    -0x57c(%ebp),%edx
 804df90:	8b 45 e0             	mov    -0x20(%ebp),%eax
 804df93:	89 54 24 0c          	mov    %edx,0xc(%esp)
 804df97:	89 44 24 08          	mov    %eax,0x8(%esp)
 804df9b:	c7 44 24 04 01 00 00 	movl   $0x1,0x4(%esp)
 804dfa2:	00 
 804dfa3:	8b 45 a8             	mov    -0x58(%ebp),%eax
 804dfa6:	89 04 24             	mov    %eax,(%esp)
 804dfa9:	e8 c2 b6 ff ff       	call   8049670 <fwrite@plt>
 804dfae:	8b 55 e0             	mov    -0x20(%ebp),%edx
 804dfb1:	39 d0                	cmp    %edx,%eax
 804dfb3:	74 16                	je     804dfcb <decrypt_general+0x1071>
 804dfb5:	c7 04 24 30 55 05 08 	movl   $0x8055530,(%esp)
 804dfbc:	e8 9f b6 ff ff       	call   8049660 <perror@plt>
 804dfc1:	b8 01 00 00 00       	mov    $0x1,%eax
 804dfc6:	e9 7b 03 00 00       	jmp    804e346 <decrypt_general+0x13ec>
 804dfcb:	a1 e8 a0 05 08       	mov    0x805a0e8,%eax
 804dfd0:	83 f8 01             	cmp    $0x1,%eax
 804dfd3:	75 10                	jne    804dfe5 <decrypt_general+0x108b>
 804dfd5:	8b 85 84 fa ff ff    	mov    -0x57c(%ebp),%eax
 804dfdb:	89 04 24             	mov    %eax,(%esp)
 804dfde:	e8 bd b4 ff ff       	call   80494a0 <fflush@plt>
 804dfe3:	eb 66                	jmp    804e04b <decrypt_general+0x10f1>
 804dfe5:	eb 64                	jmp    804e04b <decrypt_general+0x10f1>
 804dfe7:	8b 85 84 fa ff ff    	mov    -0x57c(%ebp),%eax
 804dfed:	89 44 24 0c          	mov    %eax,0xc(%esp)
 804dff1:	c7 44 24 08 00 04 00 	movl   $0x400,0x8(%esp)
 804dff8:	00 
 804dff9:	c7 44 24 04 01 00 00 	movl   $0x1,0x4(%esp)
 804e000:	00 
 804e001:	8b 45 a8             	mov    -0x58(%ebp),%eax
 804e004:	89 04 24             	mov    %eax,(%esp)
 804e007:	e8 64 b6 ff ff       	call   8049670 <fwrite@plt>
 804e00c:	3d 00 04 00 00       	cmp    $0x400,%eax
 804e011:	74 16                	je     804e029 <decrypt_general+0x10cf>
 804e013:	c7 04 24 30 55 05 08 	movl   $0x8055530,(%esp)
 804e01a:	e8 41 b6 ff ff       	call   8049660 <perror@plt>
 804e01f:	b8 01 00 00 00       	mov    $0x1,%eax
 804e024:	e9 1d 03 00 00       	jmp    804e346 <decrypt_general+0x13ec>
 804e029:	a1 e8 a0 05 08       	mov    0x805a0e8,%eax
 804e02e:	83 f8 01             	cmp    $0x1,%eax
 804e031:	75 13                	jne    804e046 <decrypt_general+0x10ec>
 804e033:	8b 85 84 fa ff ff    	mov    -0x57c(%ebp),%eax
 804e039:	89 04 24             	mov    %eax,(%esp)
 804e03c:	e8 5f b4 ff ff       	call   80494a0 <fflush@plt>
 804e041:	e9 d4 fe ff ff       	jmp    804df1a <decrypt_general+0xfc0>
 804e046:	e9 cf fe ff ff       	jmp    804df1a <decrypt_general+0xfc0>
 804e04b:	a1 a8 a0 05 08       	mov    0x805a0a8,%eax
 804e050:	85 c0                	test   %eax,%eax
 804e052:	75 42                	jne    804e096 <decrypt_general+0x113c>
 804e054:	8b 45 b8             	mov    -0x48(%ebp),%eax
 804e057:	89 04 24             	mov    %eax,(%esp)
 804e05a:	e8 41 b4 ff ff       	call   80494a0 <fflush@plt>
 804e05f:	8b 85 84 fa ff ff    	mov    -0x57c(%ebp),%eax
 804e065:	89 04 24             	mov    %eax,(%esp)
 804e068:	e8 33 b4 ff ff       	call   80494a0 <fflush@plt>
 804e06d:	8b 45 b8             	mov    -0x48(%ebp),%eax
 804e070:	89 04 24             	mov    %eax,(%esp)
 804e073:	e8 78 b8 ff ff       	call   80498f0 <fileno@plt>
 804e078:	89 04 24             	mov    %eax,(%esp)
 804e07b:	e8 63 08 00 00       	call   804e8e3 <unlock>
 804e080:	8b 85 84 fa ff ff    	mov    -0x57c(%ebp),%eax
 804e086:	89 04 24             	mov    %eax,(%esp)
 804e089:	e8 62 b8 ff ff       	call   80498f0 <fileno@plt>
 804e08e:	89 04 24             	mov    %eax,(%esp)
 804e091:	e8 4d 08 00 00       	call   804e8e3 <unlock>
 804e096:	8b 85 84 fa ff ff    	mov    -0x57c(%ebp),%eax
 804e09c:	89 04 24             	mov    %eax,(%esp)
 804e09f:	e8 ac b4 ff ff       	call   8049550 <fclose@plt>
 804e0a4:	8b 45 b8             	mov    -0x48(%ebp),%eax
 804e0a7:	89 04 24             	mov    %eax,(%esp)
 804e0aa:	e8 a1 b4 ff ff       	call   8049550 <fclose@plt>
 804e0af:	83 7d c0 00          	cmpl   $0x0,-0x40(%ebp)
 804e0b3:	7e 1d                	jle    804e0d2 <decrypt_general+0x1178>
 804e0b5:	8b 45 c0             	mov    -0x40(%ebp),%eax
 804e0b8:	89 44 24 04          	mov    %eax,0x4(%esp)
 804e0bc:	8b 45 d4             	mov    -0x2c(%ebp),%eax
 804e0bf:	89 04 24             	mov    %eax,(%esp)
 804e0c2:	e8 e9 ca ff ff       	call   804abb0 <Bzero>
 804e0c7:	8b 45 d4             	mov    -0x2c(%ebp),%eax
 804e0ca:	89 04 24             	mov    %eax,(%esp)
 804e0cd:	e8 aa 12 00 00       	call   804f37c <_mcrypt_free>
 804e0d2:	8b 45 ac             	mov    -0x54(%ebp),%eax
 804e0d5:	89 44 24 04          	mov    %eax,0x4(%esp)
 804e0d9:	8b 45 a4             	mov    -0x5c(%ebp),%eax
 804e0dc:	89 04 24             	mov    %eax,(%esp)
 804e0df:	e8 cc ca ff ff       	call   804abb0 <Bzero>
 804e0e4:	8b 45 ac             	mov    -0x54(%ebp),%eax
 804e0e7:	c1 e0 0a             	shl    $0xa,%eax
 804e0ea:	89 44 24 04          	mov    %eax,0x4(%esp)
 804e0ee:	8b 45 a8             	mov    -0x58(%ebp),%eax
 804e0f1:	89 04 24             	mov    %eax,(%esp)
 804e0f4:	e8 b7 ca ff ff       	call   804abb0 <Bzero>
 804e0f9:	8b 45 a4             	mov    -0x5c(%ebp),%eax
 804e0fc:	89 04 24             	mov    %eax,(%esp)
 804e0ff:	e8 78 12 00 00       	call   804f37c <_mcrypt_free>
 804e104:	8b 45 a8             	mov    -0x58(%ebp),%eax
 804e107:	89 04 24             	mov    %eax,(%esp)
 804e10a:	e8 6d 12 00 00       	call   804f37c <_mcrypt_free>
 804e10f:	c7 44 24 04 00 04 00 	movl   $0x400,0x4(%esp)
 804e116:	00 
 804e117:	8d 85 8c fb ff ff    	lea    -0x474(%ebp),%eax
 804e11d:	89 04 24             	mov    %eax,(%esp)
 804e120:	e8 8b ca ff ff       	call   804abb0 <Bzero>
 804e125:	a1 a0 15 06 08       	mov    0x80615a0,%eax
 804e12a:	89 44 24 04          	mov    %eax,0x4(%esp)
 804e12e:	8b 45 d0             	mov    -0x30(%ebp),%eax
 804e131:	89 04 24             	mov    %eax,(%esp)
 804e134:	e8 56 12 00 00       	call   804f38f <_secure_mcrypt_free>
 804e139:	a1 d4 a0 05 08       	mov    0x805a0d4,%eax
 804e13e:	85 c0                	test   %eax,%eax
 804e140:	0f 85 f0 01 00 00    	jne    804e336 <decrypt_general+0x13dc>
 804e146:	8b 45 e4             	mov    -0x1c(%ebp),%eax
 804e149:	89 04 24             	mov    %eax,(%esp)
 804e14c:	e8 4f b8 ff ff       	call   80499a0 <mhash_end@plt>
 804e151:	89 45 90             	mov    %eax,-0x70(%ebp)
 804e154:	8b 45 b0             	mov    -0x50(%ebp),%eax
 804e157:	89 04 24             	mov    %eax,(%esp)
 804e15a:	e8 31 b8 ff ff       	call   8049990 <mcrypt_enc_is_block_mode@plt>
 804e15f:	83 f8 01             	cmp    $0x1,%eax
 804e162:	75 0e                	jne    804e172 <decrypt_general+0x1218>
 804e164:	8b 45 c4             	mov    -0x3c(%ebp),%eax
 804e167:	3b 45 ac             	cmp    -0x54(%ebp),%eax
 804e16a:	7e 06                	jle    804e172 <decrypt_general+0x1218>
 804e16c:	8b 45 ac             	mov    -0x54(%ebp),%eax
 804e16f:	89 45 c4             	mov    %eax,-0x3c(%ebp)
 804e172:	8b 45 c4             	mov    -0x3c(%ebp),%eax
 804e175:	89 44 24 08          	mov    %eax,0x8(%esp)
 804e179:	8b 45 98             	mov    -0x68(%ebp),%eax
 804e17c:	89 44 24 04          	mov    %eax,0x4(%esp)
 804e180:	8b 45 90             	mov    -0x70(%ebp),%eax
 804e183:	89 04 24             	mov    %eax,(%esp)
 804e186:	e8 d5 b3 ff ff       	call   8049560 <memcmp@plt>
 804e18b:	85 c0                	test   %eax,%eax
 804e18d:	0f 85 5c 01 00 00    	jne    804e2ef <decrypt_general+0x1395>
 804e193:	a1 a8 a0 05 08       	mov    0x805a0a8,%eax
 804e198:	85 c0                	test   %eax,%eax
 804e19a:	0f 85 96 01 00 00    	jne    804e336 <decrypt_general+0x13dc>
 804e1a0:	a1 e0 a0 05 08       	mov    0x805a0e0,%eax
 804e1a5:	83 f8 01             	cmp    $0x1,%eax
 804e1a8:	74 0e                	je     804e1b8 <decrypt_general+0x125e>
 804e1aa:	a1 e4 a0 05 08       	mov    0x805a0e4,%eax
 804e1af:	83 f8 01             	cmp    $0x1,%eax
 804e1b2:	0f 85 7e 01 00 00    	jne    804e336 <decrypt_general+0x13dc>
 804e1b8:	e8 83 b7 ff ff       	call   8049940 <fork@plt>
 804e1bd:	89 45 8c             	mov    %eax,-0x74(%ebp)
 804e1c0:	83 7d 8c 00          	cmpl   $0x0,-0x74(%ebp)
 804e1c4:	0f 85 d0 00 00 00    	jne    804e29a <decrypt_general+0x1340>
 804e1ca:	a1 e0 a0 05 08       	mov    0x805a0e0,%eax
 804e1cf:	83 f8 01             	cmp    $0x1,%eax
 804e1d2:	75 5e                	jne    804e232 <decrypt_general+0x12d8>
 804e1d4:	c7 04 24 b8 55 05 08 	movl   $0x80555b8,(%esp)
 804e1db:	e8 d0 b5 ff ff       	call   80497b0 <gettext@plt>
 804e1e0:	89 04 24             	mov    %eax,(%esp)
 804e1e3:	e8 6c 12 00 00       	call   804f454 <err_warn>
 804e1e8:	c7 44 24 10 00 00 00 	movl   $0x0,0x10(%esp)
 804e1ef:	00 
 804e1f0:	8b 45 10             	mov    0x10(%ebp),%eax
 804e1f3:	89 44 24 0c          	mov    %eax,0xc(%esp)
 804e1f7:	c7 44 24 08 da 55 05 	movl   $0x80555da,0x8(%esp)
 804e1fe:	08 
 804e1ff:	c7 44 24 04 dd 55 05 	movl   $0x80555dd,0x4(%esp)
 804e206:	08 
 804e207:	c7 04 24 dd 55 05 08 	movl   $0x80555dd,(%esp)
 804e20e:	e8 ad b3 ff ff       	call   80495c0 <execlp@plt>
 804e213:	89 45 b4             	mov    %eax,-0x4c(%ebp)
 804e216:	83 7d b4 ff          	cmpl   $0xffffffff,-0x4c(%ebp)
 804e21a:	75 16                	jne    804e232 <decrypt_general+0x12d8>
 804e21c:	c7 04 24 e7 55 05 08 	movl   $0x80555e7,(%esp)
 804e223:	e8 38 b4 ff ff       	call   8049660 <perror@plt>
 804e228:	b8 01 00 00 00       	mov    $0x1,%eax
 804e22d:	e9 14 01 00 00       	jmp    804e346 <decrypt_general+0x13ec>
 804e232:	a1 e4 a0 05 08       	mov    0x805a0e4,%eax
 804e237:	83 f8 01             	cmp    $0x1,%eax
 804e23a:	75 5e                	jne    804e29a <decrypt_general+0x1340>
 804e23c:	c7 04 24 b8 55 05 08 	movl   $0x80555b8,(%esp)
 804e243:	e8 68 b5 ff ff       	call   80497b0 <gettext@plt>
 804e248:	89 04 24             	mov    %eax,(%esp)
 804e24b:	e8 04 12 00 00       	call   804f454 <err_warn>
 804e250:	c7 44 24 10 00 00 00 	movl   $0x0,0x10(%esp)
 804e257:	00 
 804e258:	8b 45 10             	mov    0x10(%ebp),%eax
 804e25b:	89 44 24 0c          	mov    %eax,0xc(%esp)
 804e25f:	c7 44 24 08 da 55 05 	movl   $0x80555da,0x8(%esp)
 804e266:	08 
 804e267:	c7 44 24 04 ec 55 05 	movl   $0x80555ec,0x4(%esp)
 804e26e:	08 
 804e26f:	c7 04 24 ec 55 05 08 	movl   $0x80555ec,(%esp)
 804e276:	e8 45 b3 ff ff       	call   80495c0 <execlp@plt>
 804e27b:	89 45 b4             	mov    %eax,-0x4c(%ebp)
 804e27e:	83 7d b4 ff          	cmpl   $0xffffffff,-0x4c(%ebp)
 804e282:	75 16                	jne    804e29a <decrypt_general+0x1340>
 804e284:	c7 04 24 e7 55 05 08 	movl   $0x80555e7,(%esp)
 804e28b:	e8 d0 b3 ff ff       	call   8049660 <perror@plt>
 804e290:	b8 01 00 00 00       	mov    $0x1,%eax
 804e295:	e9 ac 00 00 00       	jmp    804e346 <decrypt_general+0x13ec>
 804e29a:	c7 44 24 08 00 00 00 	movl   $0x0,0x8(%esp)
 804e2a1:	00 
 804e2a2:	c7 44 24 04 00 00 00 	movl   $0x0,0x4(%esp)
 804e2a9:	00 
 804e2aa:	8b 45 8c             	mov    -0x74(%ebp),%eax
 804e2ad:	89 04 24             	mov    %eax,(%esp)
 804e2b0:	e8 cb b3 ff ff       	call   8049680 <waitpid@plt>
 804e2b5:	a1 e4 a0 05 08       	mov    0x805a0e4,%eax
 804e2ba:	83 f8 01             	cmp    $0x1,%eax
 804e2bd:	75 18                	jne    804e2d7 <decrypt_general+0x137d>
 804e2bf:	8b 45 10             	mov    0x10(%ebp),%eax
 804e2c2:	89 04 24             	mov    %eax,(%esp)
 804e2c5:	e8 46 b5 ff ff       	call   8049810 <strlen@plt>
 804e2ca:	8d 50 fc             	lea    -0x4(%eax),%edx
 804e2cd:	8b 45 10             	mov    0x10(%ebp),%eax
 804e2d0:	01 d0                	add    %edx,%eax
 804e2d2:	c6 00 00             	movb   $0x0,(%eax)
 804e2d5:	eb 5f                	jmp    804e336 <decrypt_general+0x13dc>
 804e2d7:	8b 45 10             	mov    0x10(%ebp),%eax
 804e2da:	89 04 24             	mov    %eax,(%esp)
 804e2dd:	e8 2e b5 ff ff       	call   8049810 <strlen@plt>
 804e2e2:	8d 50 fd             	lea    -0x3(%eax),%edx
 804e2e5:	8b 45 10             	mov    0x10(%ebp),%eax
 804e2e8:	01 d0                	add    %edx,%eax
 804e2ea:	c6 00 00             	movb   $0x0,(%eax)
 804e2ed:	eb 47                	jmp    804e336 <decrypt_general+0x13dc>
 804e2ef:	a1 c8 a0 05 08       	mov    0x805a0c8,%eax
 804e2f4:	89 04 24             	mov    %eax,(%esp)
 804e2f7:	e8 34 b3 ff ff       	call   8049630 <mhash_get_hash_name@plt>
 804e2fc:	89 45 c8             	mov    %eax,-0x38(%ebp)
 804e2ff:	c7 04 24 f7 55 05 08 	movl   $0x80555f7,(%esp)
 804e306:	e8 a5 b4 ff ff       	call   80497b0 <gettext@plt>
 804e30b:	8b 15 80 a0 05 08    	mov    0x805a080,%edx
 804e311:	8b 4d c8             	mov    -0x38(%ebp),%ecx
 804e314:	89 4c 24 08          	mov    %ecx,0x8(%esp)
 804e318:	89 44 24 04          	mov    %eax,0x4(%esp)
 804e31c:	89 14 24             	mov    %edx,(%esp)
 804e31f:	e8 0c b5 ff ff       	call   8049830 <fprintf@plt>
 804e324:	8b 45 c8             	mov    -0x38(%ebp),%eax
 804e327:	89 04 24             	mov    %eax,(%esp)
 804e32a:	e8 c1 b1 ff ff       	call   80494f0 <free@plt>
 804e32f:	b8 01 00 00 00       	mov    $0x1,%eax
 804e334:	eb 10                	jmp    804e346 <decrypt_general+0x13ec>
 804e336:	8b 45 b0             	mov    -0x50(%ebp),%eax
 804e339:	89 04 24             	mov    %eax,(%esp)
 804e33c:	e8 7f b3 ff ff       	call   80496c0 <mcrypt_generic_end@plt>
 804e341:	b8 00 00 00 00       	mov    $0x0,%eax
 804e346:	81 c4 ac 05 00 00    	add    $0x5ac,%esp
 804e34c:	5b                   	pop    %ebx
 804e34d:	5e                   	pop    %esi
 804e34e:	5f                   	pop    %edi
 804e34f:	5d                   	pop    %ebp
 804e350:	c3                   	ret    

0804e351 <rol_buf>:
 804e351:	55                   	push   %ebp
 804e352:	89 e5                	mov    %esp,%ebp
 804e354:	83 ec 10             	sub    $0x10,%esp
 804e357:	8b 45 08             	mov    0x8(%ebp),%eax
 804e35a:	89 45 f8             	mov    %eax,-0x8(%ebp)
 804e35d:	8b 45 10             	mov    0x10(%ebp),%eax
 804e360:	89 45 f4             	mov    %eax,-0xc(%ebp)
 804e363:	c7 45 fc 00 00 00 00 	movl   $0x0,-0x4(%ebp)
 804e36a:	eb 1c                	jmp    804e388 <rol_buf+0x37>
 804e36c:	8b 55 fc             	mov    -0x4(%ebp),%edx
 804e36f:	8b 45 f8             	mov    -0x8(%ebp),%eax
 804e372:	01 c2                	add    %eax,%edx
 804e374:	8b 45 fc             	mov    -0x4(%ebp),%eax
 804e377:	8d 48 01             	lea    0x1(%eax),%ecx
 804e37a:	8b 45 f8             	mov    -0x8(%ebp),%eax
 804e37d:	01 c8                	add    %ecx,%eax
 804e37f:	0f b6 00             	movzbl (%eax),%eax
 804e382:	88 02                	mov    %al,(%edx)
 804e384:	83 45 fc 01          	addl   $0x1,-0x4(%ebp)
 804e388:	8b 45 0c             	mov    0xc(%ebp),%eax
 804e38b:	83 e8 01             	sub    $0x1,%eax
 804e38e:	3b 45 fc             	cmp    -0x4(%ebp),%eax
 804e391:	7f d9                	jg     804e36c <rol_buf+0x1b>
 804e393:	8b 45 0c             	mov    0xc(%ebp),%eax
 804e396:	8d 50 ff             	lea    -0x1(%eax),%edx
 804e399:	8b 45 f8             	mov    -0x8(%ebp),%eax
 804e39c:	01 c2                	add    %eax,%edx
 804e39e:	8b 45 f4             	mov    -0xc(%ebp),%eax
 804e3a1:	0f b6 00             	movzbl (%eax),%eax
 804e3a4:	88 02                	mov    %al,(%edx)
 804e3a6:	c9                   	leave  
 804e3a7:	c3                   	ret    

0804e3a8 <print_list>:
 804e3a8:	55                   	push   %ebp
 804e3a9:	89 e5                	mov    %esp,%ebp
 804e3ab:	56                   	push   %esi
 804e3ac:	53                   	push   %ebx
 804e3ad:	83 ec 30             	sub    $0x30,%esp
 804e3b0:	a1 f0 a0 05 08       	mov    0x805a0f0,%eax
 804e3b5:	8d 55 d8             	lea    -0x28(%ebp),%edx
 804e3b8:	89 54 24 04          	mov    %edx,0x4(%esp)
 804e3bc:	89 04 24             	mov    %eax,(%esp)
 804e3bf:	e8 ec b0 ff ff       	call   80494b0 <mcrypt_list_algorithms@plt>
 804e3c4:	89 45 e8             	mov    %eax,-0x18(%ebp)
 804e3c7:	83 7d e8 00          	cmpl   $0x0,-0x18(%ebp)
 804e3cb:	75 3e                	jne    804e40b <print_list+0x63>
 804e3cd:	a1 f0 a0 05 08       	mov    0x805a0f0,%eax
 804e3d2:	85 c0                	test   %eax,%eax
 804e3d4:	75 0a                	jne    804e3e0 <print_list+0x38>
 804e3d6:	c7 05 f0 a0 05 08 08 	movl   $0x8055608,0x805a0f0
 804e3dd:	56 05 08 
 804e3e0:	8b 15 f0 a0 05 08    	mov    0x805a0f0,%edx
 804e3e6:	a1 80 a0 05 08       	mov    0x805a080,%eax
 804e3eb:	89 54 24 08          	mov    %edx,0x8(%esp)
 804e3ef:	c7 44 24 04 1c 56 05 	movl   $0x805561c,0x4(%esp)
 804e3f6:	08 
 804e3f7:	89 04 24             	mov    %eax,(%esp)
 804e3fa:	e8 31 b4 ff ff       	call   8049830 <fprintf@plt>
 804e3ff:	c7 04 24 01 00 00 00 	movl   $0x1,(%esp)
 804e406:	e8 75 b3 ff ff       	call   8049780 <exit@plt>
 804e40b:	a1 f4 a0 05 08       	mov    0x805a0f4,%eax
 804e410:	8d 55 dc             	lea    -0x24(%ebp),%edx
 804e413:	89 54 24 04          	mov    %edx,0x4(%esp)
 804e417:	89 04 24             	mov    %eax,(%esp)
 804e41a:	e8 51 b4 ff ff       	call   8049870 <mcrypt_list_modes@plt>
 804e41f:	89 45 e4             	mov    %eax,-0x1c(%ebp)
 804e422:	83 7d e4 00          	cmpl   $0x0,-0x1c(%ebp)
 804e426:	75 3e                	jne    804e466 <print_list+0xbe>
 804e428:	a1 f4 a0 05 08       	mov    0x805a0f4,%eax
 804e42d:	85 c0                	test   %eax,%eax
 804e42f:	75 0a                	jne    804e43b <print_list+0x93>
 804e431:	c7 05 f4 a0 05 08 08 	movl   $0x8055608,0x805a0f4
 804e438:	56 05 08 
 804e43b:	8b 15 f4 a0 05 08    	mov    0x805a0f4,%edx
 804e441:	a1 80 a0 05 08       	mov    0x805a080,%eax
 804e446:	89 54 24 08          	mov    %edx,0x8(%esp)
 804e44a:	c7 44 24 04 3d 56 05 	movl   $0x805563d,0x4(%esp)
 804e451:	08 
 804e452:	89 04 24             	mov    %eax,(%esp)
 804e455:	e8 d6 b3 ff ff       	call   8049830 <fprintf@plt>
 804e45a:	c7 04 24 01 00 00 00 	movl   $0x1,(%esp)
 804e461:	e8 1a b3 ff ff       	call   8049780 <exit@plt>
 804e466:	c7 45 f0 00 00 00 00 	movl   $0x0,-0x10(%ebp)
 804e46d:	e9 f3 00 00 00       	jmp    804e565 <print_list+0x1bd>
 804e472:	8b 45 f0             	mov    -0x10(%ebp),%eax
 804e475:	8d 14 85 00 00 00 00 	lea    0x0(,%eax,4),%edx
 804e47c:	8b 45 e8             	mov    -0x18(%ebp),%eax
 804e47f:	01 d0                	add    %edx,%eax
 804e481:	8b 00                	mov    (%eax),%eax
 804e483:	89 44 24 04          	mov    %eax,0x4(%esp)
 804e487:	c7 04 24 59 56 05 08 	movl   $0x8055659,(%esp)
 804e48e:	e8 ed af ff ff       	call   8049480 <printf@plt>
 804e493:	c7 45 ec 00 00 00 00 	movl   $0x0,-0x14(%ebp)
 804e49a:	c7 45 f4 00 00 00 00 	movl   $0x0,-0xc(%ebp)
 804e4a1:	e9 a3 00 00 00       	jmp    804e549 <print_list+0x1a1>
 804e4a6:	8b 1d f4 a0 05 08    	mov    0x805a0f4,%ebx
 804e4ac:	8b 45 f4             	mov    -0xc(%ebp),%eax
 804e4af:	8d 14 85 00 00 00 00 	lea    0x0(,%eax,4),%edx
 804e4b6:	8b 45 e4             	mov    -0x1c(%ebp),%eax
 804e4b9:	01 d0                	add    %edx,%eax
 804e4bb:	8b 08                	mov    (%eax),%ecx
 804e4bd:	8b 15 f0 a0 05 08    	mov    0x805a0f0,%edx
 804e4c3:	8b 45 f0             	mov    -0x10(%ebp),%eax
 804e4c6:	8d 34 85 00 00 00 00 	lea    0x0(,%eax,4),%esi
 804e4cd:	8b 45 e8             	mov    -0x18(%ebp),%eax
 804e4d0:	01 f0                	add    %esi,%eax
 804e4d2:	8b 00                	mov    (%eax),%eax
 804e4d4:	89 5c 24 0c          	mov    %ebx,0xc(%esp)
 804e4d8:	89 4c 24 08          	mov    %ecx,0x8(%esp)
 804e4dc:	89 54 24 04          	mov    %edx,0x4(%esp)
 804e4e0:	89 04 24             	mov    %eax,(%esp)
 804e4e3:	e8 e8 af ff ff       	call   80494d0 <mcrypt_module_open@plt>
 804e4e8:	89 45 e0             	mov    %eax,-0x20(%ebp)
 804e4eb:	83 7d e0 00          	cmpl   $0x0,-0x20(%ebp)
 804e4ef:	74 54                	je     804e545 <print_list+0x19d>
 804e4f1:	83 7d ec 00          	cmpl   $0x0,-0x14(%ebp)
 804e4f5:	75 1b                	jne    804e512 <print_list+0x16a>
 804e4f7:	8b 45 e0             	mov    -0x20(%ebp),%eax
 804e4fa:	89 04 24             	mov    %eax,(%esp)
 804e4fd:	e8 9e b5 ff ff       	call   8049aa0 <mcrypt_enc_get_key_size@plt>
 804e502:	89 44 24 04          	mov    %eax,0x4(%esp)
 804e506:	c7 04 24 5d 56 05 08 	movl   $0x805565d,(%esp)
 804e50d:	e8 6e af ff ff       	call   8049480 <printf@plt>
 804e512:	8b 45 f4             	mov    -0xc(%ebp),%eax
 804e515:	8d 14 85 00 00 00 00 	lea    0x0(,%eax,4),%edx
 804e51c:	8b 45 e4             	mov    -0x1c(%ebp),%eax
 804e51f:	01 d0                	add    %edx,%eax
 804e521:	8b 00                	mov    (%eax),%eax
 804e523:	89 44 24 04          	mov    %eax,0x4(%esp)
 804e527:	c7 04 24 59 56 05 08 	movl   $0x8055659,(%esp)
 804e52e:	e8 4d af ff ff       	call   8049480 <printf@plt>
 804e533:	8b 45 e0             	mov    -0x20(%ebp),%eax
 804e536:	89 04 24             	mov    %eax,(%esp)
 804e539:	e8 c2 b2 ff ff       	call   8049800 <mcrypt_module_close@plt>
 804e53e:	c7 45 ec 01 00 00 00 	movl   $0x1,-0x14(%ebp)
 804e545:	83 45 f4 01          	addl   $0x1,-0xc(%ebp)
 804e549:	8b 45 dc             	mov    -0x24(%ebp),%eax
 804e54c:	39 45 f4             	cmp    %eax,-0xc(%ebp)
 804e54f:	0f 8c 51 ff ff ff    	jl     804e4a6 <print_list+0xfe>
 804e555:	c7 04 24 0a 00 00 00 	movl   $0xa,(%esp)
 804e55c:	e8 5f b3 ff ff       	call   80498c0 <putchar@plt>
 804e561:	83 45 f0 01          	addl   $0x1,-0x10(%ebp)
 804e565:	8b 45 d8             	mov    -0x28(%ebp),%eax
 804e568:	39 45 f0             	cmp    %eax,-0x10(%ebp)
 804e56b:	0f 8c 01 ff ff ff    	jl     804e472 <print_list+0xca>
 804e571:	8b 45 d8             	mov    -0x28(%ebp),%eax
 804e574:	89 44 24 04          	mov    %eax,0x4(%esp)
 804e578:	8b 45 e8             	mov    -0x18(%ebp),%eax
 804e57b:	89 04 24             	mov    %eax,(%esp)
 804e57e:	e8 dd b4 ff ff       	call   8049a60 <mcrypt_free_p@plt>
 804e583:	8b 45 dc             	mov    -0x24(%ebp),%eax
 804e586:	89 44 24 04          	mov    %eax,0x4(%esp)
 804e58a:	8b 45 e4             	mov    -0x1c(%ebp),%eax
 804e58d:	89 04 24             	mov    %eax,(%esp)
 804e590:	e8 cb b4 ff ff       	call   8049a60 <mcrypt_free_p@plt>
 804e595:	b8 00 00 00 00       	mov    $0x0,%eax
 804e59a:	83 c4 30             	add    $0x30,%esp
 804e59d:	5b                   	pop    %ebx
 804e59e:	5e                   	pop    %esi
 804e59f:	5d                   	pop    %ebp
 804e5a0:	c3                   	ret    

0804e5a1 <print_keylist>:
 804e5a1:	55                   	push   %ebp
 804e5a2:	89 e5                	mov    %esp,%ebp
 804e5a4:	83 ec 18             	sub    $0x18,%esp
 804e5a7:	c7 04 24 64 56 05 08 	movl   $0x8055664,(%esp)
 804e5ae:	e8 8d b1 ff ff       	call   8049740 <puts@plt>
 804e5b3:	c7 04 24 69 56 05 08 	movl   $0x8055669,(%esp)
 804e5ba:	e8 81 b1 ff ff       	call   8049740 <puts@plt>
 804e5bf:	c7 04 24 70 56 05 08 	movl   $0x8055670,(%esp)
 804e5c6:	e8 75 b1 ff ff       	call   8049740 <puts@plt>
 804e5cb:	c7 04 24 4e 50 05 08 	movl   $0x805504e,(%esp)
 804e5d2:	e8 69 b1 ff ff       	call   8049740 <puts@plt>
 804e5d7:	c7 04 24 7b 56 05 08 	movl   $0x805567b,(%esp)
 804e5de:	e8 5d b1 ff ff       	call   8049740 <puts@plt>
 804e5e3:	c7 04 24 7f 56 05 08 	movl   $0x805567f,(%esp)
 804e5ea:	e8 51 b1 ff ff       	call   8049740 <puts@plt>
 804e5ef:	c7 04 24 85 56 05 08 	movl   $0x8055685,(%esp)
 804e5f6:	e8 45 b1 ff ff       	call   8049740 <puts@plt>
 804e5fb:	c7 04 24 94 56 05 08 	movl   $0x8055694,(%esp)
 804e602:	e8 39 b1 ff ff       	call   8049740 <puts@plt>
 804e607:	c7 04 24 a4 56 05 08 	movl   $0x80556a4,(%esp)
 804e60e:	e8 2d b1 ff ff       	call   8049740 <puts@plt>
 804e613:	c7 04 24 b3 56 05 08 	movl   $0x80556b3,(%esp)
 804e61a:	e8 21 b1 ff ff       	call   8049740 <puts@plt>
 804e61f:	c7 04 24 c3 56 05 08 	movl   $0x80556c3,(%esp)
 804e626:	e8 15 b1 ff ff       	call   8049740 <puts@plt>
 804e62b:	c7 04 24 d3 56 05 08 	movl   $0x80556d3,(%esp)
 804e632:	e8 09 b1 ff ff       	call   8049740 <puts@plt>
 804e637:	b8 00 00 00 00       	mov    $0x0,%eax
 804e63c:	c9                   	leave  
 804e63d:	c3                   	ret    

0804e63e <print_hashlist>:
 804e63e:	55                   	push   %ebp
 804e63f:	89 e5                	mov    %esp,%ebp
 804e641:	81 ec 28 01 00 00    	sub    $0x128,%esp
 804e647:	c7 04 24 e4 56 05 08 	movl   $0x80556e4,(%esp)
 804e64e:	e8 5d b1 ff ff       	call   80497b0 <gettext@plt>
 804e653:	8b 15 a0 a0 05 08    	mov    0x805a0a0,%edx
 804e659:	89 44 24 04          	mov    %eax,0x4(%esp)
 804e65d:	89 14 24             	mov    %edx,(%esp)
 804e660:	e8 cb b1 ff ff       	call   8049830 <fprintf@plt>
 804e665:	c7 45 f4 00 00 00 00 	movl   $0x0,-0xc(%ebp)
 804e66c:	eb 77                	jmp    804e6e5 <print_hashlist+0xa7>
 804e66e:	8b 45 f4             	mov    -0xc(%ebp),%eax
 804e671:	89 04 24             	mov    %eax,(%esp)
 804e674:	e8 b7 af ff ff       	call   8049630 <mhash_get_hash_name@plt>
 804e679:	89 45 f0             	mov    %eax,-0x10(%ebp)
 804e67c:	83 7d f0 00          	cmpl   $0x0,-0x10(%ebp)
 804e680:	74 5f                	je     804e6e1 <print_hashlist+0xa3>
 804e682:	8b 45 f0             	mov    -0x10(%ebp),%eax
 804e685:	89 44 24 04          	mov    %eax,0x4(%esp)
 804e689:	8d 85 f1 fe ff ff    	lea    -0x10f(%ebp),%eax
 804e68f:	89 04 24             	mov    %eax,(%esp)
 804e692:	e8 39 b0 ff ff       	call   80496d0 <strcpy@plt>
 804e697:	8b 45 f0             	mov    -0x10(%ebp),%eax
 804e69a:	89 04 24             	mov    %eax,(%esp)
 804e69d:	e8 4e ae ff ff       	call   80494f0 <free@plt>
 804e6a2:	8d 85 f1 fe ff ff    	lea    -0x10f(%ebp),%eax
 804e6a8:	89 04 24             	mov    %eax,(%esp)
 804e6ab:	e8 60 b1 ff ff       	call   8049810 <strlen@plt>
 804e6b0:	89 44 24 04          	mov    %eax,0x4(%esp)
 804e6b4:	8d 85 f1 fe ff ff    	lea    -0x10f(%ebp),%eax
 804e6ba:	89 04 24             	mov    %eax,(%esp)
 804e6bd:	e8 93 bb ff ff       	call   804a255 <_tolow>
 804e6c2:	a1 a0 a0 05 08       	mov    0x805a0a0,%eax
 804e6c7:	8d 95 f1 fe ff ff    	lea    -0x10f(%ebp),%edx
 804e6cd:	89 54 24 08          	mov    %edx,0x8(%esp)
 804e6d1:	c7 44 24 04 00 57 05 	movl   $0x8055700,0x4(%esp)
 804e6d8:	08 
 804e6d9:	89 04 24             	mov    %eax,(%esp)
 804e6dc:	e8 4f b1 ff ff       	call   8049830 <fprintf@plt>
 804e6e1:	83 45 f4 01          	addl   $0x1,-0xc(%ebp)
 804e6e5:	81 7d f4 ff 00 00 00 	cmpl   $0xff,-0xc(%ebp)
 804e6ec:	7e 80                	jle    804e66e <print_hashlist+0x30>
 804e6ee:	b8 00 00 00 00       	mov    $0x0,%eax
 804e6f3:	c9                   	leave  
 804e6f4:	c3                   	ret    

0804e6f5 <file_lock>:
 804e6f5:	55                   	push   %ebp
 804e6f6:	89 e5                	mov    %esp,%ebp
 804e6f8:	83 ec 18             	sub    $0x18,%esp
 804e6fb:	8b 55 08             	mov    0x8(%ebp),%edx
 804e6fe:	8b 45 0c             	mov    0xc(%ebp),%eax
 804e701:	66 89 55 f4          	mov    %dx,-0xc(%ebp)
 804e705:	66 89 45 f0          	mov    %ax,-0x10(%ebp)
 804e709:	0f b7 45 f4          	movzwl -0xc(%ebp),%eax
 804e70d:	66 a3 f8 a0 05 08    	mov    %ax,0x805a0f8
 804e713:	c7 05 fc a0 05 08 00 	movl   $0x0,0x805a0fc
 804e71a:	00 00 00 
 804e71d:	0f b7 45 f0          	movzwl -0x10(%ebp),%eax
 804e721:	66 a3 fa a0 05 08    	mov    %ax,0x805a0fa
 804e727:	c7 05 00 a1 05 08 00 	movl   $0x0,0x805a100
 804e72e:	00 00 00 
 804e731:	e8 aa af ff ff       	call   80496e0 <getpid@plt>
 804e736:	a3 04 a1 05 08       	mov    %eax,0x805a104
 804e73b:	b8 f8 a0 05 08       	mov    $0x805a0f8,%eax
 804e740:	c9                   	leave  
 804e741:	c3                   	ret    

0804e742 <read_lock>:
 804e742:	55                   	push   %ebp
 804e743:	89 e5                	mov    %esp,%ebp
 804e745:	83 ec 28             	sub    $0x28,%esp
 804e748:	a1 c0 a0 05 08       	mov    0x805a0c0,%eax
 804e74d:	85 c0                	test   %eax,%eax
 804e74f:	75 75                	jne    804e7c6 <read_lock+0x84>
 804e751:	c7 44 24 04 1f e9 04 	movl   $0x804e91f,0x4(%esp)
 804e758:	08 
 804e759:	c7 04 24 0e 00 00 00 	movl   $0xe,(%esp)
 804e760:	e8 4f 0c 00 00       	call   804f3b4 <Signal>
 804e765:	89 45 f4             	mov    %eax,-0xc(%ebp)
 804e768:	c7 04 24 05 00 00 00 	movl   $0x5,(%esp)
 804e76f:	e8 0c ae ff ff       	call   8049580 <alarm@plt>
 804e774:	c7 44 24 04 00 00 00 	movl   $0x0,0x4(%esp)
 804e77b:	00 
 804e77c:	c7 04 24 00 00 00 00 	movl   $0x0,(%esp)
 804e783:	e8 6d ff ff ff       	call   804e6f5 <file_lock>
 804e788:	89 44 24 08          	mov    %eax,0x8(%esp)
 804e78c:	c7 44 24 04 07 00 00 	movl   $0x7,0x4(%esp)
 804e793:	00 
 804e794:	8b 45 08             	mov    0x8(%ebp),%eax
 804e797:	89 04 24             	mov    %eax,(%esp)
 804e79a:	e8 c1 b0 ff ff       	call   8049860 <fcntl@plt>
 804e79f:	89 45 f0             	mov    %eax,-0x10(%ebp)
 804e7a2:	c7 04 24 00 00 00 00 	movl   $0x0,(%esp)
 804e7a9:	e8 d2 ad ff ff       	call   8049580 <alarm@plt>
 804e7ae:	8b 45 f4             	mov    -0xc(%ebp),%eax
 804e7b1:	89 44 24 04          	mov    %eax,0x4(%esp)
 804e7b5:	c7 04 24 0e 00 00 00 	movl   $0xe,(%esp)
 804e7bc:	e8 f3 0b 00 00       	call   804f3b4 <Signal>
 804e7c1:	8b 45 f0             	mov    -0x10(%ebp),%eax
 804e7c4:	eb 05                	jmp    804e7cb <read_lock+0x89>
 804e7c6:	b8 00 00 00 00       	mov    $0x0,%eax
 804e7cb:	c9                   	leave  
 804e7cc:	c3                   	ret    

0804e7cd <write_lock>:
 804e7cd:	55                   	push   %ebp
 804e7ce:	89 e5                	mov    %esp,%ebp
 804e7d0:	83 ec 28             	sub    $0x28,%esp
 804e7d3:	a1 c0 a0 05 08       	mov    0x805a0c0,%eax
 804e7d8:	85 c0                	test   %eax,%eax
 804e7da:	75 75                	jne    804e851 <write_lock+0x84>
 804e7dc:	c7 44 24 04 1f e9 04 	movl   $0x804e91f,0x4(%esp)
 804e7e3:	08 
 804e7e4:	c7 04 24 0e 00 00 00 	movl   $0xe,(%esp)
 804e7eb:	e8 c4 0b 00 00       	call   804f3b4 <Signal>
 804e7f0:	89 45 f4             	mov    %eax,-0xc(%ebp)
 804e7f3:	c7 04 24 05 00 00 00 	movl   $0x5,(%esp)
 804e7fa:	e8 81 ad ff ff       	call   8049580 <alarm@plt>
 804e7ff:	c7 44 24 04 00 00 00 	movl   $0x0,0x4(%esp)
 804e806:	00 
 804e807:	c7 04 24 01 00 00 00 	movl   $0x1,(%esp)
 804e80e:	e8 e2 fe ff ff       	call   804e6f5 <file_lock>
 804e813:	89 44 24 08          	mov    %eax,0x8(%esp)
 804e817:	c7 44 24 04 07 00 00 	movl   $0x7,0x4(%esp)
 804e81e:	00 
 804e81f:	8b 45 08             	mov    0x8(%ebp),%eax
 804e822:	89 04 24             	mov    %eax,(%esp)
 804e825:	e8 36 b0 ff ff       	call   8049860 <fcntl@plt>
 804e82a:	89 45 f0             	mov    %eax,-0x10(%ebp)
 804e82d:	c7 04 24 00 00 00 00 	movl   $0x0,(%esp)
 804e834:	e8 47 ad ff ff       	call   8049580 <alarm@plt>
 804e839:	8b 45 f4             	mov    -0xc(%ebp),%eax
 804e83c:	89 44 24 04          	mov    %eax,0x4(%esp)
 804e840:	c7 04 24 0e 00 00 00 	movl   $0xe,(%esp)
 804e847:	e8 68 0b 00 00       	call   804f3b4 <Signal>
 804e84c:	8b 45 f0             	mov    -0x10(%ebp),%eax
 804e84f:	eb 05                	jmp    804e856 <write_lock+0x89>
 804e851:	b8 00 00 00 00       	mov    $0x0,%eax
 804e856:	c9                   	leave  
 804e857:	c3                   	ret    

0804e858 <append_lock>:
 804e858:	55                   	push   %ebp
 804e859:	89 e5                	mov    %esp,%ebp
 804e85b:	83 ec 28             	sub    $0x28,%esp
 804e85e:	a1 c0 a0 05 08       	mov    0x805a0c0,%eax
 804e863:	85 c0                	test   %eax,%eax
 804e865:	75 75                	jne    804e8dc <append_lock+0x84>
 804e867:	c7 44 24 04 1f e9 04 	movl   $0x804e91f,0x4(%esp)
 804e86e:	08 
 804e86f:	c7 04 24 0e 00 00 00 	movl   $0xe,(%esp)
 804e876:	e8 39 0b 00 00       	call   804f3b4 <Signal>
 804e87b:	89 45 f4             	mov    %eax,-0xc(%ebp)
 804e87e:	c7 04 24 05 00 00 00 	movl   $0x5,(%esp)
 804e885:	e8 f6 ac ff ff       	call   8049580 <alarm@plt>
 804e88a:	c7 44 24 04 02 00 00 	movl   $0x2,0x4(%esp)
 804e891:	00 
 804e892:	c7 04 24 01 00 00 00 	movl   $0x1,(%esp)
 804e899:	e8 57 fe ff ff       	call   804e6f5 <file_lock>
 804e89e:	89 44 24 08          	mov    %eax,0x8(%esp)
 804e8a2:	c7 44 24 04 07 00 00 	movl   $0x7,0x4(%esp)
 804e8a9:	00 
 804e8aa:	8b 45 08             	mov    0x8(%ebp),%eax
 804e8ad:	89 04 24             	mov    %eax,(%esp)
 804e8b0:	e8 ab af ff ff       	call   8049860 <fcntl@plt>
 804e8b5:	89 45 f0             	mov    %eax,-0x10(%ebp)
 804e8b8:	c7 04 24 00 00 00 00 	movl   $0x0,(%esp)
 804e8bf:	e8 bc ac ff ff       	call   8049580 <alarm@plt>
 804e8c4:	8b 45 f4             	mov    -0xc(%ebp),%eax
 804e8c7:	89 44 24 04          	mov    %eax,0x4(%esp)
 804e8cb:	c7 04 24 0e 00 00 00 	movl   $0xe,(%esp)
 804e8d2:	e8 dd 0a 00 00       	call   804f3b4 <Signal>
 804e8d7:	8b 45 f0             	mov    -0x10(%ebp),%eax
 804e8da:	eb 05                	jmp    804e8e1 <append_lock+0x89>
 804e8dc:	b8 00 00 00 00       	mov    $0x0,%eax
 804e8e1:	c9                   	leave  
 804e8e2:	c3                   	ret    

0804e8e3 <unlock>:
 804e8e3:	55                   	push   %ebp
 804e8e4:	89 e5                	mov    %esp,%ebp
 804e8e6:	83 ec 18             	sub    $0x18,%esp
 804e8e9:	a1 c0 a0 05 08       	mov    0x805a0c0,%eax
 804e8ee:	85 c0                	test   %eax,%eax
 804e8f0:	75 2b                	jne    804e91d <unlock+0x3a>
 804e8f2:	c7 44 24 04 02 00 00 	movl   $0x2,0x4(%esp)
 804e8f9:	00 
 804e8fa:	c7 04 24 02 00 00 00 	movl   $0x2,(%esp)
 804e901:	e8 ef fd ff ff       	call   804e6f5 <file_lock>
 804e906:	89 44 24 08          	mov    %eax,0x8(%esp)
 804e90a:	c7 44 24 04 06 00 00 	movl   $0x6,0x4(%esp)
 804e911:	00 
 804e912:	8b 45 08             	mov    0x8(%ebp),%eax
 804e915:	89 04 24             	mov    %eax,(%esp)
 804e918:	e8 43 af ff ff       	call   8049860 <fcntl@plt>
 804e91d:	c9                   	leave  
 804e91e:	c3                   	ret    

0804e91f <time_out>:
 804e91f:	55                   	push   %ebp
 804e920:	89 e5                	mov    %esp,%ebp
 804e922:	83 ec 18             	sub    $0x18,%esp
 804e925:	c7 04 24 04 57 05 08 	movl   $0x8055704,(%esp)
 804e92c:	e8 7f ae ff ff       	call   80497b0 <gettext@plt>
 804e931:	8b 15 80 a0 05 08    	mov    0x805a080,%edx
 804e937:	89 44 24 04          	mov    %eax,0x4(%esp)
 804e93b:	89 14 24             	mov    %edx,(%esp)
 804e93e:	e8 ed ae ff ff       	call   8049830 <fprintf@plt>
 804e943:	c9                   	leave  
 804e944:	c3                   	ret    

0804e945 <mcrypt_gen_key>:
 804e945:	55                   	push   %ebp
 804e946:	89 e5                	mov    %esp,%ebp
 804e948:	83 ec 58             	sub    $0x58,%esp
 804e94b:	c7 45 f4 00 00 00 00 	movl   $0x0,-0xc(%ebp)
 804e952:	c7 45 f0 00 00 00 00 	movl   $0x0,-0x10(%ebp)
 804e959:	c7 45 ec 00 00 00 00 	movl   $0x0,-0x14(%ebp)
 804e960:	c7 44 24 04 2a 57 05 	movl   $0x805572a,0x4(%esp)
 804e967:	08 
 804e968:	8b 45 08             	mov    0x8(%ebp),%eax
 804e96b:	89 04 24             	mov    %eax,(%esp)
 804e96e:	e8 cd ae ff ff       	call   8049840 <strcasecmp@plt>
 804e973:	85 c0                	test   %eax,%eax
 804e975:	75 07                	jne    804e97e <mcrypt_gen_key+0x39>
 804e977:	c7 45 ec 01 00 00 00 	movl   $0x1,-0x14(%ebp)
 804e97e:	c7 44 24 04 31 57 05 	movl   $0x8055731,0x4(%esp)
 804e985:	08 
 804e986:	8b 45 08             	mov    0x8(%ebp),%eax
 804e989:	89 04 24             	mov    %eax,(%esp)
 804e98c:	e8 af ae ff ff       	call   8049840 <strcasecmp@plt>
 804e991:	85 c0                	test   %eax,%eax
 804e993:	75 07                	jne    804e99c <mcrypt_gen_key+0x57>
 804e995:	c7 45 f4 01 00 00 00 	movl   $0x1,-0xc(%ebp)
 804e99c:	c7 44 24 04 36 57 05 	movl   $0x8055736,0x4(%esp)
 804e9a3:	08 
 804e9a4:	8b 45 08             	mov    0x8(%ebp),%eax
 804e9a7:	89 04 24             	mov    %eax,(%esp)
 804e9aa:	e8 91 ae ff ff       	call   8049840 <strcasecmp@plt>
 804e9af:	85 c0                	test   %eax,%eax
 804e9b1:	75 07                	jne    804e9ba <mcrypt_gen_key+0x75>
 804e9b3:	c7 45 f4 02 00 00 00 	movl   $0x2,-0xc(%ebp)
 804e9ba:	c7 44 24 04 3a 57 05 	movl   $0x805573a,0x4(%esp)
 804e9c1:	08 
 804e9c2:	8b 45 08             	mov    0x8(%ebp),%eax
 804e9c5:	89 04 24             	mov    %eax,(%esp)
 804e9c8:	e8 73 ae ff ff       	call   8049840 <strcasecmp@plt>
 804e9cd:	85 c0                	test   %eax,%eax
 804e9cf:	75 07                	jne    804e9d8 <mcrypt_gen_key+0x93>
 804e9d1:	c7 45 f4 03 00 00 00 	movl   $0x3,-0xc(%ebp)
 804e9d8:	c7 44 24 04 40 57 05 	movl   $0x8055740,0x4(%esp)
 804e9df:	08 
 804e9e0:	8b 45 08             	mov    0x8(%ebp),%eax
 804e9e3:	89 04 24             	mov    %eax,(%esp)
 804e9e6:	e8 55 ae ff ff       	call   8049840 <strcasecmp@plt>
 804e9eb:	85 c0                	test   %eax,%eax
 804e9ed:	75 0e                	jne    804e9fd <mcrypt_gen_key+0xb8>
 804e9ef:	c7 45 f4 00 00 00 00 	movl   $0x0,-0xc(%ebp)
 804e9f6:	c7 45 f0 02 00 00 00 	movl   $0x2,-0x10(%ebp)
 804e9fd:	c7 44 24 04 4c 57 05 	movl   $0x805574c,0x4(%esp)
 804ea04:	08 
 804ea05:	8b 45 08             	mov    0x8(%ebp),%eax
 804ea08:	89 04 24             	mov    %eax,(%esp)
 804ea0b:	e8 30 ae ff ff       	call   8049840 <strcasecmp@plt>
 804ea10:	85 c0                	test   %eax,%eax
 804ea12:	75 0e                	jne    804ea22 <mcrypt_gen_key+0xdd>
 804ea14:	c7 45 f4 01 00 00 00 	movl   $0x1,-0xc(%ebp)
 804ea1b:	c7 45 f0 01 00 00 00 	movl   $0x1,-0x10(%ebp)
 804ea22:	c7 44 24 04 57 57 05 	movl   $0x8055757,0x4(%esp)
 804ea29:	08 
 804ea2a:	8b 45 08             	mov    0x8(%ebp),%eax
 804ea2d:	89 04 24             	mov    %eax,(%esp)
 804ea30:	e8 0b ae ff ff       	call   8049840 <strcasecmp@plt>
 804ea35:	85 c0                	test   %eax,%eax
 804ea37:	75 0e                	jne    804ea47 <mcrypt_gen_key+0x102>
 804ea39:	c7 45 f4 04 00 00 00 	movl   $0x4,-0xc(%ebp)
 804ea40:	c7 45 f0 01 00 00 00 	movl   $0x1,-0x10(%ebp)
 804ea47:	c7 44 24 04 66 57 05 	movl   $0x8055766,0x4(%esp)
 804ea4e:	08 
 804ea4f:	8b 45 08             	mov    0x8(%ebp),%eax
 804ea52:	89 04 24             	mov    %eax,(%esp)
 804ea55:	e8 e6 ad ff ff       	call   8049840 <strcasecmp@plt>
 804ea5a:	85 c0                	test   %eax,%eax
 804ea5c:	75 0e                	jne    804ea6c <mcrypt_gen_key+0x127>
 804ea5e:	c7 45 f4 04 00 00 00 	movl   $0x4,-0xc(%ebp)
 804ea65:	c7 45 f0 02 00 00 00 	movl   $0x2,-0x10(%ebp)
 804ea6c:	c7 44 24 04 76 57 05 	movl   $0x8055776,0x4(%esp)
 804ea73:	08 
 804ea74:	8b 45 08             	mov    0x8(%ebp),%eax
 804ea77:	89 04 24             	mov    %eax,(%esp)
 804ea7a:	e8 c1 ad ff ff       	call   8049840 <strcasecmp@plt>
 804ea7f:	85 c0                	test   %eax,%eax
 804ea81:	75 0e                	jne    804ea91 <mcrypt_gen_key+0x14c>
 804ea83:	c7 45 f4 05 00 00 00 	movl   $0x5,-0xc(%ebp)
 804ea8a:	c7 45 f0 01 00 00 00 	movl   $0x1,-0x10(%ebp)
 804ea91:	c7 44 24 04 85 57 05 	movl   $0x8055785,0x4(%esp)
 804ea98:	08 
 804ea99:	8b 45 08             	mov    0x8(%ebp),%eax
 804ea9c:	89 04 24             	mov    %eax,(%esp)
 804ea9f:	e8 9c ad ff ff       	call   8049840 <strcasecmp@plt>
 804eaa4:	85 c0                	test   %eax,%eax
 804eaa6:	75 0e                	jne    804eab6 <mcrypt_gen_key+0x171>
 804eaa8:	c7 45 f4 05 00 00 00 	movl   $0x5,-0xc(%ebp)
 804eaaf:	c7 45 f0 02 00 00 00 	movl   $0x2,-0x10(%ebp)
 804eab6:	c7 44 24 04 95 57 05 	movl   $0x8055795,0x4(%esp)
 804eabd:	08 
 804eabe:	8b 45 08             	mov    0x8(%ebp),%eax
 804eac1:	89 04 24             	mov    %eax,(%esp)
 804eac4:	e8 77 ad ff ff       	call   8049840 <strcasecmp@plt>
 804eac9:	85 c0                	test   %eax,%eax
 804eacb:	75 0e                	jne    804eadb <mcrypt_gen_key+0x196>
 804eacd:	c7 45 f4 06 00 00 00 	movl   $0x6,-0xc(%ebp)
 804ead4:	c7 45 f0 01 00 00 00 	movl   $0x1,-0x10(%ebp)
 804eadb:	c7 44 24 04 a5 57 05 	movl   $0x80557a5,0x4(%esp)
 804eae2:	08 
 804eae3:	8b 45 08             	mov    0x8(%ebp),%eax
 804eae6:	89 04 24             	mov    %eax,(%esp)
 804eae9:	e8 52 ad ff ff       	call   8049840 <strcasecmp@plt>
 804eaee:	85 c0                	test   %eax,%eax
 804eaf0:	75 0e                	jne    804eb00 <mcrypt_gen_key+0x1bb>
 804eaf2:	c7 45 f4 06 00 00 00 	movl   $0x6,-0xc(%ebp)
 804eaf9:	c7 45 f0 02 00 00 00 	movl   $0x2,-0x10(%ebp)
 804eb00:	83 7d ec 00          	cmpl   $0x0,-0x14(%ebp)
 804eb04:	75 65                	jne    804eb6b <mcrypt_gen_key+0x226>
 804eb06:	8b 45 f0             	mov    -0x10(%ebp),%eax
 804eb09:	89 45 d8             	mov    %eax,-0x28(%ebp)
 804eb0c:	c7 45 e0 00 00 00 00 	movl   $0x0,-0x20(%ebp)
 804eb13:	8b 45 14             	mov    0x14(%ebp),%eax
 804eb16:	89 45 e4             	mov    %eax,-0x1c(%ebp)
 804eb19:	8b 45 18             	mov    0x18(%ebp),%eax
 804eb1c:	89 45 e8             	mov    %eax,-0x18(%ebp)
 804eb1f:	8b 55 20             	mov    0x20(%ebp),%edx
 804eb22:	8b 45 10             	mov    0x10(%ebp),%eax
 804eb25:	89 54 24 24          	mov    %edx,0x24(%esp)
 804eb29:	8b 55 1c             	mov    0x1c(%ebp),%edx
 804eb2c:	89 54 24 20          	mov    %edx,0x20(%esp)
 804eb30:	89 44 24 1c          	mov    %eax,0x1c(%esp)
 804eb34:	8b 45 0c             	mov    0xc(%ebp),%eax
 804eb37:	89 44 24 18          	mov    %eax,0x18(%esp)
 804eb3b:	8b 45 d8             	mov    -0x28(%ebp),%eax
 804eb3e:	89 44 24 04          	mov    %eax,0x4(%esp)
 804eb42:	8b 45 dc             	mov    -0x24(%ebp),%eax
 804eb45:	89 44 24 08          	mov    %eax,0x8(%esp)
 804eb49:	8b 45 e0             	mov    -0x20(%ebp),%eax
 804eb4c:	89 44 24 0c          	mov    %eax,0xc(%esp)
 804eb50:	8b 45 e4             	mov    -0x1c(%ebp),%eax
 804eb53:	89 44 24 10          	mov    %eax,0x10(%esp)
 804eb57:	8b 45 e8             	mov    -0x18(%ebp),%eax
 804eb5a:	89 44 24 14          	mov    %eax,0x14(%esp)
 804eb5e:	8b 45 f4             	mov    -0xc(%ebp),%eax
 804eb61:	89 04 24             	mov    %eax,(%esp)
 804eb64:	e8 37 ab ff ff       	call   80496a0 <mhash_keygen_ext@plt>
 804eb69:	eb 20                	jmp    804eb8b <mcrypt_gen_key+0x246>
 804eb6b:	8b 45 20             	mov    0x20(%ebp),%eax
 804eb6e:	89 44 24 0c          	mov    %eax,0xc(%esp)
 804eb72:	8b 45 1c             	mov    0x1c(%ebp),%eax
 804eb75:	89 44 24 08          	mov    %eax,0x8(%esp)
 804eb79:	8b 45 10             	mov    0x10(%ebp),%eax
 804eb7c:	89 44 24 04          	mov    %eax,0x4(%esp)
 804eb80:	8b 45 0c             	mov    0xc(%ebp),%eax
 804eb83:	89 04 24             	mov    %eax,(%esp)
 804eb86:	e8 5e 23 00 00       	call   8050ee9 <gen_crypt>
 804eb8b:	c9                   	leave  
 804eb8c:	c3                   	ret    

0804eb8d <fixkey>:
 804eb8d:	55                   	push   %ebp
 804eb8e:	89 e5                	mov    %esp,%ebp
 804eb90:	83 ec 38             	sub    $0x38,%esp
 804eb93:	c7 44 24 04 01 02 00 	movl   $0x201,0x4(%esp)
 804eb9a:	00 
 804eb9b:	c7 04 24 01 00 00 00 	movl   $0x1,(%esp)
 804eba2:	e8 35 06 00 00       	call   804f1dc <_mcrypt_calloc>
 804eba7:	89 45 f4             	mov    %eax,-0xc(%ebp)
 804ebaa:	8b 45 14             	mov    0x14(%ebp),%eax
 804ebad:	89 44 24 04          	mov    %eax,0x4(%esp)
 804ebb1:	c7 04 24 01 00 00 00 	movl   $0x1,(%esp)
 804ebb8:	e8 1f 06 00 00       	call   804f1dc <_mcrypt_calloc>
 804ebbd:	89 45 f0             	mov    %eax,-0x10(%ebp)
 804ebc0:	83 7d 08 00          	cmpl   $0x0,0x8(%ebp)
 804ebc4:	75 79                	jne    804ec3f <fixkey+0xb2>
 804ebc6:	8b 45 20             	mov    0x20(%ebp),%eax
 804ebc9:	89 44 24 0c          	mov    %eax,0xc(%esp)
 804ebcd:	8b 45 0c             	mov    0xc(%ebp),%eax
 804ebd0:	89 44 24 08          	mov    %eax,0x8(%esp)
 804ebd4:	8b 45 28             	mov    0x28(%ebp),%eax
 804ebd7:	89 44 24 04          	mov    %eax,0x4(%esp)
 804ebdb:	8b 45 14             	mov    0x14(%ebp),%eax
 804ebde:	89 04 24             	mov    %eax,(%esp)
 804ebe1:	e8 12 b1 ff ff       	call   8049cf8 <get_password>
 804ebe6:	89 45 ec             	mov    %eax,-0x14(%ebp)
 804ebe9:	83 7d ec 00          	cmpl   $0x0,-0x14(%ebp)
 804ebed:	75 0a                	jne    804ebf9 <fixkey+0x6c>
 804ebef:	b8 00 00 00 00       	mov    $0x0,%eax
 804ebf4:	e9 14 01 00 00       	jmp    804ed0d <fixkey+0x180>
 804ebf9:	8b 45 0c             	mov    0xc(%ebp),%eax
 804ebfc:	8b 00                	mov    (%eax),%eax
 804ebfe:	3d 01 02 00 00       	cmp    $0x201,%eax
 804ec03:	76 09                	jbe    804ec0e <fixkey+0x81>
 804ec05:	8b 45 0c             	mov    0xc(%ebp),%eax
 804ec08:	c7 00 01 02 00 00    	movl   $0x201,(%eax)
 804ec0e:	8b 45 0c             	mov    0xc(%ebp),%eax
 804ec11:	8b 00                	mov    (%eax),%eax
 804ec13:	89 44 24 08          	mov    %eax,0x8(%esp)
 804ec17:	8b 45 ec             	mov    -0x14(%ebp),%eax
 804ec1a:	89 44 24 04          	mov    %eax,0x4(%esp)
 804ec1e:	8b 45 f4             	mov    -0xc(%ebp),%eax
 804ec21:	89 04 24             	mov    %eax,(%esp)
 804ec24:	e8 b7 a8 ff ff       	call   80494e0 <memmove@plt>
 804ec29:	8b 45 0c             	mov    0xc(%ebp),%eax
 804ec2c:	8b 00                	mov    (%eax),%eax
 804ec2e:	89 44 24 04          	mov    %eax,0x4(%esp)
 804ec32:	8b 45 ec             	mov    -0x14(%ebp),%eax
 804ec35:	89 04 24             	mov    %eax,(%esp)
 804ec38:	e8 52 07 00 00       	call   804f38f <_secure_mcrypt_free>
 804ec3d:	eb 30                	jmp    804ec6f <fixkey+0xe2>
 804ec3f:	8b 45 0c             	mov    0xc(%ebp),%eax
 804ec42:	8b 00                	mov    (%eax),%eax
 804ec44:	3d 01 02 00 00       	cmp    $0x201,%eax
 804ec49:	76 09                	jbe    804ec54 <fixkey+0xc7>
 804ec4b:	8b 45 0c             	mov    0xc(%ebp),%eax
 804ec4e:	c7 00 01 02 00 00    	movl   $0x201,(%eax)
 804ec54:	8b 45 0c             	mov    0xc(%ebp),%eax
 804ec57:	8b 00                	mov    (%eax),%eax
 804ec59:	89 44 24 08          	mov    %eax,0x8(%esp)
 804ec5d:	8b 45 08             	mov    0x8(%ebp),%eax
 804ec60:	89 44 24 04          	mov    %eax,0x4(%esp)
 804ec64:	8b 45 f4             	mov    -0xc(%ebp),%eax
 804ec67:	89 04 24             	mov    %eax,(%esp)
 804ec6a:	e8 71 a8 ff ff       	call   80494e0 <memmove@plt>
 804ec6f:	83 7d 24 00          	cmpl   $0x0,0x24(%ebp)
 804ec73:	75 07                	jne    804ec7c <fixkey+0xef>
 804ec75:	c7 45 20 00 00 00 00 	movl   $0x0,0x20(%ebp)
 804ec7c:	8b 45 0c             	mov    0xc(%ebp),%eax
 804ec7f:	8b 00                	mov    (%eax),%eax
 804ec81:	89 44 24 18          	mov    %eax,0x18(%esp)
 804ec85:	8b 45 f4             	mov    -0xc(%ebp),%eax
 804ec88:	89 44 24 14          	mov    %eax,0x14(%esp)
 804ec8c:	8b 45 24             	mov    0x24(%ebp),%eax
 804ec8f:	89 44 24 10          	mov    %eax,0x10(%esp)
 804ec93:	8b 45 20             	mov    0x20(%ebp),%eax
 804ec96:	89 44 24 0c          	mov    %eax,0xc(%esp)
 804ec9a:	8b 45 14             	mov    0x14(%ebp),%eax
 804ec9d:	89 44 24 08          	mov    %eax,0x8(%esp)
 804eca1:	8b 45 f0             	mov    -0x10(%ebp),%eax
 804eca4:	89 44 24 04          	mov    %eax,0x4(%esp)
 804eca8:	8b 45 10             	mov    0x10(%ebp),%eax
 804ecab:	89 04 24             	mov    %eax,(%esp)
 804ecae:	e8 92 fc ff ff       	call   804e945 <mcrypt_gen_key>
 804ecb3:	89 45 e8             	mov    %eax,-0x18(%ebp)
 804ecb6:	83 7d e8 00          	cmpl   $0x0,-0x18(%ebp)
 804ecba:	79 14                	jns    804ecd0 <fixkey+0x143>
 804ecbc:	c7 04 24 b6 57 05 08 	movl   $0x80557b6,(%esp)
 804ecc3:	e8 e8 aa ff ff       	call   80497b0 <gettext@plt>
 804ecc8:	89 04 24             	mov    %eax,(%esp)
 804eccb:	e8 5e 07 00 00       	call   804f42e <err_quit>
 804ecd0:	8b 45 0c             	mov    0xc(%ebp),%eax
 804ecd3:	8b 00                	mov    (%eax),%eax
 804ecd5:	89 44 24 04          	mov    %eax,0x4(%esp)
 804ecd9:	8b 45 f4             	mov    -0xc(%ebp),%eax
 804ecdc:	89 04 24             	mov    %eax,(%esp)
 804ecdf:	e8 cc be ff ff       	call   804abb0 <Bzero>
 804ece4:	8b 55 14             	mov    0x14(%ebp),%edx
 804ece7:	8b 45 0c             	mov    0xc(%ebp),%eax
 804ecea:	89 10                	mov    %edx,(%eax)
 804ecec:	c7 44 24 04 01 02 00 	movl   $0x201,0x4(%esp)
 804ecf3:	00 
 804ecf4:	8b 45 f4             	mov    -0xc(%ebp),%eax
 804ecf7:	89 04 24             	mov    %eax,(%esp)
 804ecfa:	e8 b1 be ff ff       	call   804abb0 <Bzero>
 804ecff:	8b 45 f4             	mov    -0xc(%ebp),%eax
 804ed02:	89 04 24             	mov    %eax,(%esp)
 804ed05:	e8 72 06 00 00       	call   804f37c <_mcrypt_free>
 804ed0a:	8b 45 f0             	mov    -0x10(%ebp),%eax
 804ed0d:	c9                   	leave  
 804ed0e:	c3                   	ret    

0804ed0f <_which_algo>:
 804ed0f:	55                   	push   %ebp
 804ed10:	89 e5                	mov    %esp,%ebp
 804ed12:	83 ec 18             	sub    $0x18,%esp
 804ed15:	c7 44 24 04 31 57 05 	movl   $0x8055731,0x4(%esp)
 804ed1c:	08 
 804ed1d:	8b 45 08             	mov    0x8(%ebp),%eax
 804ed20:	89 04 24             	mov    %eax,(%esp)
 804ed23:	e8 18 ab ff ff       	call   8049840 <strcasecmp@plt>
 804ed28:	85 c0                	test   %eax,%eax
 804ed2a:	75 0a                	jne    804ed36 <_which_algo+0x27>
 804ed2c:	b8 00 00 00 00       	mov    $0x0,%eax
 804ed31:	e9 61 01 00 00       	jmp    804ee97 <_which_algo+0x188>
 804ed36:	c7 44 24 04 2a 57 05 	movl   $0x805572a,0x4(%esp)
 804ed3d:	08 
 804ed3e:	8b 45 08             	mov    0x8(%ebp),%eax
 804ed41:	89 04 24             	mov    %eax,(%esp)
 804ed44:	e8 f7 aa ff ff       	call   8049840 <strcasecmp@plt>
 804ed49:	85 c0                	test   %eax,%eax
 804ed4b:	75 0a                	jne    804ed57 <_which_algo+0x48>
 804ed4d:	b8 00 00 00 00       	mov    $0x0,%eax
 804ed52:	e9 40 01 00 00       	jmp    804ee97 <_which_algo+0x188>
 804ed57:	c7 44 24 04 36 57 05 	movl   $0x8055736,0x4(%esp)
 804ed5e:	08 
 804ed5f:	8b 45 08             	mov    0x8(%ebp),%eax
 804ed62:	89 04 24             	mov    %eax,(%esp)
 804ed65:	e8 d6 aa ff ff       	call   8049840 <strcasecmp@plt>
 804ed6a:	85 c0                	test   %eax,%eax
 804ed6c:	75 0a                	jne    804ed78 <_which_algo+0x69>
 804ed6e:	b8 00 00 00 00       	mov    $0x0,%eax
 804ed73:	e9 1f 01 00 00       	jmp    804ee97 <_which_algo+0x188>
 804ed78:	c7 44 24 04 3a 57 05 	movl   $0x805573a,0x4(%esp)
 804ed7f:	08 
 804ed80:	8b 45 08             	mov    0x8(%ebp),%eax
 804ed83:	89 04 24             	mov    %eax,(%esp)
 804ed86:	e8 b5 aa ff ff       	call   8049840 <strcasecmp@plt>
 804ed8b:	85 c0                	test   %eax,%eax
 804ed8d:	75 0a                	jne    804ed99 <_which_algo+0x8a>
 804ed8f:	b8 00 00 00 00       	mov    $0x0,%eax
 804ed94:	e9 fe 00 00 00       	jmp    804ee97 <_which_algo+0x188>
 804ed99:	c7 44 24 04 40 57 05 	movl   $0x8055740,0x4(%esp)
 804eda0:	08 
 804eda1:	8b 45 08             	mov    0x8(%ebp),%eax
 804eda4:	89 04 24             	mov    %eax,(%esp)
 804eda7:	e8 94 aa ff ff       	call   8049840 <strcasecmp@plt>
 804edac:	85 c0                	test   %eax,%eax
 804edae:	75 0a                	jne    804edba <_which_algo+0xab>
 804edb0:	b8 00 00 00 00       	mov    $0x0,%eax
 804edb5:	e9 dd 00 00 00       	jmp    804ee97 <_which_algo+0x188>
 804edba:	c7 44 24 04 4c 57 05 	movl   $0x805574c,0x4(%esp)
 804edc1:	08 
 804edc2:	8b 45 08             	mov    0x8(%ebp),%eax
 804edc5:	89 04 24             	mov    %eax,(%esp)
 804edc8:	e8 73 aa ff ff       	call   8049840 <strcasecmp@plt>
 804edcd:	85 c0                	test   %eax,%eax
 804edcf:	75 0a                	jne    804eddb <_which_algo+0xcc>
 804edd1:	b8 00 00 00 00       	mov    $0x0,%eax
 804edd6:	e9 bc 00 00 00       	jmp    804ee97 <_which_algo+0x188>
 804eddb:	c7 44 24 04 57 57 05 	movl   $0x8055757,0x4(%esp)
 804ede2:	08 
 804ede3:	8b 45 08             	mov    0x8(%ebp),%eax
 804ede6:	89 04 24             	mov    %eax,(%esp)
 804ede9:	e8 52 aa ff ff       	call   8049840 <strcasecmp@plt>
 804edee:	85 c0                	test   %eax,%eax
 804edf0:	75 0a                	jne    804edfc <_which_algo+0xed>
 804edf2:	b8 00 00 00 00       	mov    $0x0,%eax
 804edf7:	e9 9b 00 00 00       	jmp    804ee97 <_which_algo+0x188>
 804edfc:	c7 44 24 04 66 57 05 	movl   $0x8055766,0x4(%esp)
 804ee03:	08 
 804ee04:	8b 45 08             	mov    0x8(%ebp),%eax
 804ee07:	89 04 24             	mov    %eax,(%esp)
 804ee0a:	e8 31 aa ff ff       	call   8049840 <strcasecmp@plt>
 804ee0f:	85 c0                	test   %eax,%eax
 804ee11:	75 07                	jne    804ee1a <_which_algo+0x10b>
 804ee13:	b8 00 00 00 00       	mov    $0x0,%eax
 804ee18:	eb 7d                	jmp    804ee97 <_which_algo+0x188>
 804ee1a:	c7 44 24 04 76 57 05 	movl   $0x8055776,0x4(%esp)
 804ee21:	08 
 804ee22:	8b 45 08             	mov    0x8(%ebp),%eax
 804ee25:	89 04 24             	mov    %eax,(%esp)
 804ee28:	e8 13 aa ff ff       	call   8049840 <strcasecmp@plt>
 804ee2d:	85 c0                	test   %eax,%eax
 804ee2f:	75 07                	jne    804ee38 <_which_algo+0x129>
 804ee31:	b8 00 00 00 00       	mov    $0x0,%eax
 804ee36:	eb 5f                	jmp    804ee97 <_which_algo+0x188>
 804ee38:	c7 44 24 04 85 57 05 	movl   $0x8055785,0x4(%esp)
 804ee3f:	08 
 804ee40:	8b 45 08             	mov    0x8(%ebp),%eax
 804ee43:	89 04 24             	mov    %eax,(%esp)
 804ee46:	e8 f5 a9 ff ff       	call   8049840 <strcasecmp@plt>
 804ee4b:	85 c0                	test   %eax,%eax
 804ee4d:	75 07                	jne    804ee56 <_which_algo+0x147>
 804ee4f:	b8 00 00 00 00       	mov    $0x0,%eax
 804ee54:	eb 41                	jmp    804ee97 <_which_algo+0x188>
 804ee56:	c7 44 24 04 95 57 05 	movl   $0x8055795,0x4(%esp)
 804ee5d:	08 
 804ee5e:	8b 45 08             	mov    0x8(%ebp),%eax
 804ee61:	89 04 24             	mov    %eax,(%esp)
 804ee64:	e8 d7 a9 ff ff       	call   8049840 <strcasecmp@plt>
 804ee69:	85 c0                	test   %eax,%eax
 804ee6b:	75 07                	jne    804ee74 <_which_algo+0x165>
 804ee6d:	b8 00 00 00 00       	mov    $0x0,%eax
 804ee72:	eb 23                	jmp    804ee97 <_which_algo+0x188>
 804ee74:	c7 44 24 04 a5 57 05 	movl   $0x80557a5,0x4(%esp)
 804ee7b:	08 
 804ee7c:	8b 45 08             	mov    0x8(%ebp),%eax
 804ee7f:	89 04 24             	mov    %eax,(%esp)
 804ee82:	e8 b9 a9 ff ff       	call   8049840 <strcasecmp@plt>
 804ee87:	85 c0                	test   %eax,%eax
 804ee89:	75 07                	jne    804ee92 <_which_algo+0x183>
 804ee8b:	b8 00 00 00 00       	mov    $0x0,%eax
 804ee90:	eb 05                	jmp    804ee97 <_which_algo+0x188>
 804ee92:	b8 ff ff ff ff       	mov    $0xffffffff,%eax
 804ee97:	c9                   	leave  
 804ee98:	c3                   	ret    

0804ee99 <get_rand32>:
 804ee99:	55                   	push   %ebp
 804ee9a:	89 e5                	mov    %esp,%ebp
 804ee9c:	83 ec 28             	sub    $0x28,%esp
 804ee9f:	c7 44 24 04 00 00 00 	movl   $0x0,0x4(%esp)
 804eea6:	00 
 804eea7:	c7 04 24 d2 57 05 08 	movl   $0x80557d2,(%esp)
 804eeae:	e8 ed a8 ff ff       	call   80497a0 <open@plt>
 804eeb3:	89 45 f4             	mov    %eax,-0xc(%ebp)
 804eeb6:	83 7d f4 ff          	cmpl   $0xffffffff,-0xc(%ebp)
 804eeba:	75 18                	jne    804eed4 <get_rand32+0x3b>
 804eebc:	c7 04 24 d2 57 05 08 	movl   $0x80557d2,(%esp)
 804eec3:	e8 98 a7 ff ff       	call   8049660 <perror@plt>
 804eec8:	c7 04 24 ff ff ff ff 	movl   $0xffffffff,(%esp)
 804eecf:	e8 ac a8 ff ff       	call   8049780 <exit@plt>
 804eed4:	c7 44 24 08 04 00 00 	movl   $0x4,0x8(%esp)
 804eedb:	00 
 804eedc:	8d 45 ec             	lea    -0x14(%ebp),%eax
 804eedf:	89 44 24 04          	mov    %eax,0x4(%esp)
 804eee3:	8b 45 f4             	mov    -0xc(%ebp),%eax
 804eee6:	89 04 24             	mov    %eax,(%esp)
 804eee9:	e8 62 a5 ff ff       	call   8049450 <read@plt>
 804eeee:	89 45 f0             	mov    %eax,-0x10(%ebp)
 804eef1:	83 7d f0 04          	cmpl   $0x4,-0x10(%ebp)
 804eef5:	74 06                	je     804eefd <get_rand32+0x64>
 804eef7:	83 7d f0 00          	cmpl   $0x0,-0x10(%ebp)
 804eefb:	7f d7                	jg     804eed4 <get_rand32+0x3b>
 804eefd:	8b 45 f4             	mov    -0xc(%ebp),%eax
 804ef00:	89 04 24             	mov    %eax,(%esp)
 804ef03:	e8 48 ab ff ff       	call   8049a50 <close@plt>
 804ef08:	8b 45 ec             	mov    -0x14(%ebp),%eax
 804ef0b:	c9                   	leave  
 804ef0c:	c3                   	ret    

0804ef0d <get_rand8>:
 804ef0d:	55                   	push   %ebp
 804ef0e:	89 e5                	mov    %esp,%ebp
 804ef10:	83 ec 28             	sub    $0x28,%esp
 804ef13:	c7 44 24 04 00 00 00 	movl   $0x0,0x4(%esp)
 804ef1a:	00 
 804ef1b:	c7 04 24 d2 57 05 08 	movl   $0x80557d2,(%esp)
 804ef22:	e8 79 a8 ff ff       	call   80497a0 <open@plt>
 804ef27:	89 45 f4             	mov    %eax,-0xc(%ebp)
 804ef2a:	83 7d f4 ff          	cmpl   $0xffffffff,-0xc(%ebp)
 804ef2e:	75 18                	jne    804ef48 <get_rand8+0x3b>
 804ef30:	c7 04 24 d2 57 05 08 	movl   $0x80557d2,(%esp)
 804ef37:	e8 24 a7 ff ff       	call   8049660 <perror@plt>
 804ef3c:	c7 04 24 ff ff ff ff 	movl   $0xffffffff,(%esp)
 804ef43:	e8 38 a8 ff ff       	call   8049780 <exit@plt>
 804ef48:	c7 44 24 08 01 00 00 	movl   $0x1,0x8(%esp)
 804ef4f:	00 
 804ef50:	8d 45 ef             	lea    -0x11(%ebp),%eax
 804ef53:	89 44 24 04          	mov    %eax,0x4(%esp)
 804ef57:	8b 45 f4             	mov    -0xc(%ebp),%eax
 804ef5a:	89 04 24             	mov    %eax,(%esp)
 804ef5d:	e8 ee a4 ff ff       	call   8049450 <read@plt>
 804ef62:	89 45 f0             	mov    %eax,-0x10(%ebp)
 804ef65:	83 7d f0 01          	cmpl   $0x1,-0x10(%ebp)
 804ef69:	74 06                	je     804ef71 <get_rand8+0x64>
 804ef6b:	83 7d f0 00          	cmpl   $0x0,-0x10(%ebp)
 804ef6f:	7f d7                	jg     804ef48 <get_rand8+0x3b>
 804ef71:	8b 45 f4             	mov    -0xc(%ebp),%eax
 804ef74:	89 04 24             	mov    %eax,(%esp)
 804ef77:	e8 d4 aa ff ff       	call   8049a50 <close@plt>
 804ef7c:	0f b6 45 ef          	movzbl -0x11(%ebp),%eax
 804ef80:	c9                   	leave  
 804ef81:	c3                   	ret    

0804ef82 <get_safe_rand32>:
 804ef82:	55                   	push   %ebp
 804ef83:	89 e5                	mov    %esp,%ebp
 804ef85:	83 ec 28             	sub    $0x28,%esp
 804ef88:	c7 44 24 04 00 00 00 	movl   $0x0,0x4(%esp)
 804ef8f:	00 
 804ef90:	c7 04 24 df 57 05 08 	movl   $0x80557df,(%esp)
 804ef97:	e8 04 a8 ff ff       	call   80497a0 <open@plt>
 804ef9c:	89 45 f4             	mov    %eax,-0xc(%ebp)
 804ef9f:	83 7d f4 ff          	cmpl   $0xffffffff,-0xc(%ebp)
 804efa3:	75 18                	jne    804efbd <get_safe_rand32+0x3b>
 804efa5:	c7 04 24 df 57 05 08 	movl   $0x80557df,(%esp)
 804efac:	e8 af a6 ff ff       	call   8049660 <perror@plt>
 804efb1:	c7 04 24 ff ff ff ff 	movl   $0xffffffff,(%esp)
 804efb8:	e8 c3 a7 ff ff       	call   8049780 <exit@plt>
 804efbd:	c7 44 24 08 04 00 00 	movl   $0x4,0x8(%esp)
 804efc4:	00 
 804efc5:	8d 45 ec             	lea    -0x14(%ebp),%eax
 804efc8:	89 44 24 04          	mov    %eax,0x4(%esp)
 804efcc:	8b 45 f4             	mov    -0xc(%ebp),%eax
 804efcf:	89 04 24             	mov    %eax,(%esp)
 804efd2:	e8 79 a4 ff ff       	call   8049450 <read@plt>
 804efd7:	89 45 f0             	mov    %eax,-0x10(%ebp)
 804efda:	83 7d f0 04          	cmpl   $0x4,-0x10(%ebp)
 804efde:	74 06                	je     804efe6 <get_safe_rand32+0x64>
 804efe0:	83 7d f0 00          	cmpl   $0x0,-0x10(%ebp)
 804efe4:	7f d7                	jg     804efbd <get_safe_rand32+0x3b>
 804efe6:	8b 45 f4             	mov    -0xc(%ebp),%eax
 804efe9:	89 04 24             	mov    %eax,(%esp)
 804efec:	e8 5f aa ff ff       	call   8049a50 <close@plt>
 804eff1:	8b 45 ec             	mov    -0x14(%ebp),%eax
 804eff4:	c9                   	leave  
 804eff5:	c3                   	ret    

0804eff6 <get_safe_rand8>:
 804eff6:	55                   	push   %ebp
 804eff7:	89 e5                	mov    %esp,%ebp
 804eff9:	83 ec 28             	sub    $0x28,%esp
 804effc:	c7 44 24 04 00 00 00 	movl   $0x0,0x4(%esp)
 804f003:	00 
 804f004:	c7 04 24 df 57 05 08 	movl   $0x80557df,(%esp)
 804f00b:	e8 90 a7 ff ff       	call   80497a0 <open@plt>
 804f010:	89 45 f4             	mov    %eax,-0xc(%ebp)
 804f013:	83 7d f4 ff          	cmpl   $0xffffffff,-0xc(%ebp)
 804f017:	75 18                	jne    804f031 <get_safe_rand8+0x3b>
 804f019:	c7 04 24 df 57 05 08 	movl   $0x80557df,(%esp)
 804f020:	e8 3b a6 ff ff       	call   8049660 <perror@plt>
 804f025:	c7 04 24 ff ff ff ff 	movl   $0xffffffff,(%esp)
 804f02c:	e8 4f a7 ff ff       	call   8049780 <exit@plt>
 804f031:	c7 44 24 08 01 00 00 	movl   $0x1,0x8(%esp)
 804f038:	00 
 804f039:	8d 45 ef             	lea    -0x11(%ebp),%eax
 804f03c:	89 44 24 04          	mov    %eax,0x4(%esp)
 804f040:	8b 45 f4             	mov    -0xc(%ebp),%eax
 804f043:	89 04 24             	mov    %eax,(%esp)
 804f046:	e8 05 a4 ff ff       	call   8049450 <read@plt>
 804f04b:	89 45 f0             	mov    %eax,-0x10(%ebp)
 804f04e:	83 7d f0 01          	cmpl   $0x1,-0x10(%ebp)
 804f052:	74 06                	je     804f05a <get_safe_rand8+0x64>
 804f054:	83 7d f0 00          	cmpl   $0x0,-0x10(%ebp)
 804f058:	7f d7                	jg     804f031 <get_safe_rand8+0x3b>
 804f05a:	8b 45 f4             	mov    -0xc(%ebp),%eax
 804f05d:	89 04 24             	mov    %eax,(%esp)
 804f060:	e8 eb a9 ff ff       	call   8049a50 <close@plt>
 804f065:	0f b6 45 ef          	movzbl -0x11(%ebp),%eax
 804f069:	c9                   	leave  
 804f06a:	c3                   	ret    

0804f06b <open_rand>:
 804f06b:	55                   	push   %ebp
 804f06c:	89 e5                	mov    %esp,%ebp
 804f06e:	83 ec 18             	sub    $0x18,%esp
 804f071:	83 7d 08 00          	cmpl   $0x0,0x8(%ebp)
 804f075:	75 3a                	jne    804f0b1 <open_rand+0x46>
 804f077:	c7 44 24 04 eb 57 05 	movl   $0x80557eb,0x4(%esp)
 804f07e:	08 
 804f07f:	c7 04 24 d2 57 05 08 	movl   $0x80557d2,(%esp)
 804f086:	e8 15 a8 ff ff       	call   80498a0 <fopen@plt>
 804f08b:	a3 08 a1 05 08       	mov    %eax,0x805a108
 804f090:	a1 08 a1 05 08       	mov    0x805a108,%eax
 804f095:	85 c0                	test   %eax,%eax
 804f097:	75 52                	jne    804f0eb <open_rand+0x80>
 804f099:	c7 04 24 d2 57 05 08 	movl   $0x80557d2,(%esp)
 804f0a0:	e8 bb a5 ff ff       	call   8049660 <perror@plt>
 804f0a5:	c7 04 24 ff ff ff ff 	movl   $0xffffffff,(%esp)
 804f0ac:	e8 cf a6 ff ff       	call   8049780 <exit@plt>
 804f0b1:	c7 44 24 04 eb 57 05 	movl   $0x80557eb,0x4(%esp)
 804f0b8:	08 
 804f0b9:	c7 04 24 df 57 05 08 	movl   $0x80557df,(%esp)
 804f0c0:	e8 db a7 ff ff       	call   80498a0 <fopen@plt>
 804f0c5:	a3 08 a1 05 08       	mov    %eax,0x805a108
 804f0ca:	a1 08 a1 05 08       	mov    0x805a108,%eax
 804f0cf:	85 c0                	test   %eax,%eax
 804f0d1:	75 18                	jne    804f0eb <open_rand+0x80>
 804f0d3:	c7 04 24 df 57 05 08 	movl   $0x80557df,(%esp)
 804f0da:	e8 81 a5 ff ff       	call   8049660 <perror@plt>
 804f0df:	c7 04 24 ff ff ff ff 	movl   $0xffffffff,(%esp)
 804f0e6:	e8 95 a6 ff ff       	call   8049780 <exit@plt>
 804f0eb:	b8 00 00 00 00       	mov    $0x0,%eax
 804f0f0:	c9                   	leave  
 804f0f1:	c3                   	ret    

0804f0f2 <close_rand>:
 804f0f2:	55                   	push   %ebp
 804f0f3:	89 e5                	mov    %esp,%ebp
 804f0f5:	83 ec 18             	sub    $0x18,%esp
 804f0f8:	a1 08 a1 05 08       	mov    0x805a108,%eax
 804f0fd:	89 04 24             	mov    %eax,(%esp)
 804f100:	e8 4b a4 ff ff       	call   8049550 <fclose@plt>
 804f105:	c9                   	leave  
 804f106:	c3                   	ret    

0804f107 <get_o_rand32>:
 804f107:	55                   	push   %ebp
 804f108:	89 e5                	mov    %esp,%ebp
 804f10a:	83 ec 28             	sub    $0x28,%esp
 804f10d:	a1 08 a1 05 08       	mov    0x805a108,%eax
 804f112:	89 44 24 0c          	mov    %eax,0xc(%esp)
 804f116:	c7 44 24 08 01 00 00 	movl   $0x1,0x8(%esp)
 804f11d:	00 
 804f11e:	c7 44 24 04 04 00 00 	movl   $0x4,0x4(%esp)
 804f125:	00 
 804f126:	8d 45 f0             	lea    -0x10(%ebp),%eax
 804f129:	89 04 24             	mov    %eax,(%esp)
 804f12c:	e8 7f a5 ff ff       	call   80496b0 <fread@plt>
 804f131:	89 45 f4             	mov    %eax,-0xc(%ebp)
 804f134:	83 7d f4 04          	cmpl   $0x4,-0xc(%ebp)
 804f138:	74 06                	je     804f140 <get_o_rand32+0x39>
 804f13a:	83 7d f4 00          	cmpl   $0x0,-0xc(%ebp)
 804f13e:	7f cd                	jg     804f10d <get_o_rand32+0x6>
 804f140:	8b 45 f0             	mov    -0x10(%ebp),%eax
 804f143:	c9                   	leave  
 804f144:	c3                   	ret    

0804f145 <get_o_rand8>:
 804f145:	55                   	push   %ebp
 804f146:	89 e5                	mov    %esp,%ebp
 804f148:	83 ec 28             	sub    $0x28,%esp
 804f14b:	a1 08 a1 05 08       	mov    0x805a108,%eax
 804f150:	89 44 24 0c          	mov    %eax,0xc(%esp)
 804f154:	c7 44 24 08 01 00 00 	movl   $0x1,0x8(%esp)
 804f15b:	00 
 804f15c:	c7 44 24 04 01 00 00 	movl   $0x1,0x4(%esp)
 804f163:	00 
 804f164:	8d 45 f3             	lea    -0xd(%ebp),%eax
 804f167:	89 04 24             	mov    %eax,(%esp)
 804f16a:	e8 41 a5 ff ff       	call   80496b0 <fread@plt>
 804f16f:	89 45 f4             	mov    %eax,-0xc(%ebp)
 804f172:	83 7d f4 01          	cmpl   $0x1,-0xc(%ebp)
 804f176:	74 06                	je     804f17e <get_o_rand8+0x39>
 804f178:	83 7d f4 00          	cmpl   $0x0,-0xc(%ebp)
 804f17c:	7f cd                	jg     804f14b <get_o_rand8+0x6>
 804f17e:	0f b6 45 f3          	movzbl -0xd(%ebp),%eax
 804f182:	c9                   	leave  
 804f183:	c3                   	ret    

0804f184 <_mcrypt_malloc>:
 804f184:	55                   	push   %ebp
 804f185:	89 e5                	mov    %esp,%ebp
 804f187:	83 ec 28             	sub    $0x28,%esp
 804f18a:	83 7d 08 00          	cmpl   $0x0,0x8(%ebp)
 804f18e:	75 07                	jne    804f197 <_mcrypt_malloc+0x13>
 804f190:	b8 00 00 00 00       	mov    $0x0,%eax
 804f195:	eb 43                	jmp    804f1da <_mcrypt_malloc+0x56>
 804f197:	8b 45 08             	mov    0x8(%ebp),%eax
 804f19a:	89 04 24             	mov    %eax,(%esp)
 804f19d:	e8 8e a5 ff ff       	call   8049730 <malloc@plt>
 804f1a2:	89 45 f4             	mov    %eax,-0xc(%ebp)
 804f1a5:	83 7d f4 00          	cmpl   $0x0,-0xc(%ebp)
 804f1a9:	74 05                	je     804f1b0 <_mcrypt_malloc+0x2c>
 804f1ab:	8b 45 f4             	mov    -0xc(%ebp),%eax
 804f1ae:	eb 2a                	jmp    804f1da <_mcrypt_malloc+0x56>
 804f1b0:	c7 04 24 ee 57 05 08 	movl   $0x80557ee,(%esp)
 804f1b7:	e8 f4 a5 ff ff       	call   80497b0 <gettext@plt>
 804f1bc:	8b 15 80 a0 05 08    	mov    0x805a080,%edx
 804f1c2:	89 44 24 04          	mov    %eax,0x4(%esp)
 804f1c6:	89 14 24             	mov    %edx,(%esp)
 804f1c9:	e8 62 a6 ff ff       	call   8049830 <fprintf@plt>
 804f1ce:	c7 04 24 ff ff ff ff 	movl   $0xffffffff,(%esp)
 804f1d5:	e8 a6 a5 ff ff       	call   8049780 <exit@plt>
 804f1da:	c9                   	leave  
 804f1db:	c3                   	ret    

0804f1dc <_mcrypt_calloc>:
 804f1dc:	55                   	push   %ebp
 804f1dd:	89 e5                	mov    %esp,%ebp
 804f1df:	83 ec 28             	sub    $0x28,%esp
 804f1e2:	83 7d 0c 00          	cmpl   $0x0,0xc(%ebp)
 804f1e6:	75 07                	jne    804f1ef <_mcrypt_calloc+0x13>
 804f1e8:	b8 00 00 00 00       	mov    $0x0,%eax
 804f1ed:	eb 4a                	jmp    804f239 <_mcrypt_calloc+0x5d>
 804f1ef:	8b 45 0c             	mov    0xc(%ebp),%eax
 804f1f2:	89 44 24 04          	mov    %eax,0x4(%esp)
 804f1f6:	8b 45 08             	mov    0x8(%ebp),%eax
 804f1f9:	89 04 24             	mov    %eax,(%esp)
 804f1fc:	e8 8f a8 ff ff       	call   8049a90 <calloc@plt>
 804f201:	89 45 f4             	mov    %eax,-0xc(%ebp)
 804f204:	83 7d f4 00          	cmpl   $0x0,-0xc(%ebp)
 804f208:	74 05                	je     804f20f <_mcrypt_calloc+0x33>
 804f20a:	8b 45 f4             	mov    -0xc(%ebp),%eax
 804f20d:	eb 2a                	jmp    804f239 <_mcrypt_calloc+0x5d>
 804f20f:	c7 04 24 ee 57 05 08 	movl   $0x80557ee,(%esp)
 804f216:	e8 95 a5 ff ff       	call   80497b0 <gettext@plt>
 804f21b:	8b 15 80 a0 05 08    	mov    0x805a080,%edx
 804f221:	89 44 24 04          	mov    %eax,0x4(%esp)
 804f225:	89 14 24             	mov    %edx,(%esp)
 804f228:	e8 03 a6 ff ff       	call   8049830 <fprintf@plt>
 804f22d:	c7 04 24 ff ff ff ff 	movl   $0xffffffff,(%esp)
 804f234:	e8 47 a5 ff ff       	call   8049780 <exit@plt>
 804f239:	c9                   	leave  
 804f23a:	c3                   	ret    

0804f23b <_mcrypt_realloc>:
 804f23b:	55                   	push   %ebp
 804f23c:	89 e5                	mov    %esp,%ebp
 804f23e:	83 ec 28             	sub    $0x28,%esp
 804f241:	8b 45 0c             	mov    0xc(%ebp),%eax
 804f244:	89 44 24 04          	mov    %eax,0x4(%esp)
 804f248:	8b 45 08             	mov    0x8(%ebp),%eax
 804f24b:	89 04 24             	mov    %eax,(%esp)
 804f24e:	e8 cd a4 ff ff       	call   8049720 <realloc@plt>
 804f253:	89 45 f4             	mov    %eax,-0xc(%ebp)
 804f256:	83 7d f4 00          	cmpl   $0x0,-0xc(%ebp)
 804f25a:	74 05                	je     804f261 <_mcrypt_realloc+0x26>
 804f25c:	8b 45 f4             	mov    -0xc(%ebp),%eax
 804f25f:	eb 2a                	jmp    804f28b <_mcrypt_realloc+0x50>
 804f261:	c7 04 24 ee 57 05 08 	movl   $0x80557ee,(%esp)
 804f268:	e8 43 a5 ff ff       	call   80497b0 <gettext@plt>
 804f26d:	8b 15 80 a0 05 08    	mov    0x805a080,%edx
 804f273:	89 44 24 04          	mov    %eax,0x4(%esp)
 804f277:	89 14 24             	mov    %edx,(%esp)
 804f27a:	e8 b1 a5 ff ff       	call   8049830 <fprintf@plt>
 804f27f:	c7 04 24 ff ff ff ff 	movl   $0xffffffff,(%esp)
 804f286:	e8 f5 a4 ff ff       	call   8049780 <exit@plt>
 804f28b:	c9                   	leave  
 804f28c:	c3                   	ret    

0804f28d <_secure_mcrypt_malloc>:
 804f28d:	55                   	push   %ebp
 804f28e:	89 e5                	mov    %esp,%ebp
 804f290:	83 ec 28             	sub    $0x28,%esp
 804f293:	8b 45 08             	mov    0x8(%ebp),%eax
 804f296:	89 04 24             	mov    %eax,(%esp)
 804f299:	e8 92 a4 ff ff       	call   8049730 <malloc@plt>
 804f29e:	89 45 f4             	mov    %eax,-0xc(%ebp)
 804f2a1:	83 7d f4 00          	cmpl   $0x0,-0xc(%ebp)
 804f2a5:	74 05                	je     804f2ac <_secure_mcrypt_malloc+0x1f>
 804f2a7:	8b 45 f4             	mov    -0xc(%ebp),%eax
 804f2aa:	eb 2a                	jmp    804f2d6 <_secure_mcrypt_malloc+0x49>
 804f2ac:	c7 04 24 ee 57 05 08 	movl   $0x80557ee,(%esp)
 804f2b3:	e8 f8 a4 ff ff       	call   80497b0 <gettext@plt>
 804f2b8:	8b 15 80 a0 05 08    	mov    0x805a080,%edx
 804f2be:	89 44 24 04          	mov    %eax,0x4(%esp)
 804f2c2:	89 14 24             	mov    %edx,(%esp)
 804f2c5:	e8 66 a5 ff ff       	call   8049830 <fprintf@plt>
 804f2ca:	c7 04 24 ff ff ff ff 	movl   $0xffffffff,(%esp)
 804f2d1:	e8 aa a4 ff ff       	call   8049780 <exit@plt>
 804f2d6:	c9                   	leave  
 804f2d7:	c3                   	ret    

0804f2d8 <_secure_mcrypt_calloc>:
 804f2d8:	55                   	push   %ebp
 804f2d9:	89 e5                	mov    %esp,%ebp
 804f2db:	83 ec 28             	sub    $0x28,%esp
 804f2de:	8b 45 0c             	mov    0xc(%ebp),%eax
 804f2e1:	89 44 24 04          	mov    %eax,0x4(%esp)
 804f2e5:	8b 45 08             	mov    0x8(%ebp),%eax
 804f2e8:	89 04 24             	mov    %eax,(%esp)
 804f2eb:	e8 a0 a7 ff ff       	call   8049a90 <calloc@plt>
 804f2f0:	89 45 f4             	mov    %eax,-0xc(%ebp)
 804f2f3:	83 7d f4 00          	cmpl   $0x0,-0xc(%ebp)
 804f2f7:	74 05                	je     804f2fe <_secure_mcrypt_calloc+0x26>
 804f2f9:	8b 45 f4             	mov    -0xc(%ebp),%eax
 804f2fc:	eb 2a                	jmp    804f328 <_secure_mcrypt_calloc+0x50>
 804f2fe:	c7 04 24 ee 57 05 08 	movl   $0x80557ee,(%esp)
 804f305:	e8 a6 a4 ff ff       	call   80497b0 <gettext@plt>
 804f30a:	8b 15 80 a0 05 08    	mov    0x805a080,%edx
 804f310:	89 44 24 04          	mov    %eax,0x4(%esp)
 804f314:	89 14 24             	mov    %edx,(%esp)
 804f317:	e8 14 a5 ff ff       	call   8049830 <fprintf@plt>
 804f31c:	c7 04 24 ff ff ff ff 	movl   $0xffffffff,(%esp)
 804f323:	e8 58 a4 ff ff       	call   8049780 <exit@plt>
 804f328:	c9                   	leave  
 804f329:	c3                   	ret    

0804f32a <_secure_mcrypt_realloc>:
 804f32a:	55                   	push   %ebp
 804f32b:	89 e5                	mov    %esp,%ebp
 804f32d:	83 ec 28             	sub    $0x28,%esp
 804f330:	8b 45 0c             	mov    0xc(%ebp),%eax
 804f333:	89 44 24 04          	mov    %eax,0x4(%esp)
 804f337:	8b 45 08             	mov    0x8(%ebp),%eax
 804f33a:	89 04 24             	mov    %eax,(%esp)
 804f33d:	e8 de a3 ff ff       	call   8049720 <realloc@plt>
 804f342:	89 45 f4             	mov    %eax,-0xc(%ebp)
 804f345:	83 7d f4 00          	cmpl   $0x0,-0xc(%ebp)
 804f349:	74 05                	je     804f350 <_secure_mcrypt_realloc+0x26>
 804f34b:	8b 45 f4             	mov    -0xc(%ebp),%eax
 804f34e:	eb 2a                	jmp    804f37a <_secure_mcrypt_realloc+0x50>
 804f350:	c7 04 24 ee 57 05 08 	movl   $0x80557ee,(%esp)
 804f357:	e8 54 a4 ff ff       	call   80497b0 <gettext@plt>
 804f35c:	8b 15 80 a0 05 08    	mov    0x805a080,%edx
 804f362:	89 44 24 04          	mov    %eax,0x4(%esp)
 804f366:	89 14 24             	mov    %edx,(%esp)
 804f369:	e8 c2 a4 ff ff       	call   8049830 <fprintf@plt>
 804f36e:	c7 04 24 ff ff ff ff 	movl   $0xffffffff,(%esp)
 804f375:	e8 06 a4 ff ff       	call   8049780 <exit@plt>
 804f37a:	c9                   	leave  
 804f37b:	c3                   	ret    

0804f37c <_mcrypt_free>:
 804f37c:	55                   	push   %ebp
 804f37d:	89 e5                	mov    %esp,%ebp
 804f37f:	83 ec 18             	sub    $0x18,%esp
 804f382:	8b 45 08             	mov    0x8(%ebp),%eax
 804f385:	89 04 24             	mov    %eax,(%esp)
 804f388:	e8 63 a1 ff ff       	call   80494f0 <free@plt>
 804f38d:	c9                   	leave  
 804f38e:	c3                   	ret    

0804f38f <_secure_mcrypt_free>:
 804f38f:	55                   	push   %ebp
 804f390:	89 e5                	mov    %esp,%ebp
 804f392:	83 ec 18             	sub    $0x18,%esp
 804f395:	8b 45 0c             	mov    0xc(%ebp),%eax
 804f398:	89 44 24 04          	mov    %eax,0x4(%esp)
 804f39c:	8b 45 08             	mov    0x8(%ebp),%eax
 804f39f:	89 04 24             	mov    %eax,(%esp)
 804f3a2:	e8 09 b8 ff ff       	call   804abb0 <Bzero>
 804f3a7:	8b 45 08             	mov    0x8(%ebp),%eax
 804f3aa:	89 04 24             	mov    %eax,(%esp)
 804f3ad:	e8 3e a1 ff ff       	call   80494f0 <free@plt>
 804f3b2:	c9                   	leave  
 804f3b3:	c3                   	ret    

0804f3b4 <Signal>:
 804f3b4:	55                   	push   %ebp
 804f3b5:	89 e5                	mov    %esp,%ebp
 804f3b7:	81 ec 38 01 00 00    	sub    $0x138,%esp
 804f3bd:	8b 45 0c             	mov    0xc(%ebp),%eax
 804f3c0:	89 85 6c ff ff ff    	mov    %eax,-0x94(%ebp)
 804f3c6:	8d 85 6c ff ff ff    	lea    -0x94(%ebp),%eax
 804f3cc:	83 c0 04             	add    $0x4,%eax
 804f3cf:	89 04 24             	mov    %eax,(%esp)
 804f3d2:	e8 79 a5 ff ff       	call   8049950 <sigemptyset@plt>
 804f3d7:	c7 45 f0 00 00 00 00 	movl   $0x0,-0x10(%ebp)
 804f3de:	83 7d 08 0e          	cmpl   $0xe,0x8(%ebp)
 804f3e2:	75 0d                	jne    804f3f1 <Signal+0x3d>
 804f3e4:	8b 45 f0             	mov    -0x10(%ebp),%eax
 804f3e7:	0d 00 00 00 20       	or     $0x20000000,%eax
 804f3ec:	89 45 f0             	mov    %eax,-0x10(%ebp)
 804f3ef:	eb 0b                	jmp    804f3fc <Signal+0x48>
 804f3f1:	8b 45 f0             	mov    -0x10(%ebp),%eax
 804f3f4:	0d 00 00 00 10       	or     $0x10000000,%eax
 804f3f9:	89 45 f0             	mov    %eax,-0x10(%ebp)
 804f3fc:	8d 85 e0 fe ff ff    	lea    -0x120(%ebp),%eax
 804f402:	89 44 24 08          	mov    %eax,0x8(%esp)
 804f406:	8d 85 6c ff ff ff    	lea    -0x94(%ebp),%eax
 804f40c:	89 44 24 04          	mov    %eax,0x4(%esp)
 804f410:	8b 45 08             	mov    0x8(%ebp),%eax
 804f413:	89 04 24             	mov    %eax,(%esp)
 804f416:	e8 c5 a5 ff ff       	call   80499e0 <sigaction@plt>
 804f41b:	85 c0                	test   %eax,%eax
 804f41d:	79 07                	jns    804f426 <Signal+0x72>
 804f41f:	b8 ff ff ff ff       	mov    $0xffffffff,%eax
 804f424:	eb 06                	jmp    804f42c <Signal+0x78>
 804f426:	8b 85 e0 fe ff ff    	mov    -0x120(%ebp),%eax
 804f42c:	c9                   	leave  
 804f42d:	c3                   	ret    

0804f42e <err_quit>:
 804f42e:	55                   	push   %ebp
 804f42f:	89 e5                	mov    %esp,%ebp
 804f431:	83 ec 18             	sub    $0x18,%esp
 804f434:	a1 80 a0 05 08       	mov    0x805a080,%eax
 804f439:	8b 55 08             	mov    0x8(%ebp),%edx
 804f43c:	89 54 24 04          	mov    %edx,0x4(%esp)
 804f440:	89 04 24             	mov    %eax,(%esp)
 804f443:	e8 e8 a3 ff ff       	call   8049830 <fprintf@plt>
 804f448:	c7 04 24 ff ff ff ff 	movl   $0xffffffff,(%esp)
 804f44f:	e8 2c a3 ff ff       	call   8049780 <exit@plt>

0804f454 <err_warn>:
 804f454:	55                   	push   %ebp
 804f455:	89 e5                	mov    %esp,%ebp
 804f457:	83 ec 18             	sub    $0x18,%esp
 804f45a:	a1 58 92 05 08       	mov    0x8059258,%eax
 804f45f:	83 f8 01             	cmp    $0x1,%eax
 804f462:	7f 14                	jg     804f478 <err_warn+0x24>
 804f464:	a1 80 a0 05 08       	mov    0x805a080,%eax
 804f469:	8b 55 08             	mov    0x8(%ebp),%edx
 804f46c:	89 54 24 04          	mov    %edx,0x4(%esp)
 804f470:	89 04 24             	mov    %eax,(%esp)
 804f473:	e8 b8 a3 ff ff       	call   8049830 <fprintf@plt>
 804f478:	c9                   	leave  
 804f479:	c3                   	ret    

0804f47a <err_crit>:
 804f47a:	55                   	push   %ebp
 804f47b:	89 e5                	mov    %esp,%ebp
 804f47d:	83 ec 18             	sub    $0x18,%esp
 804f480:	a1 58 92 05 08       	mov    0x8059258,%eax
 804f485:	83 f8 02             	cmp    $0x2,%eax
 804f488:	7f 14                	jg     804f49e <err_crit+0x24>
 804f48a:	a1 80 a0 05 08       	mov    0x805a080,%eax
 804f48f:	8b 55 08             	mov    0x8(%ebp),%edx
 804f492:	89 54 24 04          	mov    %edx,0x4(%esp)
 804f496:	89 04 24             	mov    %eax,(%esp)
 804f499:	e8 92 a3 ff ff       	call   8049830 <fprintf@plt>
 804f49e:	c9                   	leave  
 804f49f:	c3                   	ret    

0804f4a0 <m_setbit>:
 804f4a0:	55                   	push   %ebp
 804f4a1:	89 e5                	mov    %esp,%ebp
 804f4a3:	83 7d 10 01          	cmpl   $0x1,0x10(%ebp)
 804f4a7:	75 13                	jne    804f4bc <m_setbit+0x1c>
 804f4a9:	8b 45 08             	mov    0x8(%ebp),%eax
 804f4ac:	ba 01 00 00 00       	mov    $0x1,%edx
 804f4b1:	89 c1                	mov    %eax,%ecx
 804f4b3:	d3 e2                	shl    %cl,%edx
 804f4b5:	89 d0                	mov    %edx,%eax
 804f4b7:	0b 45 0c             	or     0xc(%ebp),%eax
 804f4ba:	eb 13                	jmp    804f4cf <m_setbit+0x2f>
 804f4bc:	8b 45 08             	mov    0x8(%ebp),%eax
 804f4bf:	ba 01 00 00 00       	mov    $0x1,%edx
 804f4c4:	89 c1                	mov    %eax,%ecx
 804f4c6:	d3 e2                	shl    %cl,%edx
 804f4c8:	89 d0                	mov    %edx,%eax
 804f4ca:	f7 d0                	not    %eax
 804f4cc:	23 45 0c             	and    0xc(%ebp),%eax
 804f4cf:	5d                   	pop    %ebp
 804f4d0:	c3                   	ret    

0804f4d1 <check_env>:
 804f4d1:	55                   	push   %ebp
 804f4d2:	89 e5                	mov    %esp,%ebp
 804f4d4:	83 ec 18             	sub    $0x18,%esp
 804f4d7:	c7 04 24 06 58 05 08 	movl   $0x8055806,(%esp)
 804f4de:	e8 2d a2 ff ff       	call   8049710 <getenv@plt>
 804f4e3:	85 c0                	test   %eax,%eax
 804f4e5:	75 20                	jne    804f507 <check_env+0x36>
 804f4e7:	c7 04 24 11 58 05 08 	movl   $0x8055811,(%esp)
 804f4ee:	e8 1d a2 ff ff       	call   8049710 <getenv@plt>
 804f4f3:	85 c0                	test   %eax,%eax
 804f4f5:	75 10                	jne    804f507 <check_env+0x36>
 804f4f7:	c7 04 24 1d 58 05 08 	movl   $0x805581d,(%esp)
 804f4fe:	e8 0d a2 ff ff       	call   8049710 <getenv@plt>
 804f503:	85 c0                	test   %eax,%eax
 804f505:	74 07                	je     804f50e <check_env+0x3d>
 804f507:	b8 01 00 00 00       	mov    $0x1,%eax
 804f50c:	eb 05                	jmp    804f513 <check_env+0x42>
 804f50e:	b8 00 00 00 00       	mov    $0x0,%eax
 804f513:	c9                   	leave  
 804f514:	c3                   	ret    

0804f515 <get_env_key>:
 804f515:	55                   	push   %ebp
 804f516:	89 e5                	mov    %esp,%ebp
 804f518:	83 ec 28             	sub    $0x28,%esp
 804f51b:	c7 04 24 06 58 05 08 	movl   $0x8055806,(%esp)
 804f522:	e8 e9 a1 ff ff       	call   8049710 <getenv@plt>
 804f527:	85 c0                	test   %eax,%eax
 804f529:	74 25                	je     804f550 <get_env_key+0x3b>
 804f52b:	c7 04 24 04 00 00 00 	movl   $0x4,(%esp)
 804f532:	e8 4d fc ff ff       	call   804f184 <_mcrypt_malloc>
 804f537:	89 45 f4             	mov    %eax,-0xc(%ebp)
 804f53a:	c7 04 24 06 58 05 08 	movl   $0x8055806,(%esp)
 804f541:	e8 ca a1 ff ff       	call   8049710 <getenv@plt>
 804f546:	8b 55 f4             	mov    -0xc(%ebp),%edx
 804f549:	89 02                	mov    %eax,(%edx)
 804f54b:	8b 45 f4             	mov    -0xc(%ebp),%eax
 804f54e:	eb 05                	jmp    804f555 <get_env_key+0x40>
 804f550:	b8 00 00 00 00       	mov    $0x0,%eax
 804f555:	c9                   	leave  
 804f556:	c3                   	ret    

0804f557 <get_env_algo>:
 804f557:	55                   	push   %ebp
 804f558:	89 e5                	mov    %esp,%ebp
 804f55a:	83 ec 18             	sub    $0x18,%esp
 804f55d:	c7 04 24 11 58 05 08 	movl   $0x8055811,(%esp)
 804f564:	e8 a7 a1 ff ff       	call   8049710 <getenv@plt>
 804f569:	c9                   	leave  
 804f56a:	c3                   	ret    

0804f56b <get_env_mode>:
 804f56b:	55                   	push   %ebp
 804f56c:	89 e5                	mov    %esp,%ebp
 804f56e:	83 ec 18             	sub    $0x18,%esp
 804f571:	c7 04 24 1d 58 05 08 	movl   $0x805581d,(%esp)
 804f578:	e8 93 a1 ff ff       	call   8049710 <getenv@plt>
 804f57d:	c9                   	leave  
 804f57e:	c3                   	ret    

0804f57f <get_env_bit_mode>:
 804f57f:	55                   	push   %ebp
 804f580:	89 e5                	mov    %esp,%ebp
 804f582:	83 ec 18             	sub    $0x18,%esp
 804f585:	c7 04 24 29 58 05 08 	movl   $0x8055829,(%esp)
 804f58c:	e8 7f a1 ff ff       	call   8049710 <getenv@plt>
 804f591:	c9                   	leave  
 804f592:	c3                   	ret    

0804f593 <sig_catch>:
 804f593:	55                   	push   %ebp
 804f594:	89 e5                	mov    %esp,%ebp
 804f596:	83 ec 18             	sub    $0x18,%esp
 804f599:	c7 05 bc a1 05 08 01 	movl   $0x1,0x805a1bc
 804f5a0:	00 00 00 
 804f5a3:	c7 44 24 04 01 00 00 	movl   $0x1,0x4(%esp)
 804f5aa:	00 
 804f5ab:	c7 04 24 20 a1 05 08 	movl   $0x805a120,(%esp)
 804f5b2:	e8 b9 a4 ff ff       	call   8049a70 <siglongjmp@plt>

0804f5b7 <readpass>:
 804f5b7:	55                   	push   %ebp
 804f5b8:	89 e5                	mov    %esp,%ebp
 804f5ba:	53                   	push   %ebx
 804f5bb:	83 ec 34             	sub    $0x34,%esp
 804f5be:	c7 04 24 02 02 00 00 	movl   $0x202,(%esp)
 804f5c5:	e8 c3 fc ff ff       	call   804f28d <_secure_mcrypt_malloc>
 804f5ca:	89 45 e8             	mov    %eax,-0x18(%ebp)
 804f5cd:	a1 80 a0 05 08       	mov    0x805a080,%eax
 804f5d2:	89 04 24             	mov    %eax,(%esp)
 804f5d5:	e8 c6 9e ff ff       	call   80494a0 <fflush@plt>
 804f5da:	8b 45 e8             	mov    -0x18(%ebp),%eax
 804f5dd:	89 45 f4             	mov    %eax,-0xc(%ebp)
 804f5e0:	c7 45 f0 60 a2 05 08 	movl   $0x805a260,-0x10(%ebp)
 804f5e7:	c7 04 24 00 00 00 00 	movl   $0x0,(%esp)
 804f5ee:	e8 78 fa ff ff       	call   804f06b <open_rand>
 804f5f3:	e9 29 01 00 00       	jmp    804f721 <readpass+0x16a>
 804f5f8:	0f b6 45 e7          	movzbl -0x19(%ebp),%eax
 804f5fc:	0f be c0             	movsbl %al,%eax
 804f5ff:	83 f8 0a             	cmp    $0xa,%eax
 804f602:	0f 84 45 01 00 00    	je     804f74d <readpass+0x196>
 804f608:	83 f8 0a             	cmp    $0xa,%eax
 804f60b:	7f 0a                	jg     804f617 <readpass+0x60>
 804f60d:	83 f8 08             	cmp    $0x8,%eax
 804f610:	74 17                	je     804f629 <readpass+0x72>
 804f612:	e9 95 00 00 00       	jmp    804f6ac <readpass+0xf5>
 804f617:	83 f8 0d             	cmp    $0xd,%eax
 804f61a:	0f 84 2d 01 00 00    	je     804f74d <readpass+0x196>
 804f620:	83 f8 7f             	cmp    $0x7f,%eax
 804f623:	0f 85 83 00 00 00    	jne    804f6ac <readpass+0xf5>
 804f629:	8b 45 f4             	mov    -0xc(%ebp),%eax
 804f62c:	3b 45 e8             	cmp    -0x18(%ebp),%eax
 804f62f:	76 64                	jbe    804f695 <readpass+0xde>
 804f631:	83 6d f4 01          	subl   $0x1,-0xc(%ebp)
 804f635:	83 6d f0 01          	subl   $0x1,-0x10(%ebp)
 804f639:	c7 45 ec 00 00 00 00 	movl   $0x0,-0x14(%ebp)
 804f640:	eb 43                	jmp    804f685 <readpass+0xce>
 804f642:	a1 80 a0 05 08       	mov    0x805a080,%eax
 804f647:	89 44 24 04          	mov    %eax,0x4(%esp)
 804f64b:	c7 04 24 08 00 00 00 	movl   $0x8,(%esp)
 804f652:	e8 c9 9f ff ff       	call   8049620 <_IO_putc@plt>
 804f657:	a1 80 a0 05 08       	mov    0x805a080,%eax
 804f65c:	89 44 24 04          	mov    %eax,0x4(%esp)
 804f660:	c7 04 24 20 00 00 00 	movl   $0x20,(%esp)
 804f667:	e8 b4 9f ff ff       	call   8049620 <_IO_putc@plt>
 804f66c:	a1 80 a0 05 08       	mov    0x805a080,%eax
 804f671:	89 44 24 04          	mov    %eax,0x4(%esp)
 804f675:	c7 04 24 08 00 00 00 	movl   $0x8,(%esp)
 804f67c:	e8 9f 9f ff ff       	call   8049620 <_IO_putc@plt>
 804f681:	83 45 ec 01          	addl   $0x1,-0x14(%ebp)
 804f685:	8b 45 f0             	mov    -0x10(%ebp),%eax
 804f688:	0f b6 00             	movzbl (%eax),%eax
 804f68b:	0f be c0             	movsbl %al,%eax
 804f68e:	3b 45 ec             	cmp    -0x14(%ebp),%eax
 804f691:	7f af                	jg     804f642 <readpass+0x8b>
 804f693:	eb 70                	jmp    804f705 <readpass+0x14e>
 804f695:	a1 80 a0 05 08       	mov    0x805a080,%eax
 804f69a:	89 44 24 04          	mov    %eax,0x4(%esp)
 804f69e:	c7 04 24 07 00 00 00 	movl   $0x7,(%esp)
 804f6a5:	e8 76 9f ff ff       	call   8049620 <_IO_putc@plt>
 804f6aa:	eb 59                	jmp    804f705 <readpass+0x14e>
 804f6ac:	8b 45 f4             	mov    -0xc(%ebp),%eax
 804f6af:	8d 50 01             	lea    0x1(%eax),%edx
 804f6b2:	89 55 f4             	mov    %edx,-0xc(%ebp)
 804f6b5:	0f b6 55 e7          	movzbl -0x19(%ebp),%edx
 804f6b9:	88 10                	mov    %dl,(%eax)
 804f6bb:	8b 5d f0             	mov    -0x10(%ebp),%ebx
 804f6be:	8d 43 01             	lea    0x1(%ebx),%eax
 804f6c1:	89 45 f0             	mov    %eax,-0x10(%ebp)
 804f6c4:	e8 7c fa ff ff       	call   804f145 <get_o_rand8>
 804f6c9:	83 e0 03             	and    $0x3,%eax
 804f6cc:	83 c0 01             	add    $0x1,%eax
 804f6cf:	88 03                	mov    %al,(%ebx)
 804f6d1:	c7 45 ec 00 00 00 00 	movl   $0x0,-0x14(%ebp)
 804f6d8:	eb 19                	jmp    804f6f3 <readpass+0x13c>
 804f6da:	a1 80 a0 05 08       	mov    0x805a080,%eax
 804f6df:	89 44 24 04          	mov    %eax,0x4(%esp)
 804f6e3:	c7 04 24 2a 00 00 00 	movl   $0x2a,(%esp)
 804f6ea:	e8 31 9f ff ff       	call   8049620 <_IO_putc@plt>
 804f6ef:	83 45 ec 01          	addl   $0x1,-0x14(%ebp)
 804f6f3:	8b 45 f0             	mov    -0x10(%ebp),%eax
 804f6f6:	83 e8 01             	sub    $0x1,%eax
 804f6f9:	0f b6 00             	movzbl (%eax),%eax
 804f6fc:	0f be c0             	movsbl %al,%eax
 804f6ff:	3b 45 ec             	cmp    -0x14(%ebp),%eax
 804f702:	7f d6                	jg     804f6da <readpass+0x123>
 804f704:	90                   	nop
 804f705:	a1 80 a0 05 08       	mov    0x805a080,%eax
 804f70a:	89 04 24             	mov    %eax,(%esp)
 804f70d:	e8 8e 9d ff ff       	call   80494a0 <fflush@plt>
 804f712:	8b 45 e8             	mov    -0x18(%ebp),%eax
 804f715:	05 01 02 00 00       	add    $0x201,%eax
 804f71a:	3b 45 f4             	cmp    -0xc(%ebp),%eax
 804f71d:	75 02                	jne    804f721 <readpass+0x16a>
 804f71f:	eb 2d                	jmp    804f74e <readpass+0x197>
 804f721:	8b 45 08             	mov    0x8(%ebp),%eax
 804f724:	89 04 24             	mov    %eax,(%esp)
 804f727:	e8 c4 a1 ff ff       	call   80498f0 <fileno@plt>
 804f72c:	c7 44 24 08 01 00 00 	movl   $0x1,0x8(%esp)
 804f733:	00 
 804f734:	8d 55 e7             	lea    -0x19(%ebp),%edx
 804f737:	89 54 24 04          	mov    %edx,0x4(%esp)
 804f73b:	89 04 24             	mov    %eax,(%esp)
 804f73e:	e8 0d 9d ff ff       	call   8049450 <read@plt>
 804f743:	85 c0                	test   %eax,%eax
 804f745:	0f 85 ad fe ff ff    	jne    804f5f8 <readpass+0x41>
 804f74b:	eb 01                	jmp    804f74e <readpass+0x197>
 804f74d:	90                   	nop
 804f74e:	e8 9f f9 ff ff       	call   804f0f2 <close_rand>
 804f753:	8b 45 f4             	mov    -0xc(%ebp),%eax
 804f756:	c6 00 00             	movb   $0x0,(%eax)
 804f759:	a1 80 a0 05 08       	mov    0x805a080,%eax
 804f75e:	89 44 24 04          	mov    %eax,0x4(%esp)
 804f762:	c7 04 24 0a 00 00 00 	movl   $0xa,(%esp)
 804f769:	e8 b2 9e ff ff       	call   8049620 <_IO_putc@plt>
 804f76e:	a1 80 a0 05 08       	mov    0x805a080,%eax
 804f773:	89 04 24             	mov    %eax,(%esp)
 804f776:	e8 25 9d ff ff       	call   80494a0 <fflush@plt>
 804f77b:	8b 45 e8             	mov    -0x18(%ebp),%eax
 804f77e:	83 c4 34             	add    $0x34,%esp
 804f781:	5b                   	pop    %ebx
 804f782:	5d                   	pop    %ebp
 804f783:	c3                   	ret    

0804f784 <readpass_old>:
 804f784:	55                   	push   %ebp
 804f785:	89 e5                	mov    %esp,%ebp
 804f787:	83 ec 28             	sub    $0x28,%esp
 804f78a:	c7 04 24 02 02 00 00 	movl   $0x202,(%esp)
 804f791:	e8 f7 fa ff ff       	call   804f28d <_secure_mcrypt_malloc>
 804f796:	89 45 f4             	mov    %eax,-0xc(%ebp)
 804f799:	a1 80 a0 05 08       	mov    0x805a080,%eax
 804f79e:	89 04 24             	mov    %eax,(%esp)
 804f7a1:	e8 fa 9c ff ff       	call   80494a0 <fflush@plt>
 804f7a6:	8b 45 08             	mov    0x8(%ebp),%eax
 804f7a9:	89 44 24 08          	mov    %eax,0x8(%esp)
 804f7ad:	c7 44 24 04 02 02 00 	movl   $0x202,0x4(%esp)
 804f7b4:	00 
 804f7b5:	8b 45 f4             	mov    -0xc(%ebp),%eax
 804f7b8:	89 04 24             	mov    %eax,(%esp)
 804f7bb:	e8 70 9d ff ff       	call   8049530 <fgets@plt>
 804f7c0:	3b 45 f4             	cmp    -0xc(%ebp),%eax
 804f7c3:	75 34                	jne    804f7f9 <readpass_old+0x75>
 804f7c5:	c7 44 24 04 0a 00 00 	movl   $0xa,0x4(%esp)
 804f7cc:	00 
 804f7cd:	8b 45 f4             	mov    -0xc(%ebp),%eax
 804f7d0:	89 04 24             	mov    %eax,(%esp)
 804f7d3:	e8 18 a0 ff ff       	call   80497f0 <strchr@plt>
 804f7d8:	89 45 f0             	mov    %eax,-0x10(%ebp)
 804f7db:	83 7d f0 00          	cmpl   $0x0,-0x10(%ebp)
 804f7df:	74 08                	je     804f7e9 <readpass_old+0x65>
 804f7e1:	8b 45 f0             	mov    -0x10(%ebp),%eax
 804f7e4:	c6 00 00             	movb   $0x0,(%eax)
 804f7e7:	eb 0b                	jmp    804f7f4 <readpass_old+0x70>
 804f7e9:	8b 45 f4             	mov    -0xc(%ebp),%eax
 804f7ec:	05 01 02 00 00       	add    $0x201,%eax
 804f7f1:	c6 00 00             	movb   $0x0,(%eax)
 804f7f4:	8b 45 f4             	mov    -0xc(%ebp),%eax
 804f7f7:	eb 05                	jmp    804f7fe <readpass_old+0x7a>
 804f7f9:	b8 00 00 00 00       	mov    $0x0,%eax
 804f7fe:	c9                   	leave  
 804f7ff:	c3                   	ret    

0804f800 <getpass>:
 804f800:	55                   	push   %ebp
 804f801:	89 e5                	mov    %esp,%ebp
 804f803:	81 ec 28 01 00 00    	sub    $0x128,%esp
 804f809:	c7 05 bc a1 05 08 00 	movl   $0x0,0x805a1bc
 804f810:	00 00 00 
 804f813:	c7 05 64 a4 05 08 00 	movl   $0x0,0x805a464
 804f81a:	00 00 00 
 804f81d:	c7 05 68 a4 05 08 00 	movl   $0x0,0x805a468
 804f824:	00 00 00 
 804f827:	c7 44 24 04 39 58 05 	movl   $0x8055839,0x4(%esp)
 804f82e:	08 
 804f82f:	c7 04 24 3b 58 05 08 	movl   $0x805583b,(%esp)
 804f836:	e8 65 a0 ff ff       	call   80498a0 <fopen@plt>
 804f83b:	a3 6c a4 05 08       	mov    %eax,0x805a46c
 804f840:	a1 6c a4 05 08       	mov    0x805a46c,%eax
 804f845:	85 c0                	test   %eax,%eax
 804f847:	75 21                	jne    804f86a <getpass+0x6a>
 804f849:	a1 84 a0 05 08       	mov    0x805a084,%eax
 804f84e:	a3 6c a4 05 08       	mov    %eax,0x805a46c
 804f853:	a1 6c a4 05 08       	mov    0x805a46c,%eax
 804f858:	c7 44 24 04 00 00 00 	movl   $0x0,0x4(%esp)
 804f85f:	00 
 804f860:	89 04 24             	mov    %eax,(%esp)
 804f863:	e8 a8 9b ff ff       	call   8049410 <setbuf@plt>
 804f868:	eb 0a                	jmp    804f874 <getpass+0x74>
 804f86a:	c7 05 68 a4 05 08 01 	movl   $0x1,0x805a468
 804f871:	00 00 00 
 804f874:	a1 6c a4 05 08       	mov    0x805a46c,%eax
 804f879:	89 04 24             	mov    %eax,(%esp)
 804f87c:	e8 6f a0 ff ff       	call   80498f0 <fileno@plt>
 804f881:	8d 95 f4 fe ff ff    	lea    -0x10c(%ebp),%edx
 804f887:	89 54 24 04          	mov    %edx,0x4(%esp)
 804f88b:	89 04 24             	mov    %eax,(%esp)
 804f88e:	e8 8d a1 ff ff       	call   8049a20 <tcgetattr@plt>
 804f893:	85 c0                	test   %eax,%eax
 804f895:	74 0f                	je     804f8a6 <getpass+0xa6>
 804f897:	c7 05 64 a4 05 08 00 	movl   $0x0,0x805a464
 804f89e:	00 00 00 
 804f8a1:	e9 12 02 00 00       	jmp    804fab8 <getpass+0x2b8>
 804f8a6:	c7 44 24 04 01 00 00 	movl   $0x1,0x4(%esp)
 804f8ad:	00 
 804f8ae:	c7 04 24 20 a1 05 08 	movl   $0x805a120,(%esp)
 804f8b5:	e8 76 a0 ff ff       	call   8049930 <__sigsetjmp@plt>
 804f8ba:	85 c0                	test   %eax,%eax
 804f8bc:	74 05                	je     804f8c3 <getpass+0xc3>
 804f8be:	e9 a2 01 00 00       	jmp    804fa65 <getpass+0x265>
 804f8c3:	c7 05 c0 a1 05 08 93 	movl   $0x804f593,0x805a1c0
 804f8ca:	f5 04 08 
 804f8cd:	c7 04 24 c4 a1 05 08 	movl   $0x805a1c4,(%esp)
 804f8d4:	e8 77 a0 ff ff       	call   8049950 <sigemptyset@plt>
 804f8d9:	c7 05 44 a2 05 08 00 	movl   $0x0,0x805a244
 804f8e0:	00 00 00 
 804f8e3:	8d 85 6c ff ff ff    	lea    -0x94(%ebp),%eax
 804f8e9:	89 44 24 08          	mov    %eax,0x8(%esp)
 804f8ed:	c7 44 24 04 c0 a1 05 	movl   $0x805a1c0,0x4(%esp)
 804f8f4:	08 
 804f8f5:	c7 04 24 02 00 00 00 	movl   $0x2,(%esp)
 804f8fc:	e8 df a0 ff ff       	call   80499e0 <sigaction@plt>
 804f901:	8b 85 f4 fe ff ff    	mov    -0x10c(%ebp),%eax
 804f907:	89 85 30 ff ff ff    	mov    %eax,-0xd0(%ebp)
 804f90d:	8b 85 f8 fe ff ff    	mov    -0x108(%ebp),%eax
 804f913:	89 85 34 ff ff ff    	mov    %eax,-0xcc(%ebp)
 804f919:	8b 85 fc fe ff ff    	mov    -0x104(%ebp),%eax
 804f91f:	89 85 38 ff ff ff    	mov    %eax,-0xc8(%ebp)
 804f925:	8b 85 00 ff ff ff    	mov    -0x100(%ebp),%eax
 804f92b:	89 85 3c ff ff ff    	mov    %eax,-0xc4(%ebp)
 804f931:	8b 85 04 ff ff ff    	mov    -0xfc(%ebp),%eax
 804f937:	89 85 40 ff ff ff    	mov    %eax,-0xc0(%ebp)
 804f93d:	8b 85 08 ff ff ff    	mov    -0xf8(%ebp),%eax
 804f943:	89 85 44 ff ff ff    	mov    %eax,-0xbc(%ebp)
 804f949:	8b 85 0c ff ff ff    	mov    -0xf4(%ebp),%eax
 804f94f:	89 85 48 ff ff ff    	mov    %eax,-0xb8(%ebp)
 804f955:	8b 85 10 ff ff ff    	mov    -0xf0(%ebp),%eax
 804f95b:	89 85 4c ff ff ff    	mov    %eax,-0xb4(%ebp)
 804f961:	8b 85 14 ff ff ff    	mov    -0xec(%ebp),%eax
 804f967:	89 85 50 ff ff ff    	mov    %eax,-0xb0(%ebp)
 804f96d:	8b 85 18 ff ff ff    	mov    -0xe8(%ebp),%eax
 804f973:	89 85 54 ff ff ff    	mov    %eax,-0xac(%ebp)
 804f979:	8b 85 1c ff ff ff    	mov    -0xe4(%ebp),%eax
 804f97f:	89 85 58 ff ff ff    	mov    %eax,-0xa8(%ebp)
 804f985:	8b 85 20 ff ff ff    	mov    -0xe0(%ebp),%eax
 804f98b:	89 85 5c ff ff ff    	mov    %eax,-0xa4(%ebp)
 804f991:	8b 85 24 ff ff ff    	mov    -0xdc(%ebp),%eax
 804f997:	89 85 60 ff ff ff    	mov    %eax,-0xa0(%ebp)
 804f99d:	8b 85 28 ff ff ff    	mov    -0xd8(%ebp),%eax
 804f9a3:	89 85 64 ff ff ff    	mov    %eax,-0x9c(%ebp)
 804f9a9:	8b 85 2c ff ff ff    	mov    -0xd4(%ebp),%eax
 804f9af:	89 85 68 ff ff ff    	mov    %eax,-0x98(%ebp)
 804f9b5:	a1 54 92 05 08       	mov    0x8059254,%eax
 804f9ba:	83 f8 01             	cmp    $0x1,%eax
 804f9bd:	75 11                	jne    804f9d0 <getpass+0x1d0>
 804f9bf:	8b 85 3c ff ff ff    	mov    -0xc4(%ebp),%eax
 804f9c5:	83 e0 c7             	and    $0xffffffc7,%eax
 804f9c8:	89 85 3c ff ff ff    	mov    %eax,-0xc4(%ebp)
 804f9ce:	eb 0f                	jmp    804f9df <getpass+0x1df>
 804f9d0:	8b 85 3c ff ff ff    	mov    -0xc4(%ebp),%eax
 804f9d6:	83 e0 c5             	and    $0xffffffc5,%eax
 804f9d9:	89 85 3c ff ff ff    	mov    %eax,-0xc4(%ebp)
 804f9df:	8b 85 3c ff ff ff    	mov    -0xc4(%ebp),%eax
 804f9e5:	83 c8 40             	or     $0x40,%eax
 804f9e8:	89 85 3c ff ff ff    	mov    %eax,-0xc4(%ebp)
 804f9ee:	a1 6c a4 05 08       	mov    0x805a46c,%eax
 804f9f3:	89 04 24             	mov    %eax,(%esp)
 804f9f6:	e8 f5 9e ff ff       	call   80498f0 <fileno@plt>
 804f9fb:	8d 95 30 ff ff ff    	lea    -0xd0(%ebp),%edx
 804fa01:	89 54 24 08          	mov    %edx,0x8(%esp)
 804fa05:	c7 44 24 04 00 00 00 	movl   $0x0,0x4(%esp)
 804fa0c:	00 
 804fa0d:	89 04 24             	mov    %eax,(%esp)
 804fa10:	e8 db 9c ff ff       	call   80496f0 <tcsetattr@plt>
 804fa15:	85 c0                	test   %eax,%eax
 804fa17:	74 02                	je     804fa1b <getpass+0x21b>
 804fa19:	eb 4a                	jmp    804fa65 <getpass+0x265>
 804fa1b:	a1 80 a0 05 08       	mov    0x805a080,%eax
 804fa20:	89 44 24 04          	mov    %eax,0x4(%esp)
 804fa24:	8b 45 08             	mov    0x8(%ebp),%eax
 804fa27:	89 04 24             	mov    %eax,(%esp)
 804fa2a:	e8 11 a0 ff ff       	call   8049a40 <fputs@plt>
 804fa2f:	83 f8 ff             	cmp    $0xffffffff,%eax
 804fa32:	75 02                	jne    804fa36 <getpass+0x236>
 804fa34:	eb 2f                	jmp    804fa65 <getpass+0x265>
 804fa36:	a1 54 92 05 08       	mov    0x8059254,%eax
 804fa3b:	85 c0                	test   %eax,%eax
 804fa3d:	75 14                	jne    804fa53 <getpass+0x253>
 804fa3f:	a1 6c a4 05 08       	mov    0x805a46c,%eax
 804fa44:	89 04 24             	mov    %eax,(%esp)
 804fa47:	e8 6b fb ff ff       	call   804f5b7 <readpass>
 804fa4c:	a3 64 a4 05 08       	mov    %eax,0x805a464
 804fa51:	eb 12                	jmp    804fa65 <getpass+0x265>
 804fa53:	a1 6c a4 05 08       	mov    0x805a46c,%eax
 804fa58:	89 04 24             	mov    %eax,(%esp)
 804fa5b:	e8 24 fd ff ff       	call   804f784 <readpass_old>
 804fa60:	a3 64 a4 05 08       	mov    %eax,0x805a464
 804fa65:	a1 6c a4 05 08       	mov    0x805a46c,%eax
 804fa6a:	89 04 24             	mov    %eax,(%esp)
 804fa6d:	e8 7e 9e ff ff       	call   80498f0 <fileno@plt>
 804fa72:	8d 95 f4 fe ff ff    	lea    -0x10c(%ebp),%edx
 804fa78:	89 54 24 08          	mov    %edx,0x8(%esp)
 804fa7c:	c7 44 24 04 00 00 00 	movl   $0x0,0x4(%esp)
 804fa83:	00 
 804fa84:	89 04 24             	mov    %eax,(%esp)
 804fa87:	e8 64 9c ff ff       	call   80496f0 <tcsetattr@plt>
 804fa8c:	85 c0                	test   %eax,%eax
 804fa8e:	74 0a                	je     804fa9a <getpass+0x29a>
 804fa90:	c7 05 64 a4 05 08 00 	movl   $0x0,0x805a464
 804fa97:	00 00 00 
 804fa9a:	c7 44 24 08 00 00 00 	movl   $0x0,0x8(%esp)
 804faa1:	00 
 804faa2:	8d 85 6c ff ff ff    	lea    -0x94(%ebp),%eax
 804faa8:	89 44 24 04          	mov    %eax,0x4(%esp)
 804faac:	c7 04 24 02 00 00 00 	movl   $0x2,(%esp)
 804fab3:	e8 28 9f ff ff       	call   80499e0 <sigaction@plt>
 804fab8:	a1 68 a4 05 08       	mov    0x805a468,%eax
 804fabd:	85 c0                	test   %eax,%eax
 804fabf:	74 0d                	je     804face <getpass+0x2ce>
 804fac1:	a1 6c a4 05 08       	mov    0x805a46c,%eax
 804fac6:	89 04 24             	mov    %eax,(%esp)
 804fac9:	e8 82 9a ff ff       	call   8049550 <fclose@plt>
 804face:	a1 bc a1 05 08       	mov    0x805a1bc,%eax
 804fad3:	85 c0                	test   %eax,%eax
 804fad5:	74 1f                	je     804faf6 <getpass+0x2f6>
 804fad7:	e8 04 9c ff ff       	call   80496e0 <getpid@plt>
 804fadc:	c7 44 24 04 02 00 00 	movl   $0x2,0x4(%esp)
 804fae3:	00 
 804fae4:	89 04 24             	mov    %eax,(%esp)
 804fae7:	e8 a4 9c ff ff       	call   8049790 <kill@plt>
 804faec:	c7 05 64 a4 05 08 00 	movl   $0x0,0x805a464
 804faf3:	00 00 00 
 804faf6:	a1 64 a4 05 08       	mov    0x805a464,%eax
 804fafb:	85 c0                	test   %eax,%eax
 804fafd:	75 11                	jne    804fb10 <getpass+0x310>
 804faff:	c6 05 70 a4 05 08 00 	movb   $0x0,0x805a470
 804fb06:	c7 05 64 a4 05 08 70 	movl   $0x805a470,0x805a464
 804fb0d:	a4 05 08 
 804fb10:	a1 64 a4 05 08       	mov    0x805a464,%eax
 804fb15:	c9                   	leave  
 804fb16:	c3                   	ret    

0804fb17 <_ufc_doit>:
 804fb17:	55                   	push   %ebp
 804fb18:	89 e5                	mov    %esp,%ebp
 804fb1a:	83 ec 28             	sub    $0x28,%esp
 804fb1d:	e9 9c 01 00 00       	jmp    804fcbe <_ufc_doit+0x1a7>
 804fb22:	c7 45 f0 60 16 07 08 	movl   $0x8071660,-0x10(%ebp)
 804fb29:	c7 45 f4 08 00 00 00 	movl   $0x8,-0xc(%ebp)
 804fb30:	e9 54 01 00 00       	jmp    804fc89 <_ufc_doit+0x172>
 804fb35:	8b 45 f0             	mov    -0x10(%ebp),%eax
 804fb38:	8d 50 04             	lea    0x4(%eax),%edx
 804fb3b:	89 55 f0             	mov    %edx,-0x10(%ebp)
 804fb3e:	8b 00                	mov    (%eax),%eax
 804fb40:	33 45 10             	xor    0x10(%ebp),%eax
 804fb43:	89 45 ec             	mov    %eax,-0x14(%ebp)
 804fb46:	8b 45 ec             	mov    -0x14(%ebp),%eax
 804fb49:	0f b7 c0             	movzwl %ax,%eax
 804fb4c:	05 60 16 06 08       	add    $0x8061660,%eax
 804fb51:	8b 00                	mov    (%eax),%eax
 804fb53:	31 45 08             	xor    %eax,0x8(%ebp)
 804fb56:	8b 45 ec             	mov    -0x14(%ebp),%eax
 804fb59:	0f b7 c0             	movzwl %ax,%eax
 804fb5c:	83 c0 04             	add    $0x4,%eax
 804fb5f:	05 60 16 06 08       	add    $0x8061660,%eax
 804fb64:	8b 00                	mov    (%eax),%eax
 804fb66:	31 45 0c             	xor    %eax,0xc(%ebp)
 804fb69:	c1 6d ec 10          	shrl   $0x10,-0x14(%ebp)
 804fb6d:	8b 45 ec             	mov    -0x14(%ebp),%eax
 804fb70:	05 e0 16 07 08       	add    $0x80716e0,%eax
 804fb75:	8b 00                	mov    (%eax),%eax
 804fb77:	31 45 08             	xor    %eax,0x8(%ebp)
 804fb7a:	8b 45 ec             	mov    -0x14(%ebp),%eax
 804fb7d:	83 c0 04             	add    $0x4,%eax
 804fb80:	05 e0 16 07 08       	add    $0x80716e0,%eax
 804fb85:	8b 00                	mov    (%eax),%eax
 804fb87:	31 45 0c             	xor    %eax,0xc(%ebp)
 804fb8a:	8b 45 f0             	mov    -0x10(%ebp),%eax
 804fb8d:	8d 50 04             	lea    0x4(%eax),%edx
 804fb90:	89 55 f0             	mov    %edx,-0x10(%ebp)
 804fb93:	8b 00                	mov    (%eax),%eax
 804fb95:	33 45 14             	xor    0x14(%ebp),%eax
 804fb98:	89 45 ec             	mov    %eax,-0x14(%ebp)
 804fb9b:	8b 45 ec             	mov    -0x14(%ebp),%eax
 804fb9e:	0f b7 c0             	movzwl %ax,%eax
 804fba1:	05 60 96 06 08       	add    $0x8069660,%eax
 804fba6:	8b 00                	mov    (%eax),%eax
 804fba8:	31 45 08             	xor    %eax,0x8(%ebp)
 804fbab:	8b 45 ec             	mov    -0x14(%ebp),%eax
 804fbae:	0f b7 c0             	movzwl %ax,%eax
 804fbb1:	83 c0 04             	add    $0x4,%eax
 804fbb4:	05 60 96 06 08       	add    $0x8069660,%eax
 804fbb9:	8b 00                	mov    (%eax),%eax
 804fbbb:	31 45 0c             	xor    %eax,0xc(%ebp)
 804fbbe:	c1 6d ec 10          	shrl   $0x10,-0x14(%ebp)
 804fbc2:	8b 45 ec             	mov    -0x14(%ebp),%eax
 804fbc5:	05 e0 96 07 08       	add    $0x80796e0,%eax
 804fbca:	8b 00                	mov    (%eax),%eax
 804fbcc:	31 45 08             	xor    %eax,0x8(%ebp)
 804fbcf:	8b 45 ec             	mov    -0x14(%ebp),%eax
 804fbd2:	83 c0 04             	add    $0x4,%eax
 804fbd5:	05 e0 96 07 08       	add    $0x80796e0,%eax
 804fbda:	8b 00                	mov    (%eax),%eax
 804fbdc:	31 45 0c             	xor    %eax,0xc(%ebp)
 804fbdf:	8b 45 f0             	mov    -0x10(%ebp),%eax
 804fbe2:	8d 50 04             	lea    0x4(%eax),%edx
 804fbe5:	89 55 f0             	mov    %edx,-0x10(%ebp)
 804fbe8:	8b 00                	mov    (%eax),%eax
 804fbea:	33 45 08             	xor    0x8(%ebp),%eax
 804fbed:	89 45 ec             	mov    %eax,-0x14(%ebp)
 804fbf0:	8b 45 ec             	mov    -0x14(%ebp),%eax
 804fbf3:	0f b7 c0             	movzwl %ax,%eax
 804fbf6:	05 60 16 06 08       	add    $0x8061660,%eax
 804fbfb:	8b 00                	mov    (%eax),%eax
 804fbfd:	31 45 10             	xor    %eax,0x10(%ebp)
 804fc00:	8b 45 ec             	mov    -0x14(%ebp),%eax
 804fc03:	0f b7 c0             	movzwl %ax,%eax
 804fc06:	83 c0 04             	add    $0x4,%eax
 804fc09:	05 60 16 06 08       	add    $0x8061660,%eax
 804fc0e:	8b 00                	mov    (%eax),%eax
 804fc10:	31 45 14             	xor    %eax,0x14(%ebp)
 804fc13:	c1 6d ec 10          	shrl   $0x10,-0x14(%ebp)
 804fc17:	8b 45 ec             	mov    -0x14(%ebp),%eax
 804fc1a:	05 e0 16 07 08       	add    $0x80716e0,%eax
 804fc1f:	8b 00                	mov    (%eax),%eax
 804fc21:	31 45 10             	xor    %eax,0x10(%ebp)
 804fc24:	8b 45 ec             	mov    -0x14(%ebp),%eax
 804fc27:	83 c0 04             	add    $0x4,%eax
 804fc2a:	05 e0 16 07 08       	add    $0x80716e0,%eax
 804fc2f:	8b 00                	mov    (%eax),%eax
 804fc31:	31 45 14             	xor    %eax,0x14(%ebp)
 804fc34:	8b 45 f0             	mov    -0x10(%ebp),%eax
 804fc37:	8d 50 04             	lea    0x4(%eax),%edx
 804fc3a:	89 55 f0             	mov    %edx,-0x10(%ebp)
 804fc3d:	8b 00                	mov    (%eax),%eax
 804fc3f:	33 45 0c             	xor    0xc(%ebp),%eax
 804fc42:	89 45 ec             	mov    %eax,-0x14(%ebp)
 804fc45:	8b 45 ec             	mov    -0x14(%ebp),%eax
 804fc48:	0f b7 c0             	movzwl %ax,%eax
 804fc4b:	05 60 96 06 08       	add    $0x8069660,%eax
 804fc50:	8b 00                	mov    (%eax),%eax
 804fc52:	31 45 10             	xor    %eax,0x10(%ebp)
 804fc55:	8b 45 ec             	mov    -0x14(%ebp),%eax
 804fc58:	0f b7 c0             	movzwl %ax,%eax
 804fc5b:	83 c0 04             	add    $0x4,%eax
 804fc5e:	05 60 96 06 08       	add    $0x8069660,%eax
 804fc63:	8b 00                	mov    (%eax),%eax
 804fc65:	31 45 14             	xor    %eax,0x14(%ebp)
 804fc68:	c1 6d ec 10          	shrl   $0x10,-0x14(%ebp)
 804fc6c:	8b 45 ec             	mov    -0x14(%ebp),%eax
 804fc6f:	05 e0 96 07 08       	add    $0x80796e0,%eax
 804fc74:	8b 00                	mov    (%eax),%eax
 804fc76:	31 45 10             	xor    %eax,0x10(%ebp)
 804fc79:	8b 45 ec             	mov    -0x14(%ebp),%eax
 804fc7c:	83 c0 04             	add    $0x4,%eax
 804fc7f:	05 e0 96 07 08       	add    $0x80796e0,%eax
 804fc84:	8b 00                	mov    (%eax),%eax
 804fc86:	31 45 14             	xor    %eax,0x14(%ebp)
 804fc89:	8b 45 f4             	mov    -0xc(%ebp),%eax
 804fc8c:	8d 50 ff             	lea    -0x1(%eax),%edx
 804fc8f:	89 55 f4             	mov    %edx,-0xc(%ebp)
 804fc92:	85 c0                	test   %eax,%eax
 804fc94:	0f 85 9b fe ff ff    	jne    804fb35 <_ufc_doit+0x1e>
 804fc9a:	8b 45 08             	mov    0x8(%ebp),%eax
 804fc9d:	89 45 ec             	mov    %eax,-0x14(%ebp)
 804fca0:	8b 45 10             	mov    0x10(%ebp),%eax
 804fca3:	89 45 08             	mov    %eax,0x8(%ebp)
 804fca6:	8b 45 ec             	mov    -0x14(%ebp),%eax
 804fca9:	89 45 10             	mov    %eax,0x10(%ebp)
 804fcac:	8b 45 0c             	mov    0xc(%ebp),%eax
 804fcaf:	89 45 ec             	mov    %eax,-0x14(%ebp)
 804fcb2:	8b 45 14             	mov    0x14(%ebp),%eax
 804fcb5:	89 45 0c             	mov    %eax,0xc(%ebp)
 804fcb8:	8b 45 ec             	mov    -0x14(%ebp),%eax
 804fcbb:	89 45 14             	mov    %eax,0x14(%ebp)
 804fcbe:	8b 45 18             	mov    0x18(%ebp),%eax
 804fcc1:	8d 50 ff             	lea    -0x1(%eax),%edx
 804fcc4:	89 55 18             	mov    %edx,0x18(%ebp)
 804fcc7:	85 c0                	test   %eax,%eax
 804fcc9:	0f 85 53 fe ff ff    	jne    804fb22 <_ufc_doit+0xb>
 804fccf:	8b 45 14             	mov    0x14(%ebp),%eax
 804fcd2:	89 44 24 0c          	mov    %eax,0xc(%esp)
 804fcd6:	8b 45 10             	mov    0x10(%ebp),%eax
 804fcd9:	89 44 24 08          	mov    %eax,0x8(%esp)
 804fcdd:	8b 45 0c             	mov    0xc(%ebp),%eax
 804fce0:	89 44 24 04          	mov    %eax,0x4(%esp)
 804fce4:	8b 45 08             	mov    0x8(%ebp),%eax
 804fce7:	89 04 24             	mov    %eax,(%esp)
 804fcea:	e8 6b 0c 00 00       	call   805095a <_ufc_dofinalperm>
 804fcef:	c9                   	leave  
 804fcf0:	c3                   	ret    

0804fcf1 <_init_des>:
 804fcf1:	55                   	push   %ebp
 804fcf2:	89 e5                	mov    %esp,%ebp
 804fcf4:	57                   	push   %edi
 804fcf5:	56                   	push   %esi
 804fcf6:	53                   	push   %ebx
 804fcf7:	83 ec 7c             	sub    $0x7c,%esp
 804fcfa:	c7 45 e4 00 00 00 00 	movl   $0x0,-0x1c(%ebp)
 804fd01:	e9 e7 00 00 00       	jmp    804fded <_init_des+0xfc>
 804fd06:	8b 45 e4             	mov    -0x1c(%ebp),%eax
 804fd09:	8b 04 85 a0 93 05 08 	mov    0x80593a0(,%eax,4),%eax
 804fd10:	83 e8 01             	sub    $0x1,%eax
 804fd13:	89 45 cc             	mov    %eax,-0x34(%ebp)
 804fd16:	8b 45 cc             	mov    -0x34(%ebp),%eax
 804fd19:	99                   	cltd   
 804fd1a:	c1 ea 1d             	shr    $0x1d,%edx
 804fd1d:	01 d0                	add    %edx,%eax
 804fd1f:	83 e0 07             	and    $0x7,%eax
 804fd22:	29 d0                	sub    %edx,%eax
 804fd24:	83 c0 01             	add    $0x1,%eax
 804fd27:	0f b6 80 d0 9f 05 08 	movzbl 0x8059fd0(%eax),%eax
 804fd2e:	0f b6 c0             	movzbl %al,%eax
 804fd31:	89 45 c8             	mov    %eax,-0x38(%ebp)
 804fd34:	8b 4d e4             	mov    -0x1c(%ebp),%ecx
 804fd37:	ba 93 24 49 92       	mov    $0x92492493,%edx
 804fd3c:	89 c8                	mov    %ecx,%eax
 804fd3e:	f7 ea                	imul   %edx
 804fd40:	8d 04 0a             	lea    (%edx,%ecx,1),%eax
 804fd43:	c1 f8 04             	sar    $0x4,%eax
 804fd46:	89 c2                	mov    %eax,%edx
 804fd48:	89 c8                	mov    %ecx,%eax
 804fd4a:	c1 f8 1f             	sar    $0x1f,%eax
 804fd4d:	29 c2                	sub    %eax,%edx
 804fd4f:	89 d0                	mov    %edx,%eax
 804fd51:	c1 e0 02             	shl    $0x2,%eax
 804fd54:	8d 14 c5 00 00 00 00 	lea    0x0(,%eax,8),%edx
 804fd5b:	29 c2                	sub    %eax,%edx
 804fd5d:	89 c8                	mov    %ecx,%eax
 804fd5f:	29 d0                	sub    %edx,%eax
 804fd61:	83 c0 04             	add    $0x4,%eax
 804fd64:	8b 04 85 e0 9f 05 08 	mov    0x8059fe0(,%eax,4),%eax
 804fd6b:	89 45 c4             	mov    %eax,-0x3c(%ebp)
 804fd6e:	c7 45 dc 00 00 00 00 	movl   $0x0,-0x24(%ebp)
 804fd75:	eb 6c                	jmp    804fde3 <_init_des+0xf2>
 804fd77:	8b 45 c8             	mov    -0x38(%ebp),%eax
 804fd7a:	8b 55 dc             	mov    -0x24(%ebp),%edx
 804fd7d:	21 d0                	and    %edx,%eax
 804fd7f:	85 c0                	test   %eax,%eax
 804fd81:	74 5c                	je     804fddf <_init_des+0xee>
 804fd83:	8b 45 cc             	mov    -0x34(%ebp),%eax
 804fd86:	8d 50 07             	lea    0x7(%eax),%edx
 804fd89:	85 c0                	test   %eax,%eax
 804fd8b:	0f 48 c2             	cmovs  %edx,%eax
 804fd8e:	c1 f8 03             	sar    $0x3,%eax
 804fd91:	89 c3                	mov    %eax,%ebx
 804fd93:	8b 4d e4             	mov    -0x1c(%ebp),%ecx
 804fd96:	ba 93 24 49 92       	mov    $0x92492493,%edx
 804fd9b:	89 c8                	mov    %ecx,%eax
 804fd9d:	f7 ea                	imul   %edx
 804fd9f:	8d 04 0a             	lea    (%edx,%ecx,1),%eax
 804fda2:	c1 f8 04             	sar    $0x4,%eax
 804fda5:	89 c2                	mov    %eax,%edx
 804fda7:	89 c8                	mov    %ecx,%eax
 804fda9:	c1 f8 1f             	sar    $0x1f,%eax
 804fdac:	29 c2                	sub    %eax,%edx
 804fdae:	89 d0                	mov    %edx,%eax
 804fdb0:	8d 14 1b             	lea    (%ebx,%ebx,1),%edx
 804fdb3:	01 c2                	add    %eax,%edx
 804fdb5:	89 d1                	mov    %edx,%ecx
 804fdb7:	c1 e1 07             	shl    $0x7,%ecx
 804fdba:	8b 55 dc             	mov    -0x24(%ebp),%edx
 804fdbd:	01 ca                	add    %ecx,%edx
 804fdbf:	8b 14 95 80 c5 05 08 	mov    0x805c580(,%edx,4),%edx
 804fdc6:	0b 55 c4             	or     -0x3c(%ebp),%edx
 804fdc9:	8d 0c 1b             	lea    (%ebx,%ebx,1),%ecx
 804fdcc:	01 c8                	add    %ecx,%eax
 804fdce:	c1 e0 07             	shl    $0x7,%eax
 804fdd1:	89 c1                	mov    %eax,%ecx
 804fdd3:	8b 45 dc             	mov    -0x24(%ebp),%eax
 804fdd6:	01 c8                	add    %ecx,%eax
 804fdd8:	89 14 85 80 c5 05 08 	mov    %edx,0x805c580(,%eax,4)
 804fddf:	83 45 dc 01          	addl   $0x1,-0x24(%ebp)
 804fde3:	83 7d dc 7f          	cmpl   $0x7f,-0x24(%ebp)
 804fde7:	76 8e                	jbe    804fd77 <_init_des+0x86>
 804fde9:	83 45 e4 01          	addl   $0x1,-0x1c(%ebp)
 804fded:	83 7d e4 37          	cmpl   $0x37,-0x1c(%ebp)
 804fdf1:	0f 8e 0f ff ff ff    	jle    804fd06 <_init_des+0x15>
 804fdf7:	c7 45 e4 00 00 00 00 	movl   $0x0,-0x1c(%ebp)
 804fdfe:	e9 3e 01 00 00       	jmp    804ff41 <_init_des+0x250>
 804fe03:	8b 45 e4             	mov    -0x1c(%ebp),%eax
 804fe06:	8b 04 85 c0 94 05 08 	mov    0x80594c0(,%eax,4),%eax
 804fe0d:	83 e8 01             	sub    $0x1,%eax
 804fe10:	89 45 cc             	mov    %eax,-0x34(%ebp)
 804fe13:	8b 4d cc             	mov    -0x34(%ebp),%ecx
 804fe16:	ba 93 24 49 92       	mov    $0x92492493,%edx
 804fe1b:	89 c8                	mov    %ecx,%eax
 804fe1d:	f7 ea                	imul   %edx
 804fe1f:	8d 04 0a             	lea    (%edx,%ecx,1),%eax
 804fe22:	c1 f8 02             	sar    $0x2,%eax
 804fe25:	89 c2                	mov    %eax,%edx
 804fe27:	89 c8                	mov    %ecx,%eax
 804fe29:	c1 f8 1f             	sar    $0x1f,%eax
 804fe2c:	29 c2                	sub    %eax,%edx
 804fe2e:	89 d0                	mov    %edx,%eax
 804fe30:	c1 e0 03             	shl    $0x3,%eax
 804fe33:	29 d0                	sub    %edx,%eax
 804fe35:	29 c1                	sub    %eax,%ecx
 804fe37:	89 ca                	mov    %ecx,%edx
 804fe39:	8d 42 01             	lea    0x1(%edx),%eax
 804fe3c:	0f b6 80 d0 9f 05 08 	movzbl 0x8059fd0(%eax),%eax
 804fe43:	0f b6 c0             	movzbl %al,%eax
 804fe46:	89 45 c8             	mov    %eax,-0x38(%ebp)
 804fe49:	8b 5d e4             	mov    -0x1c(%ebp),%ebx
 804fe4c:	ba ab aa aa 2a       	mov    $0x2aaaaaab,%edx
 804fe51:	89 d8                	mov    %ebx,%eax
 804fe53:	f7 ea                	imul   %edx
 804fe55:	c1 fa 02             	sar    $0x2,%edx
 804fe58:	89 d8                	mov    %ebx,%eax
 804fe5a:	c1 f8 1f             	sar    $0x1f,%eax
 804fe5d:	89 d1                	mov    %edx,%ecx
 804fe5f:	29 c1                	sub    %eax,%ecx
 804fe61:	89 c8                	mov    %ecx,%eax
 804fe63:	01 c0                	add    %eax,%eax
 804fe65:	01 c8                	add    %ecx,%eax
 804fe67:	c1 e0 03             	shl    $0x3,%eax
 804fe6a:	29 c3                	sub    %eax,%ebx
 804fe6c:	89 d9                	mov    %ebx,%ecx
 804fe6e:	ba ab aa aa 2a       	mov    $0x2aaaaaab,%edx
 804fe73:	89 c8                	mov    %ecx,%eax
 804fe75:	f7 ea                	imul   %edx
 804fe77:	d1 fa                	sar    %edx
 804fe79:	89 c8                	mov    %ecx,%eax
 804fe7b:	c1 f8 1f             	sar    $0x1f,%eax
 804fe7e:	29 c2                	sub    %eax,%edx
 804fe80:	89 d0                	mov    %edx,%eax
 804fe82:	01 c0                	add    %eax,%eax
 804fe84:	01 d0                	add    %edx,%eax
 804fe86:	c1 e0 02             	shl    $0x2,%eax
 804fe89:	29 c1                	sub    %eax,%ecx
 804fe8b:	89 ca                	mov    %ecx,%edx
 804fe8d:	b8 0e 00 00 00       	mov    $0xe,%eax
 804fe92:	29 d0                	sub    %edx,%eax
 804fe94:	ba 01 00 00 00       	mov    $0x1,%edx
 804fe99:	89 d3                	mov    %edx,%ebx
 804fe9b:	89 c1                	mov    %eax,%ecx
 804fe9d:	d3 e3                	shl    %cl,%ebx
 804fe9f:	8b 4d e4             	mov    -0x1c(%ebp),%ecx
 804fea2:	ba ab aa aa 2a       	mov    $0x2aaaaaab,%edx
 804fea7:	89 c8                	mov    %ecx,%eax
 804fea9:	f7 ea                	imul   %edx
 804feab:	c1 fa 02             	sar    $0x2,%edx
 804feae:	89 c8                	mov    %ecx,%eax
 804feb0:	c1 f8 1f             	sar    $0x1f,%eax
 804feb3:	29 c2                	sub    %eax,%edx
 804feb5:	89 d0                	mov    %edx,%eax
 804feb7:	01 c0                	add    %eax,%eax
 804feb9:	01 d0                	add    %edx,%eax
 804febb:	c1 e0 03             	shl    $0x3,%eax
 804febe:	29 c1                	sub    %eax,%ecx
 804fec0:	89 ca                	mov    %ecx,%edx
 804fec2:	83 fa 0b             	cmp    $0xb,%edx
 804fec5:	7f 07                	jg     804fece <_init_des+0x1dd>
 804fec7:	b8 10 00 00 00       	mov    $0x10,%eax
 804fecc:	eb 05                	jmp    804fed3 <_init_des+0x1e2>
 804fece:	b8 00 00 00 00       	mov    $0x0,%eax
 804fed3:	89 c1                	mov    %eax,%ecx
 804fed5:	d3 e3                	shl    %cl,%ebx
 804fed7:	89 d8                	mov    %ebx,%eax
 804fed9:	89 45 c4             	mov    %eax,-0x3c(%ebp)
 804fedc:	c7 45 dc 00 00 00 00 	movl   $0x0,-0x24(%ebp)
 804fee3:	eb 52                	jmp    804ff37 <_init_des+0x246>
 804fee5:	8b 45 c8             	mov    -0x38(%ebp),%eax
 804fee8:	8b 55 dc             	mov    -0x24(%ebp),%edx
 804feeb:	21 d0                	and    %edx,%eax
 804feed:	85 c0                	test   %eax,%eax
 804feef:	74 42                	je     804ff33 <_init_des+0x242>
 804fef1:	8b 4d cc             	mov    -0x34(%ebp),%ecx
 804fef4:	ba 93 24 49 92       	mov    $0x92492493,%edx
 804fef9:	89 c8                	mov    %ecx,%eax
 804fefb:	f7 ea                	imul   %edx
 804fefd:	8d 04 0a             	lea    (%edx,%ecx,1),%eax
 804ff00:	c1 f8 02             	sar    $0x2,%eax
 804ff03:	89 c2                	mov    %eax,%edx
 804ff05:	89 c8                	mov    %ecx,%eax
 804ff07:	c1 f8 1f             	sar    $0x1f,%eax
 804ff0a:	29 c2                	sub    %eax,%edx
 804ff0c:	89 d0                	mov    %edx,%eax
 804ff0e:	89 c1                	mov    %eax,%ecx
 804ff10:	c1 e1 07             	shl    $0x7,%ecx
 804ff13:	8b 55 dc             	mov    -0x24(%ebp),%edx
 804ff16:	01 ca                	add    %ecx,%edx
 804ff18:	8b 14 95 80 e5 05 08 	mov    0x805e580(,%edx,4),%edx
 804ff1f:	0b 55 c4             	or     -0x3c(%ebp),%edx
 804ff22:	c1 e0 07             	shl    $0x7,%eax
 804ff25:	89 c1                	mov    %eax,%ecx
 804ff27:	8b 45 dc             	mov    -0x24(%ebp),%eax
 804ff2a:	01 c8                	add    %ecx,%eax
 804ff2c:	89 14 85 80 e5 05 08 	mov    %edx,0x805e580(,%eax,4)
 804ff33:	83 45 dc 01          	addl   $0x1,-0x24(%ebp)
 804ff37:	83 7d dc 7f          	cmpl   $0x7f,-0x24(%ebp)
 804ff3b:	76 a8                	jbe    804fee5 <_init_des+0x1f4>
 804ff3d:	83 45 e4 01          	addl   $0x1,-0x1c(%ebp)
 804ff41:	83 7d e4 2f          	cmpl   $0x2f,-0x1c(%ebp)
 804ff45:	0f 8e b8 fe ff ff    	jle    804fe03 <_init_des+0x112>
 804ff4b:	c7 44 24 04 00 20 00 	movl   $0x2000,0x4(%esp)
 804ff52:	00 
 804ff53:	c7 04 24 80 a5 05 08 	movl   $0x805a580,(%esp)
 804ff5a:	e8 51 ac ff ff       	call   804abb0 <Bzero>
 804ff5f:	c7 45 e4 00 00 00 00 	movl   $0x0,-0x1c(%ebp)
 804ff66:	e9 40 01 00 00       	jmp    80500ab <_init_des+0x3ba>
 804ff6b:	8b 45 e4             	mov    -0x1c(%ebp),%eax
 804ff6e:	8b 04 85 80 95 05 08 	mov    0x8059580(,%eax,4),%eax
 804ff75:	83 e8 01             	sub    $0x1,%eax
 804ff78:	8b 04 85 40 96 05 08 	mov    0x8059640(,%eax,4),%eax
 804ff7f:	83 e8 01             	sub    $0x1,%eax
 804ff82:	89 45 c0             	mov    %eax,-0x40(%ebp)
 804ff85:	8b 45 c0             	mov    -0x40(%ebp),%eax
 804ff88:	83 e0 07             	and    $0x7,%eax
 804ff8b:	0f b6 80 d0 9f 05 08 	movzbl 0x8059fd0(%eax),%eax
 804ff92:	0f b6 c0             	movzbl %al,%eax
 804ff95:	89 45 bc             	mov    %eax,-0x44(%ebp)
 804ff98:	c7 45 dc 00 01 00 00 	movl   $0x100,-0x24(%ebp)
 804ff9f:	e9 f2 00 00 00       	jmp    8050096 <_init_des+0x3a5>
 804ffa4:	8b 45 bc             	mov    -0x44(%ebp),%eax
 804ffa7:	8b 55 dc             	mov    -0x24(%ebp),%edx
 804ffaa:	21 d0                	and    %edx,%eax
 804ffac:	85 c0                	test   %eax,%eax
 804ffae:	0f 84 e2 00 00 00    	je     8050096 <_init_des+0x3a5>
 804ffb4:	8b 45 c0             	mov    -0x40(%ebp),%eax
 804ffb7:	c1 e8 03             	shr    $0x3,%eax
 804ffba:	89 c7                	mov    %eax,%edi
 804ffbc:	8b 4d e4             	mov    -0x1c(%ebp),%ecx
 804ffbf:	ba ab aa aa 2a       	mov    $0x2aaaaaab,%edx
 804ffc4:	89 c8                	mov    %ecx,%eax
 804ffc6:	f7 ea                	imul   %edx
 804ffc8:	c1 fa 02             	sar    $0x2,%edx
 804ffcb:	89 c8                	mov    %ecx,%eax
 804ffcd:	c1 f8 1f             	sar    $0x1f,%eax
 804ffd0:	89 d6                	mov    %edx,%esi
 804ffd2:	29 c6                	sub    %eax,%esi
 804ffd4:	89 fa                	mov    %edi,%edx
 804ffd6:	c1 e2 08             	shl    $0x8,%edx
 804ffd9:	8b 45 dc             	mov    -0x24(%ebp),%eax
 804ffdc:	01 d0                	add    %edx,%eax
 804ffde:	01 c0                	add    %eax,%eax
 804ffe0:	01 f0                	add    %esi,%eax
 804ffe2:	8b 04 85 80 a5 05 08 	mov    0x805a580(,%eax,4),%eax
 804ffe9:	89 45 84             	mov    %eax,-0x7c(%ebp)
 804ffec:	8b 5d e4             	mov    -0x1c(%ebp),%ebx
 804ffef:	ba ab aa aa 2a       	mov    $0x2aaaaaab,%edx
 804fff4:	89 d8                	mov    %ebx,%eax
 804fff6:	f7 ea                	imul   %edx
 804fff8:	c1 fa 02             	sar    $0x2,%edx
 804fffb:	89 d8                	mov    %ebx,%eax
 804fffd:	c1 f8 1f             	sar    $0x1f,%eax
 8050000:	89 d1                	mov    %edx,%ecx
 8050002:	29 c1                	sub    %eax,%ecx
 8050004:	89 c8                	mov    %ecx,%eax
 8050006:	01 c0                	add    %eax,%eax
 8050008:	01 c8                	add    %ecx,%eax
 805000a:	c1 e0 03             	shl    $0x3,%eax
 805000d:	29 c3                	sub    %eax,%ebx
 805000f:	89 d9                	mov    %ebx,%ecx
 8050011:	ba ab aa aa 2a       	mov    $0x2aaaaaab,%edx
 8050016:	89 c8                	mov    %ecx,%eax
 8050018:	f7 ea                	imul   %edx
 805001a:	d1 fa                	sar    %edx
 805001c:	89 c8                	mov    %ecx,%eax
 805001e:	c1 f8 1f             	sar    $0x1f,%eax
 8050021:	29 c2                	sub    %eax,%edx
 8050023:	89 d0                	mov    %edx,%eax
 8050025:	01 c0                	add    %eax,%eax
 8050027:	01 d0                	add    %edx,%eax
 8050029:	c1 e0 02             	shl    $0x2,%eax
 805002c:	29 c1                	sub    %eax,%ecx
 805002e:	89 ca                	mov    %ecx,%edx
 8050030:	b8 0e 00 00 00       	mov    $0xe,%eax
 8050035:	29 d0                	sub    %edx,%eax
 8050037:	ba 01 00 00 00       	mov    $0x1,%edx
 805003c:	89 d3                	mov    %edx,%ebx
 805003e:	89 c1                	mov    %eax,%ecx
 8050040:	d3 e3                	shl    %cl,%ebx
 8050042:	8b 4d e4             	mov    -0x1c(%ebp),%ecx
 8050045:	ba ab aa aa 2a       	mov    $0x2aaaaaab,%edx
 805004a:	89 c8                	mov    %ecx,%eax
 805004c:	f7 ea                	imul   %edx
 805004e:	c1 fa 02             	sar    $0x2,%edx
 8050051:	89 c8                	mov    %ecx,%eax
 8050053:	c1 f8 1f             	sar    $0x1f,%eax
 8050056:	29 c2                	sub    %eax,%edx
 8050058:	89 d0                	mov    %edx,%eax
 805005a:	01 c0                	add    %eax,%eax
 805005c:	01 d0                	add    %edx,%eax
 805005e:	c1 e0 03             	shl    $0x3,%eax
 8050061:	29 c1                	sub    %eax,%ecx
 8050063:	89 ca                	mov    %ecx,%edx
 8050065:	83 fa 0b             	cmp    $0xb,%edx
 8050068:	7f 07                	jg     8050071 <_init_des+0x380>
 805006a:	b8 10 00 00 00       	mov    $0x10,%eax
 805006f:	eb 05                	jmp    8050076 <_init_des+0x385>
 8050071:	b8 00 00 00 00       	mov    $0x0,%eax
 8050076:	89 c1                	mov    %eax,%ecx
 8050078:	d3 e3                	shl    %cl,%ebx
 805007a:	89 d8                	mov    %ebx,%eax
 805007c:	8b 55 84             	mov    -0x7c(%ebp),%edx
 805007f:	09 c2                	or     %eax,%edx
 8050081:	c1 e7 08             	shl    $0x8,%edi
 8050084:	89 f9                	mov    %edi,%ecx
 8050086:	8b 45 dc             	mov    -0x24(%ebp),%eax
 8050089:	01 c8                	add    %ecx,%eax
 805008b:	01 c0                	add    %eax,%eax
 805008d:	01 f0                	add    %esi,%eax
 805008f:	89 14 85 80 a5 05 08 	mov    %edx,0x805a580(,%eax,4)
 8050096:	8b 45 dc             	mov    -0x24(%ebp),%eax
 8050099:	8d 50 ff             	lea    -0x1(%eax),%edx
 805009c:	89 55 dc             	mov    %edx,-0x24(%ebp)
 805009f:	85 c0                	test   %eax,%eax
 80500a1:	0f 85 fd fe ff ff    	jne    804ffa4 <_init_des+0x2b3>
 80500a7:	83 45 e4 01          	addl   $0x1,-0x1c(%ebp)
 80500ab:	83 7d e4 2f          	cmpl   $0x2f,-0x1c(%ebp)
 80500af:	0f 8e b6 fe ff ff    	jle    804ff6b <_init_des+0x27a>
 80500b5:	c7 45 e0 00 00 00 00 	movl   $0x0,-0x20(%ebp)
 80500bc:	e9 8d 02 00 00       	jmp    805034e <_init_des+0x65d>
 80500c1:	c7 45 d8 00 00 00 00 	movl   $0x0,-0x28(%ebp)
 80500c8:	e9 73 02 00 00       	jmp    8050340 <_init_des+0x64f>
 80500cd:	8b 45 e0             	mov    -0x20(%ebp),%eax
 80500d0:	8d 0c 00             	lea    (%eax,%eax,1),%ecx
 80500d3:	8b 45 d8             	mov    -0x28(%ebp),%eax
 80500d6:	c1 f8 04             	sar    $0x4,%eax
 80500d9:	83 e0 02             	and    $0x2,%eax
 80500dc:	89 c2                	mov    %eax,%edx
 80500de:	8b 45 d8             	mov    -0x28(%ebp),%eax
 80500e1:	83 e0 01             	and    $0x1,%eax
 80500e4:	09 c2                	or     %eax,%edx
 80500e6:	8b 45 d8             	mov    -0x28(%ebp),%eax
 80500e9:	d1 f8                	sar    %eax
 80500eb:	83 e0 0f             	and    $0xf,%eax
 80500ee:	c1 e1 02             	shl    $0x2,%ecx
 80500f1:	01 ca                	add    %ecx,%edx
 80500f3:	c1 e2 04             	shl    $0x4,%edx
 80500f6:	01 d0                	add    %edx,%eax
 80500f8:	8b 04 85 c0 96 05 08 	mov    0x80596c0(,%eax,4),%eax
 80500ff:	89 45 b8             	mov    %eax,-0x48(%ebp)
 8050102:	c7 45 d4 00 00 00 00 	movl   $0x0,-0x2c(%ebp)
 8050109:	e9 24 02 00 00       	jmp    8050332 <_init_des+0x641>
 805010e:	8b 45 e0             	mov    -0x20(%ebp),%eax
 8050111:	01 c0                	add    %eax,%eax
 8050113:	8d 48 01             	lea    0x1(%eax),%ecx
 8050116:	8b 45 d4             	mov    -0x2c(%ebp),%eax
 8050119:	c1 f8 04             	sar    $0x4,%eax
 805011c:	83 e0 02             	and    $0x2,%eax
 805011f:	89 c2                	mov    %eax,%edx
 8050121:	8b 45 d4             	mov    -0x2c(%ebp),%eax
 8050124:	83 e0 01             	and    $0x1,%eax
 8050127:	09 c2                	or     %eax,%edx
 8050129:	8b 45 d4             	mov    -0x2c(%ebp),%eax
 805012c:	d1 f8                	sar    %eax
 805012e:	83 e0 0f             	and    $0xf,%eax
 8050131:	c1 e1 02             	shl    $0x2,%ecx
 8050134:	01 ca                	add    %ecx,%edx
 8050136:	c1 e2 04             	shl    $0x4,%edx
 8050139:	01 d0                	add    %edx,%eax
 805013b:	8b 04 85 c0 96 05 08 	mov    0x80596c0(,%eax,4),%eax
 8050142:	89 45 b4             	mov    %eax,-0x4c(%ebp)
 8050145:	8b 45 b8             	mov    -0x48(%ebp),%eax
 8050148:	c1 e0 04             	shl    $0x4,%eax
 805014b:	0b 45 b4             	or     -0x4c(%ebp),%eax
 805014e:	89 c2                	mov    %eax,%edx
 8050150:	b8 03 00 00 00       	mov    $0x3,%eax
 8050155:	2b 45 e0             	sub    -0x20(%ebp),%eax
 8050158:	c1 e0 03             	shl    $0x3,%eax
 805015b:	89 c1                	mov    %eax,%ecx
 805015d:	d3 e2                	shl    %cl,%edx
 805015f:	89 d0                	mov    %edx,%eax
 8050161:	89 45 b0             	mov    %eax,-0x50(%ebp)
 8050164:	8b 45 d8             	mov    -0x28(%ebp),%eax
 8050167:	c1 e0 06             	shl    $0x6,%eax
 805016a:	0b 45 d4             	or     -0x2c(%ebp),%eax
 805016d:	01 c0                	add    %eax,%eax
 805016f:	89 45 ac             	mov    %eax,-0x54(%ebp)
 8050172:	8b 45 e0             	mov    -0x20(%ebp),%eax
 8050175:	8b 04 85 c0 9f 05 08 	mov    0x8059fc0(,%eax,4),%eax
 805017c:	8b 55 ac             	mov    -0x54(%ebp),%edx
 805017f:	c1 e2 02             	shl    $0x2,%edx
 8050182:	01 c2                	add    %eax,%edx
 8050184:	8b 45 b0             	mov    -0x50(%ebp),%eax
 8050187:	c1 e8 18             	shr    $0x18,%eax
 805018a:	8b 04 c5 80 a5 05 08 	mov    0x805a580(,%eax,8),%eax
 8050191:	89 02                	mov    %eax,(%edx)
 8050193:	8b 45 e0             	mov    -0x20(%ebp),%eax
 8050196:	8b 04 85 c0 9f 05 08 	mov    0x8059fc0(,%eax,4),%eax
 805019d:	8b 55 ac             	mov    -0x54(%ebp),%edx
 80501a0:	83 c2 01             	add    $0x1,%edx
 80501a3:	c1 e2 02             	shl    $0x2,%edx
 80501a6:	01 c2                	add    %eax,%edx
 80501a8:	8b 45 b0             	mov    -0x50(%ebp),%eax
 80501ab:	c1 e8 18             	shr    $0x18,%eax
 80501ae:	8b 04 c5 84 a5 05 08 	mov    0x805a584(,%eax,8),%eax
 80501b5:	89 02                	mov    %eax,(%edx)
 80501b7:	8b 45 e0             	mov    -0x20(%ebp),%eax
 80501ba:	8b 04 85 c0 9f 05 08 	mov    0x8059fc0(,%eax,4),%eax
 80501c1:	8b 55 ac             	mov    -0x54(%ebp),%edx
 80501c4:	c1 e2 02             	shl    $0x2,%edx
 80501c7:	01 c2                	add    %eax,%edx
 80501c9:	8b 45 e0             	mov    -0x20(%ebp),%eax
 80501cc:	8b 04 85 c0 9f 05 08 	mov    0x8059fc0(,%eax,4),%eax
 80501d3:	8b 4d ac             	mov    -0x54(%ebp),%ecx
 80501d6:	c1 e1 02             	shl    $0x2,%ecx
 80501d9:	01 c8                	add    %ecx,%eax
 80501db:	8b 08                	mov    (%eax),%ecx
 80501dd:	8b 45 b0             	mov    -0x50(%ebp),%eax
 80501e0:	c1 e8 10             	shr    $0x10,%eax
 80501e3:	0f b6 c0             	movzbl %al,%eax
 80501e6:	05 00 01 00 00       	add    $0x100,%eax
 80501eb:	8b 04 c5 80 a5 05 08 	mov    0x805a580(,%eax,8),%eax
 80501f2:	09 c8                	or     %ecx,%eax
 80501f4:	89 02                	mov    %eax,(%edx)
 80501f6:	8b 45 e0             	mov    -0x20(%ebp),%eax
 80501f9:	8b 04 85 c0 9f 05 08 	mov    0x8059fc0(,%eax,4),%eax
 8050200:	8b 55 ac             	mov    -0x54(%ebp),%edx
 8050203:	83 c2 01             	add    $0x1,%edx
 8050206:	c1 e2 02             	shl    $0x2,%edx
 8050209:	01 c2                	add    %eax,%edx
 805020b:	8b 45 e0             	mov    -0x20(%ebp),%eax
 805020e:	8b 04 85 c0 9f 05 08 	mov    0x8059fc0(,%eax,4),%eax
 8050215:	8b 4d ac             	mov    -0x54(%ebp),%ecx
 8050218:	83 c1 01             	add    $0x1,%ecx
 805021b:	c1 e1 02             	shl    $0x2,%ecx
 805021e:	01 c8                	add    %ecx,%eax
 8050220:	8b 08                	mov    (%eax),%ecx
 8050222:	8b 45 b0             	mov    -0x50(%ebp),%eax
 8050225:	c1 e8 10             	shr    $0x10,%eax
 8050228:	0f b6 c0             	movzbl %al,%eax
 805022b:	8b 04 c5 84 ad 05 08 	mov    0x805ad84(,%eax,8),%eax
 8050232:	09 c8                	or     %ecx,%eax
 8050234:	89 02                	mov    %eax,(%edx)
 8050236:	8b 45 e0             	mov    -0x20(%ebp),%eax
 8050239:	8b 04 85 c0 9f 05 08 	mov    0x8059fc0(,%eax,4),%eax
 8050240:	8b 55 ac             	mov    -0x54(%ebp),%edx
 8050243:	c1 e2 02             	shl    $0x2,%edx
 8050246:	01 c2                	add    %eax,%edx
 8050248:	8b 45 e0             	mov    -0x20(%ebp),%eax
 805024b:	8b 04 85 c0 9f 05 08 	mov    0x8059fc0(,%eax,4),%eax
 8050252:	8b 4d ac             	mov    -0x54(%ebp),%ecx
 8050255:	c1 e1 02             	shl    $0x2,%ecx
 8050258:	01 c8                	add    %ecx,%eax
 805025a:	8b 08                	mov    (%eax),%ecx
 805025c:	8b 45 b0             	mov    -0x50(%ebp),%eax
 805025f:	c1 e8 08             	shr    $0x8,%eax
 8050262:	0f b6 c0             	movzbl %al,%eax
 8050265:	05 00 02 00 00       	add    $0x200,%eax
 805026a:	8b 04 c5 80 a5 05 08 	mov    0x805a580(,%eax,8),%eax
 8050271:	09 c8                	or     %ecx,%eax
 8050273:	89 02                	mov    %eax,(%edx)
 8050275:	8b 45 e0             	mov    -0x20(%ebp),%eax
 8050278:	8b 04 85 c0 9f 05 08 	mov    0x8059fc0(,%eax,4),%eax
 805027f:	8b 55 ac             	mov    -0x54(%ebp),%edx
 8050282:	83 c2 01             	add    $0x1,%edx
 8050285:	c1 e2 02             	shl    $0x2,%edx
 8050288:	01 c2                	add    %eax,%edx
 805028a:	8b 45 e0             	mov    -0x20(%ebp),%eax
 805028d:	8b 04 85 c0 9f 05 08 	mov    0x8059fc0(,%eax,4),%eax
 8050294:	8b 4d ac             	mov    -0x54(%ebp),%ecx
 8050297:	83 c1 01             	add    $0x1,%ecx
 805029a:	c1 e1 02             	shl    $0x2,%ecx
 805029d:	01 c8                	add    %ecx,%eax
 805029f:	8b 08                	mov    (%eax),%ecx
 80502a1:	8b 45 b0             	mov    -0x50(%ebp),%eax
 80502a4:	c1 e8 08             	shr    $0x8,%eax
 80502a7:	0f b6 c0             	movzbl %al,%eax
 80502aa:	8b 04 c5 84 b5 05 08 	mov    0x805b584(,%eax,8),%eax
 80502b1:	09 c8                	or     %ecx,%eax
 80502b3:	89 02                	mov    %eax,(%edx)
 80502b5:	8b 45 e0             	mov    -0x20(%ebp),%eax
 80502b8:	8b 04 85 c0 9f 05 08 	mov    0x8059fc0(,%eax,4),%eax
 80502bf:	8b 55 ac             	mov    -0x54(%ebp),%edx
 80502c2:	c1 e2 02             	shl    $0x2,%edx
 80502c5:	01 c2                	add    %eax,%edx
 80502c7:	8b 45 e0             	mov    -0x20(%ebp),%eax
 80502ca:	8b 04 85 c0 9f 05 08 	mov    0x8059fc0(,%eax,4),%eax
 80502d1:	8b 4d ac             	mov    -0x54(%ebp),%ecx
 80502d4:	c1 e1 02             	shl    $0x2,%ecx
 80502d7:	01 c8                	add    %ecx,%eax
 80502d9:	8b 08                	mov    (%eax),%ecx
 80502db:	8b 45 b0             	mov    -0x50(%ebp),%eax
 80502de:	0f b6 c0             	movzbl %al,%eax
 80502e1:	05 00 03 00 00       	add    $0x300,%eax
 80502e6:	8b 04 c5 80 a5 05 08 	mov    0x805a580(,%eax,8),%eax
 80502ed:	09 c8                	or     %ecx,%eax
 80502ef:	89 02                	mov    %eax,(%edx)
 80502f1:	8b 45 e0             	mov    -0x20(%ebp),%eax
 80502f4:	8b 04 85 c0 9f 05 08 	mov    0x8059fc0(,%eax,4),%eax
 80502fb:	8b 55 ac             	mov    -0x54(%ebp),%edx
 80502fe:	83 c2 01             	add    $0x1,%edx
 8050301:	c1 e2 02             	shl    $0x2,%edx
 8050304:	01 c2                	add    %eax,%edx
 8050306:	8b 45 e0             	mov    -0x20(%ebp),%eax
 8050309:	8b 04 85 c0 9f 05 08 	mov    0x8059fc0(,%eax,4),%eax
 8050310:	8b 4d ac             	mov    -0x54(%ebp),%ecx
 8050313:	83 c1 01             	add    $0x1,%ecx
 8050316:	c1 e1 02             	shl    $0x2,%ecx
 8050319:	01 c8                	add    %ecx,%eax
 805031b:	8b 08                	mov    (%eax),%ecx
 805031d:	8b 45 b0             	mov    -0x50(%ebp),%eax
 8050320:	0f b6 c0             	movzbl %al,%eax
 8050323:	8b 04 c5 84 bd 05 08 	mov    0x805bd84(,%eax,8),%eax
 805032a:	09 c8                	or     %ecx,%eax
 805032c:	89 02                	mov    %eax,(%edx)
 805032e:	83 45 d4 01          	addl   $0x1,-0x2c(%ebp)
 8050332:	83 7d d4 3f          	cmpl   $0x3f,-0x2c(%ebp)
 8050336:	0f 8e d2 fd ff ff    	jle    805010e <_init_des+0x41d>
 805033c:	83 45 d8 01          	addl   $0x1,-0x28(%ebp)
 8050340:	83 7d d8 3f          	cmpl   $0x3f,-0x28(%ebp)
 8050344:	0f 8e 83 fd ff ff    	jle    80500cd <_init_des+0x3dc>
 805034a:	83 45 e0 01          	addl   $0x1,-0x20(%ebp)
 805034e:	83 7d e0 03          	cmpl   $0x3,-0x20(%ebp)
 8050352:	0f 8e 69 fd ff ff    	jle    80500c1 <_init_des+0x3d0>
 8050358:	c7 45 e4 30 00 00 00 	movl   $0x30,-0x1c(%ebp)
 805035f:	eb 31                	jmp    8050392 <_init_des+0x6a1>
 8050361:	8b 45 e4             	mov    -0x1c(%ebp),%eax
 8050364:	8b 04 85 80 95 05 08 	mov    0x8059580(,%eax,4),%eax
 805036b:	8d 50 ff             	lea    -0x1(%eax),%edx
 805036e:	8b 45 e4             	mov    -0x1c(%ebp),%eax
 8050371:	89 04 95 80 a4 05 08 	mov    %eax,0x805a480(,%edx,4)
 8050378:	8b 45 e4             	mov    -0x1c(%ebp),%eax
 805037b:	8b 04 85 80 95 05 08 	mov    0x8059580(,%eax,4),%eax
 8050382:	83 c0 1f             	add    $0x1f,%eax
 8050385:	8b 55 e4             	mov    -0x1c(%ebp),%edx
 8050388:	83 c2 30             	add    $0x30,%edx
 805038b:	89 14 85 80 a4 05 08 	mov    %edx,0x805a480(,%eax,4)
 8050392:	8b 45 e4             	mov    -0x1c(%ebp),%eax
 8050395:	8d 50 ff             	lea    -0x1(%eax),%edx
 8050398:	89 55 e4             	mov    %edx,-0x1c(%ebp)
 805039b:	85 c0                	test   %eax,%eax
 805039d:	75 c2                	jne    8050361 <_init_des+0x670>
 805039f:	c7 44 24 04 00 20 00 	movl   $0x2000,0x4(%esp)
 80503a6:	00 
 80503a7:	c7 04 24 80 f5 05 08 	movl   $0x805f580,(%esp)
 80503ae:	e8 fd a7 ff ff       	call   804abb0 <Bzero>
 80503b3:	c7 45 e4 00 00 00 00 	movl   $0x0,-0x1c(%ebp)
 80503ba:	e9 f7 00 00 00       	jmp    80504b6 <_init_des+0x7c5>
 80503bf:	8b 45 e4             	mov    -0x1c(%ebp),%eax
 80503c2:	8d 50 1f             	lea    0x1f(%eax),%edx
 80503c5:	85 c0                	test   %eax,%eax
 80503c7:	0f 48 c2             	cmovs  %edx,%eax
 80503ca:	c1 f8 05             	sar    $0x5,%eax
 80503cd:	89 45 a8             	mov    %eax,-0x58(%ebp)
 80503d0:	8b 45 e4             	mov    -0x1c(%ebp),%eax
 80503d3:	99                   	cltd   
 80503d4:	c1 ea 1b             	shr    $0x1b,%edx
 80503d7:	01 d0                	add    %edx,%eax
 80503d9:	83 e0 1f             	and    $0x1f,%eax
 80503dc:	29 d0                	sub    %edx,%eax
 80503de:	89 45 a4             	mov    %eax,-0x5c(%ebp)
 80503e1:	8b 45 e4             	mov    -0x1c(%ebp),%eax
 80503e4:	8b 04 85 c0 9e 05 08 	mov    0x8059ec0(,%eax,4),%eax
 80503eb:	83 e8 01             	sub    $0x1,%eax
 80503ee:	89 45 a0             	mov    %eax,-0x60(%ebp)
 80503f1:	8b 45 a0             	mov    -0x60(%ebp),%eax
 80503f4:	8b 04 85 80 a4 05 08 	mov    0x805a480(,%eax,4),%eax
 80503fb:	89 45 9c             	mov    %eax,-0x64(%ebp)
 80503fe:	8b 4d 9c             	mov    -0x64(%ebp),%ecx
 8050401:	ba ab aa aa 2a       	mov    $0x2aaaaaab,%edx
 8050406:	89 c8                	mov    %ecx,%eax
 8050408:	f7 ea                	imul   %edx
 805040a:	89 c8                	mov    %ecx,%eax
 805040c:	c1 f8 1f             	sar    $0x1f,%eax
 805040f:	29 c2                	sub    %eax,%edx
 8050411:	89 d0                	mov    %edx,%eax
 8050413:	89 45 98             	mov    %eax,-0x68(%ebp)
 8050416:	8b 4d 9c             	mov    -0x64(%ebp),%ecx
 8050419:	ba ab aa aa 2a       	mov    $0x2aaaaaab,%edx
 805041e:	89 c8                	mov    %ecx,%eax
 8050420:	f7 ea                	imul   %edx
 8050422:	89 c8                	mov    %ecx,%eax
 8050424:	c1 f8 1f             	sar    $0x1f,%eax
 8050427:	29 c2                	sub    %eax,%edx
 8050429:	89 d0                	mov    %edx,%eax
 805042b:	01 c0                	add    %eax,%eax
 805042d:	01 d0                	add    %edx,%eax
 805042f:	01 c0                	add    %eax,%eax
 8050431:	29 c1                	sub    %eax,%ecx
 8050433:	89 c8                	mov    %ecx,%eax
 8050435:	89 45 94             	mov    %eax,-0x6c(%ebp)
 8050438:	8b 45 94             	mov    -0x6c(%ebp),%eax
 805043b:	83 c0 1a             	add    $0x1a,%eax
 805043e:	8b 04 85 e0 9f 05 08 	mov    0x8059fe0(,%eax,4),%eax
 8050445:	89 45 90             	mov    %eax,-0x70(%ebp)
 8050448:	8b 45 a4             	mov    -0x5c(%ebp),%eax
 805044b:	8b 04 85 e0 9f 05 08 	mov    0x8059fe0(,%eax,4),%eax
 8050452:	89 45 8c             	mov    %eax,-0x74(%ebp)
 8050455:	c7 45 d0 40 00 00 00 	movl   $0x40,-0x30(%ebp)
 805045c:	eb 47                	jmp    80504a5 <_init_des+0x7b4>
 805045e:	8b 45 90             	mov    -0x70(%ebp),%eax
 8050461:	8b 55 d0             	mov    -0x30(%ebp),%edx
 8050464:	21 d0                	and    %edx,%eax
 8050466:	85 c0                	test   %eax,%eax
 8050468:	74 3b                	je     80504a5 <_init_des+0x7b4>
 805046a:	8b 45 98             	mov    -0x68(%ebp),%eax
 805046d:	c1 e0 06             	shl    $0x6,%eax
 8050470:	89 c2                	mov    %eax,%edx
 8050472:	8b 45 d0             	mov    -0x30(%ebp),%eax
 8050475:	01 d0                	add    %edx,%eax
 8050477:	8d 14 00             	lea    (%eax,%eax,1),%edx
 805047a:	8b 45 a8             	mov    -0x58(%ebp),%eax
 805047d:	01 d0                	add    %edx,%eax
 805047f:	8b 04 85 80 f5 05 08 	mov    0x805f580(,%eax,4),%eax
 8050486:	0b 45 8c             	or     -0x74(%ebp),%eax
 8050489:	8b 55 98             	mov    -0x68(%ebp),%edx
 805048c:	89 d1                	mov    %edx,%ecx
 805048e:	c1 e1 06             	shl    $0x6,%ecx
 8050491:	8b 55 d0             	mov    -0x30(%ebp),%edx
 8050494:	01 ca                	add    %ecx,%edx
 8050496:	8d 0c 12             	lea    (%edx,%edx,1),%ecx
 8050499:	8b 55 a8             	mov    -0x58(%ebp),%edx
 805049c:	01 ca                	add    %ecx,%edx
 805049e:	89 04 95 80 f5 05 08 	mov    %eax,0x805f580(,%edx,4)
 80504a5:	8b 45 d0             	mov    -0x30(%ebp),%eax
 80504a8:	8d 50 ff             	lea    -0x1(%eax),%edx
 80504ab:	89 55 d0             	mov    %edx,-0x30(%ebp)
 80504ae:	85 c0                	test   %eax,%eax
 80504b0:	75 ac                	jne    805045e <_init_des+0x76d>
 80504b2:	83 45 e4 01          	addl   $0x1,-0x1c(%ebp)
 80504b6:	83 7d e4 3f          	cmpl   $0x3f,-0x1c(%ebp)
 80504ba:	0f 8e ff fe ff ff    	jle    80503bf <_init_des+0x6ce>
 80504c0:	a1 80 15 06 08       	mov    0x8061580,%eax
 80504c5:	83 c0 01             	add    $0x1,%eax
 80504c8:	a3 80 15 06 08       	mov    %eax,0x8061580
 80504cd:	83 c4 7c             	add    $0x7c,%esp
 80504d0:	5b                   	pop    %ebx
 80504d1:	5e                   	pop    %esi
 80504d2:	5f                   	pop    %edi
 80504d3:	5d                   	pop    %ebp
 80504d4:	c3                   	ret    

080504d5 <shuffle_sb>:
 80504d5:	55                   	push   %ebp
 80504d6:	89 e5                	mov    %esp,%ebp
 80504d8:	83 ec 10             	sub    $0x10,%esp
 80504db:	c7 45 fc 00 10 00 00 	movl   $0x1000,-0x4(%ebp)
 80504e2:	eb 35                	jmp    8050519 <shuffle_sb+0x44>
 80504e4:	8b 45 08             	mov    0x8(%ebp),%eax
 80504e7:	8b 10                	mov    (%eax),%edx
 80504e9:	8b 45 08             	mov    0x8(%ebp),%eax
 80504ec:	83 c0 04             	add    $0x4,%eax
 80504ef:	8b 00                	mov    (%eax),%eax
 80504f1:	31 d0                	xor    %edx,%eax
 80504f3:	23 45 0c             	and    0xc(%ebp),%eax
 80504f6:	89 45 f8             	mov    %eax,-0x8(%ebp)
 80504f9:	8b 45 08             	mov    0x8(%ebp),%eax
 80504fc:	8d 50 04             	lea    0x4(%eax),%edx
 80504ff:	89 55 08             	mov    %edx,0x8(%ebp)
 8050502:	8b 10                	mov    (%eax),%edx
 8050504:	33 55 f8             	xor    -0x8(%ebp),%edx
 8050507:	89 10                	mov    %edx,(%eax)
 8050509:	8b 45 08             	mov    0x8(%ebp),%eax
 805050c:	8d 50 04             	lea    0x4(%eax),%edx
 805050f:	89 55 08             	mov    %edx,0x8(%ebp)
 8050512:	8b 10                	mov    (%eax),%edx
 8050514:	33 55 f8             	xor    -0x8(%ebp),%edx
 8050517:	89 10                	mov    %edx,(%eax)
 8050519:	8b 45 fc             	mov    -0x4(%ebp),%eax
 805051c:	8d 50 ff             	lea    -0x1(%eax),%edx
 805051f:	89 55 fc             	mov    %edx,-0x4(%ebp)
 8050522:	85 c0                	test   %eax,%eax
 8050524:	75 be                	jne    80504e4 <shuffle_sb+0xf>
 8050526:	c9                   	leave  
 8050527:	c3                   	ret    

08050528 <setup_salt>:
 8050528:	55                   	push   %ebp
 8050529:	89 e5                	mov    %esp,%ebp
 805052b:	53                   	push   %ebx
 805052c:	83 ec 24             	sub    $0x24,%esp
 805052f:	a1 80 15 06 08       	mov    0x8061580,%eax
 8050534:	85 c0                	test   %eax,%eax
 8050536:	75 05                	jne    805053d <setup_salt+0x15>
 8050538:	e8 b4 f7 ff ff       	call   804fcf1 <_init_des>
 805053d:	8b 45 08             	mov    0x8(%ebp),%eax
 8050540:	0f b6 00             	movzbl (%eax),%eax
 8050543:	0f be d0             	movsbl %al,%edx
 8050546:	0f b6 05 60 a0 05 08 	movzbl 0x805a060,%eax
 805054d:	0f b6 c0             	movzbl %al,%eax
 8050550:	39 c2                	cmp    %eax,%edx
 8050552:	75 1f                	jne    8050573 <setup_salt+0x4b>
 8050554:	8b 45 08             	mov    0x8(%ebp),%eax
 8050557:	83 c0 01             	add    $0x1,%eax
 805055a:	0f b6 00             	movzbl (%eax),%eax
 805055d:	0f be d0             	movsbl %al,%edx
 8050560:	0f b6 05 61 a0 05 08 	movzbl 0x805a061,%eax
 8050567:	0f b6 c0             	movzbl %al,%eax
 805056a:	39 c2                	cmp    %eax,%edx
 805056c:	75 05                	jne    8050573 <setup_salt+0x4b>
 805056e:	e9 a4 01 00 00       	jmp    8050717 <setup_salt+0x1ef>
 8050573:	8b 45 08             	mov    0x8(%ebp),%eax
 8050576:	0f b6 00             	movzbl (%eax),%eax
 8050579:	a2 60 a0 05 08       	mov    %al,0x805a060
 805057e:	8b 45 08             	mov    0x8(%ebp),%eax
 8050581:	83 c0 01             	add    $0x1,%eax
 8050584:	0f b6 00             	movzbl (%eax),%eax
 8050587:	a2 61 a0 05 08       	mov    %al,0x805a061
 805058c:	c7 45 ec 00 00 00 00 	movl   $0x0,-0x14(%ebp)
 8050593:	c7 45 f4 00 00 00 00 	movl   $0x0,-0xc(%ebp)
 805059a:	e9 06 01 00 00       	jmp    80506a5 <setup_salt+0x17d>
 805059f:	8b 45 f4             	mov    -0xc(%ebp),%eax
 80505a2:	8b 55 08             	mov    0x8(%ebp),%edx
 80505a5:	01 d0                	add    %edx,%eax
 80505a7:	0f b6 00             	movzbl (%eax),%eax
 80505aa:	3c 60                	cmp    $0x60,%al
 80505ac:	7e 13                	jle    80505c1 <setup_salt+0x99>
 80505ae:	8b 45 f4             	mov    -0xc(%ebp),%eax
 80505b1:	8b 55 08             	mov    0x8(%ebp),%edx
 80505b4:	01 d0                	add    %edx,%eax
 80505b6:	0f b6 00             	movzbl (%eax),%eax
 80505b9:	0f be c0             	movsbl %al,%eax
 80505bc:	83 e8 3b             	sub    $0x3b,%eax
 80505bf:	eb 33                	jmp    80505f4 <setup_salt+0xcc>
 80505c1:	8b 45 f4             	mov    -0xc(%ebp),%eax
 80505c4:	8b 55 08             	mov    0x8(%ebp),%edx
 80505c7:	01 d0                	add    %edx,%eax
 80505c9:	0f b6 00             	movzbl (%eax),%eax
 80505cc:	3c 40                	cmp    $0x40,%al
 80505ce:	7e 13                	jle    80505e3 <setup_salt+0xbb>
 80505d0:	8b 45 f4             	mov    -0xc(%ebp),%eax
 80505d3:	8b 55 08             	mov    0x8(%ebp),%edx
 80505d6:	01 d0                	add    %edx,%eax
 80505d8:	0f b6 00             	movzbl (%eax),%eax
 80505db:	0f be c0             	movsbl %al,%eax
 80505de:	83 e8 35             	sub    $0x35,%eax
 80505e1:	eb 11                	jmp    80505f4 <setup_salt+0xcc>
 80505e3:	8b 45 f4             	mov    -0xc(%ebp),%eax
 80505e6:	8b 55 08             	mov    0x8(%ebp),%edx
 80505e9:	01 d0                	add    %edx,%eax
 80505eb:	0f b6 00             	movzbl (%eax),%eax
 80505ee:	0f be c0             	movsbl %al,%eax
 80505f1:	83 e8 2e             	sub    $0x2e,%eax
 80505f4:	89 45 e8             	mov    %eax,-0x18(%ebp)
 80505f7:	83 7d e8 00          	cmpl   $0x0,-0x18(%ebp)
 80505fb:	78 06                	js     8050603 <setup_salt+0xdb>
 80505fd:	83 7d e8 3f          	cmpl   $0x3f,-0x18(%ebp)
 8050601:	7e 07                	jle    805060a <setup_salt+0xe2>
 8050603:	c7 45 e8 00 00 00 00 	movl   $0x0,-0x18(%ebp)
 805060a:	c7 45 f0 00 00 00 00 	movl   $0x0,-0x10(%ebp)
 8050611:	e9 81 00 00 00       	jmp    8050697 <setup_salt+0x16f>
 8050616:	8b 45 f0             	mov    -0x10(%ebp),%eax
 8050619:	8b 55 e8             	mov    -0x18(%ebp),%edx
 805061c:	89 c1                	mov    %eax,%ecx
 805061e:	d3 fa                	sar    %cl,%edx
 8050620:	89 d0                	mov    %edx,%eax
 8050622:	83 e0 01             	and    $0x1,%eax
 8050625:	85 c0                	test   %eax,%eax
 8050627:	74 6a                	je     8050693 <setup_salt+0x16b>
 8050629:	8b 55 f4             	mov    -0xc(%ebp),%edx
 805062c:	89 d0                	mov    %edx,%eax
 805062e:	01 c0                	add    %eax,%eax
 8050630:	01 d0                	add    %edx,%eax
 8050632:	01 c0                	add    %eax,%eax
 8050634:	89 c2                	mov    %eax,%edx
 8050636:	8b 45 f0             	mov    -0x10(%ebp),%eax
 8050639:	8d 0c 02             	lea    (%edx,%eax,1),%ecx
 805063c:	ba ab aa aa aa       	mov    $0xaaaaaaab,%edx
 8050641:	89 c8                	mov    %ecx,%eax
 8050643:	f7 e2                	mul    %edx
 8050645:	c1 ea 03             	shr    $0x3,%edx
 8050648:	89 d0                	mov    %edx,%eax
 805064a:	01 c0                	add    %eax,%eax
 805064c:	01 d0                	add    %edx,%eax
 805064e:	c1 e0 02             	shl    $0x2,%eax
 8050651:	29 c1                	sub    %eax,%ecx
 8050653:	89 ca                	mov    %ecx,%edx
 8050655:	b8 0e 00 00 00       	mov    $0xe,%eax
 805065a:	29 d0                	sub    %edx,%eax
 805065c:	ba 01 00 00 00       	mov    $0x1,%edx
 8050661:	89 d3                	mov    %edx,%ebx
 8050663:	89 c1                	mov    %eax,%ecx
 8050665:	d3 e3                	shl    %cl,%ebx
 8050667:	8b 55 f4             	mov    -0xc(%ebp),%edx
 805066a:	89 d0                	mov    %edx,%eax
 805066c:	01 c0                	add    %eax,%eax
 805066e:	01 d0                	add    %edx,%eax
 8050670:	01 c0                	add    %eax,%eax
 8050672:	89 c2                	mov    %eax,%edx
 8050674:	8b 45 f0             	mov    -0x10(%ebp),%eax
 8050677:	01 d0                	add    %edx,%eax
 8050679:	83 f8 0b             	cmp    $0xb,%eax
 805067c:	77 07                	ja     8050685 <setup_salt+0x15d>
 805067e:	b8 10 00 00 00       	mov    $0x10,%eax
 8050683:	eb 05                	jmp    805068a <setup_salt+0x162>
 8050685:	b8 00 00 00 00       	mov    $0x0,%eax
 805068a:	89 c1                	mov    %eax,%ecx
 805068c:	d3 e3                	shl    %cl,%ebx
 805068e:	89 d8                	mov    %ebx,%eax
 8050690:	09 45 ec             	or     %eax,-0x14(%ebp)
 8050693:	83 45 f0 01          	addl   $0x1,-0x10(%ebp)
 8050697:	83 7d f0 05          	cmpl   $0x5,-0x10(%ebp)
 805069b:	0f 86 75 ff ff ff    	jbe    8050616 <setup_salt+0xee>
 80506a1:	83 45 f4 01          	addl   $0x1,-0xc(%ebp)
 80506a5:	83 7d f4 01          	cmpl   $0x1,-0xc(%ebp)
 80506a9:	0f 86 f0 fe ff ff    	jbe    805059f <setup_salt+0x77>
 80506af:	a1 84 15 06 08       	mov    0x8061584,%eax
 80506b4:	33 45 ec             	xor    -0x14(%ebp),%eax
 80506b7:	89 44 24 04          	mov    %eax,0x4(%esp)
 80506bb:	c7 04 24 e0 16 07 08 	movl   $0x80716e0,(%esp)
 80506c2:	e8 0e fe ff ff       	call   80504d5 <shuffle_sb>
 80506c7:	a1 84 15 06 08       	mov    0x8061584,%eax
 80506cc:	33 45 ec             	xor    -0x14(%ebp),%eax
 80506cf:	89 44 24 04          	mov    %eax,0x4(%esp)
 80506d3:	c7 04 24 60 16 06 08 	movl   $0x8061660,(%esp)
 80506da:	e8 f6 fd ff ff       	call   80504d5 <shuffle_sb>
 80506df:	a1 84 15 06 08       	mov    0x8061584,%eax
 80506e4:	33 45 ec             	xor    -0x14(%ebp),%eax
 80506e7:	89 44 24 04          	mov    %eax,0x4(%esp)
 80506eb:	c7 04 24 e0 96 07 08 	movl   $0x80796e0,(%esp)
 80506f2:	e8 de fd ff ff       	call   80504d5 <shuffle_sb>
 80506f7:	a1 84 15 06 08       	mov    0x8061584,%eax
 80506fc:	33 45 ec             	xor    -0x14(%ebp),%eax
 80506ff:	89 44 24 04          	mov    %eax,0x4(%esp)
 8050703:	c7 04 24 60 96 06 08 	movl   $0x8069660,(%esp)
 805070a:	e8 c6 fd ff ff       	call   80504d5 <shuffle_sb>
 805070f:	8b 45 ec             	mov    -0x14(%ebp),%eax
 8050712:	a3 84 15 06 08       	mov    %eax,0x8061584
 8050717:	83 c4 24             	add    $0x24,%esp
 805071a:	5b                   	pop    %ebx
 805071b:	5d                   	pop    %ebp
 805071c:	c3                   	ret    

0805071d <ufc_mk_keytab>:
 805071d:	55                   	push   %ebp
 805071e:	89 e5                	mov    %esp,%ebp
 8050720:	53                   	push   %ebx
 8050721:	83 ec 20             	sub    $0x20,%esp
 8050724:	c7 45 e8 60 16 07 08 	movl   $0x8071660,-0x18(%ebp)
 805072b:	c7 45 f4 00 00 00 00 	movl   $0x0,-0xc(%ebp)
 8050732:	8b 45 f4             	mov    -0xc(%ebp),%eax
 8050735:	89 45 f8             	mov    %eax,-0x8(%ebp)
 8050738:	c7 45 f0 80 c5 05 08 	movl   $0x805c580,-0x10(%ebp)
 805073f:	c7 45 ec 08 00 00 00 	movl   $0x8,-0x14(%ebp)
 8050746:	eb 4e                	jmp    8050796 <ufc_mk_keytab+0x79>
 8050748:	8b 45 08             	mov    0x8(%ebp),%eax
 805074b:	0f b6 00             	movzbl (%eax),%eax
 805074e:	0f be c0             	movsbl %al,%eax
 8050751:	83 e0 7f             	and    $0x7f,%eax
 8050754:	8d 14 85 00 00 00 00 	lea    0x0(,%eax,4),%edx
 805075b:	8b 45 f0             	mov    -0x10(%ebp),%eax
 805075e:	01 d0                	add    %edx,%eax
 8050760:	8b 00                	mov    (%eax),%eax
 8050762:	09 45 f8             	or     %eax,-0x8(%ebp)
 8050765:	81 45 f0 00 02 00 00 	addl   $0x200,-0x10(%ebp)
 805076c:	8b 45 08             	mov    0x8(%ebp),%eax
 805076f:	8d 50 01             	lea    0x1(%eax),%edx
 8050772:	89 55 08             	mov    %edx,0x8(%ebp)
 8050775:	0f b6 00             	movzbl (%eax),%eax
 8050778:	0f be c0             	movsbl %al,%eax
 805077b:	83 e0 7f             	and    $0x7f,%eax
 805077e:	8d 14 85 00 00 00 00 	lea    0x0(,%eax,4),%edx
 8050785:	8b 45 f0             	mov    -0x10(%ebp),%eax
 8050788:	01 d0                	add    %edx,%eax
 805078a:	8b 00                	mov    (%eax),%eax
 805078c:	09 45 f4             	or     %eax,-0xc(%ebp)
 805078f:	81 45 f0 00 02 00 00 	addl   $0x200,-0x10(%ebp)
 8050796:	8b 45 ec             	mov    -0x14(%ebp),%eax
 8050799:	8d 50 ff             	lea    -0x1(%eax),%edx
 805079c:	89 55 ec             	mov    %edx,-0x14(%ebp)
 805079f:	85 c0                	test   %eax,%eax
 80507a1:	75 a5                	jne    8050748 <ufc_mk_keytab+0x2b>
 80507a3:	c7 45 ec 00 00 00 00 	movl   $0x0,-0x14(%ebp)
 80507aa:	e9 91 01 00 00       	jmp    8050940 <ufc_mk_keytab+0x223>
 80507af:	c7 45 f0 80 e5 05 08 	movl   $0x805e580,-0x10(%ebp)
 80507b6:	8b 45 ec             	mov    -0x14(%ebp),%eax
 80507b9:	8b 04 85 80 94 05 08 	mov    0x8059480(,%eax,4),%eax
 80507c0:	8b 55 f8             	mov    -0x8(%ebp),%edx
 80507c3:	89 d3                	mov    %edx,%ebx
 80507c5:	89 c1                	mov    %eax,%ecx
 80507c7:	d3 e3                	shl    %cl,%ebx
 80507c9:	8b 45 ec             	mov    -0x14(%ebp),%eax
 80507cc:	8b 04 85 80 94 05 08 	mov    0x8059480(,%eax,4),%eax
 80507d3:	ba 1c 00 00 00       	mov    $0x1c,%edx
 80507d8:	29 c2                	sub    %eax,%edx
 80507da:	89 d0                	mov    %edx,%eax
 80507dc:	8b 55 f8             	mov    -0x8(%ebp),%edx
 80507df:	89 c1                	mov    %eax,%ecx
 80507e1:	d3 ea                	shr    %cl,%edx
 80507e3:	89 d0                	mov    %edx,%eax
 80507e5:	09 d8                	or     %ebx,%eax
 80507e7:	89 45 f8             	mov    %eax,-0x8(%ebp)
 80507ea:	8b 45 f8             	mov    -0x8(%ebp),%eax
 80507ed:	c1 e8 15             	shr    $0x15,%eax
 80507f0:	83 e0 7f             	and    $0x7f,%eax
 80507f3:	8d 14 85 00 00 00 00 	lea    0x0(,%eax,4),%edx
 80507fa:	8b 45 f0             	mov    -0x10(%ebp),%eax
 80507fd:	01 d0                	add    %edx,%eax
 80507ff:	8b 00                	mov    (%eax),%eax
 8050801:	89 45 e4             	mov    %eax,-0x1c(%ebp)
 8050804:	81 45 f0 00 02 00 00 	addl   $0x200,-0x10(%ebp)
 805080b:	8b 45 f8             	mov    -0x8(%ebp),%eax
 805080e:	c1 e8 0e             	shr    $0xe,%eax
 8050811:	83 e0 7f             	and    $0x7f,%eax
 8050814:	8d 14 85 00 00 00 00 	lea    0x0(,%eax,4),%edx
 805081b:	8b 45 f0             	mov    -0x10(%ebp),%eax
 805081e:	01 d0                	add    %edx,%eax
 8050820:	8b 00                	mov    (%eax),%eax
 8050822:	09 45 e4             	or     %eax,-0x1c(%ebp)
 8050825:	81 45 f0 00 02 00 00 	addl   $0x200,-0x10(%ebp)
 805082c:	8b 45 f8             	mov    -0x8(%ebp),%eax
 805082f:	c1 e8 07             	shr    $0x7,%eax
 8050832:	83 e0 7f             	and    $0x7f,%eax
 8050835:	8d 14 85 00 00 00 00 	lea    0x0(,%eax,4),%edx
 805083c:	8b 45 f0             	mov    -0x10(%ebp),%eax
 805083f:	01 d0                	add    %edx,%eax
 8050841:	8b 00                	mov    (%eax),%eax
 8050843:	09 45 e4             	or     %eax,-0x1c(%ebp)
 8050846:	81 45 f0 00 02 00 00 	addl   $0x200,-0x10(%ebp)
 805084d:	8b 45 f8             	mov    -0x8(%ebp),%eax
 8050850:	83 e0 7f             	and    $0x7f,%eax
 8050853:	8d 14 85 00 00 00 00 	lea    0x0(,%eax,4),%edx
 805085a:	8b 45 f0             	mov    -0x10(%ebp),%eax
 805085d:	01 d0                	add    %edx,%eax
 805085f:	8b 00                	mov    (%eax),%eax
 8050861:	09 45 e4             	or     %eax,-0x1c(%ebp)
 8050864:	81 45 f0 00 02 00 00 	addl   $0x200,-0x10(%ebp)
 805086b:	8b 45 e8             	mov    -0x18(%ebp),%eax
 805086e:	8d 50 04             	lea    0x4(%eax),%edx
 8050871:	89 55 e8             	mov    %edx,-0x18(%ebp)
 8050874:	8b 55 e4             	mov    -0x1c(%ebp),%edx
 8050877:	89 10                	mov    %edx,(%eax)
 8050879:	c7 45 e4 00 00 00 00 	movl   $0x0,-0x1c(%ebp)
 8050880:	8b 45 ec             	mov    -0x14(%ebp),%eax
 8050883:	8b 04 85 80 94 05 08 	mov    0x8059480(,%eax,4),%eax
 805088a:	8b 55 f4             	mov    -0xc(%ebp),%edx
 805088d:	89 d3                	mov    %edx,%ebx
 805088f:	89 c1                	mov    %eax,%ecx
 8050891:	d3 e3                	shl    %cl,%ebx
 8050893:	8b 45 ec             	mov    -0x14(%ebp),%eax
 8050896:	8b 04 85 80 94 05 08 	mov    0x8059480(,%eax,4),%eax
 805089d:	ba 1c 00 00 00       	mov    $0x1c,%edx
 80508a2:	29 c2                	sub    %eax,%edx
 80508a4:	89 d0                	mov    %edx,%eax
 80508a6:	8b 55 f4             	mov    -0xc(%ebp),%edx
 80508a9:	89 c1                	mov    %eax,%ecx
 80508ab:	d3 ea                	shr    %cl,%edx
 80508ad:	89 d0                	mov    %edx,%eax
 80508af:	09 d8                	or     %ebx,%eax
 80508b1:	89 45 f4             	mov    %eax,-0xc(%ebp)
 80508b4:	8b 45 f4             	mov    -0xc(%ebp),%eax
 80508b7:	c1 e8 15             	shr    $0x15,%eax
 80508ba:	83 e0 7f             	and    $0x7f,%eax
 80508bd:	8d 14 85 00 00 00 00 	lea    0x0(,%eax,4),%edx
 80508c4:	8b 45 f0             	mov    -0x10(%ebp),%eax
 80508c7:	01 d0                	add    %edx,%eax
 80508c9:	8b 00                	mov    (%eax),%eax
 80508cb:	09 45 e4             	or     %eax,-0x1c(%ebp)
 80508ce:	81 45 f0 00 02 00 00 	addl   $0x200,-0x10(%ebp)
 80508d5:	8b 45 f4             	mov    -0xc(%ebp),%eax
 80508d8:	c1 e8 0e             	shr    $0xe,%eax
 80508db:	83 e0 7f             	and    $0x7f,%eax
 80508de:	8d 14 85 00 00 00 00 	lea    0x0(,%eax,4),%edx
 80508e5:	8b 45 f0             	mov    -0x10(%ebp),%eax
 80508e8:	01 d0                	add    %edx,%eax
 80508ea:	8b 00                	mov    (%eax),%eax
 80508ec:	09 45 e4             	or     %eax,-0x1c(%ebp)
 80508ef:	81 45 f0 00 02 00 00 	addl   $0x200,-0x10(%ebp)
 80508f6:	8b 45 f4             	mov    -0xc(%ebp),%eax
 80508f9:	c1 e8 07             	shr    $0x7,%eax
 80508fc:	83 e0 7f             	and    $0x7f,%eax
 80508ff:	8d 14 85 00 00 00 00 	lea    0x0(,%eax,4),%edx
 8050906:	8b 45 f0             	mov    -0x10(%ebp),%eax
 8050909:	01 d0                	add    %edx,%eax
 805090b:	8b 00                	mov    (%eax),%eax
 805090d:	09 45 e4             	or     %eax,-0x1c(%ebp)
 8050910:	81 45 f0 00 02 00 00 	addl   $0x200,-0x10(%ebp)
 8050917:	8b 45 f4             	mov    -0xc(%ebp),%eax
 805091a:	83 e0 7f             	and    $0x7f,%eax
 805091d:	8d 14 85 00 00 00 00 	lea    0x0(,%eax,4),%edx
 8050924:	8b 45 f0             	mov    -0x10(%ebp),%eax
 8050927:	01 d0                	add    %edx,%eax
 8050929:	8b 00                	mov    (%eax),%eax
 805092b:	09 45 e4             	or     %eax,-0x1c(%ebp)
 805092e:	8b 45 e8             	mov    -0x18(%ebp),%eax
 8050931:	8d 50 04             	lea    0x4(%eax),%edx
 8050934:	89 55 e8             	mov    %edx,-0x18(%ebp)
 8050937:	8b 55 e4             	mov    -0x1c(%ebp),%edx
 805093a:	89 10                	mov    %edx,(%eax)
 805093c:	83 45 ec 01          	addl   $0x1,-0x14(%ebp)
 8050940:	83 7d ec 0f          	cmpl   $0xf,-0x14(%ebp)
 8050944:	0f 8e 65 fe ff ff    	jle    80507af <ufc_mk_keytab+0x92>
 805094a:	c7 05 88 15 06 08 00 	movl   $0x0,0x8061588
 8050951:	00 00 00 
 8050954:	83 c4 20             	add    $0x20,%esp
 8050957:	5b                   	pop    %ebx
 8050958:	5d                   	pop    %ebp
 8050959:	c3                   	ret    

0805095a <_ufc_dofinalperm>:
 805095a:	55                   	push   %ebp
 805095b:	89 e5                	mov    %esp,%ebp
 805095d:	83 ec 10             	sub    $0x10,%esp
 8050960:	8b 45 0c             	mov    0xc(%ebp),%eax
 8050963:	8b 55 08             	mov    0x8(%ebp),%edx
 8050966:	31 c2                	xor    %eax,%edx
 8050968:	a1 84 15 06 08       	mov    0x8061584,%eax
 805096d:	21 d0                	and    %edx,%eax
 805096f:	89 45 fc             	mov    %eax,-0x4(%ebp)
 8050972:	8b 45 fc             	mov    -0x4(%ebp),%eax
 8050975:	31 45 08             	xor    %eax,0x8(%ebp)
 8050978:	8b 45 fc             	mov    -0x4(%ebp),%eax
 805097b:	31 45 0c             	xor    %eax,0xc(%ebp)
 805097e:	8b 45 14             	mov    0x14(%ebp),%eax
 8050981:	8b 55 10             	mov    0x10(%ebp),%edx
 8050984:	31 c2                	xor    %eax,%edx
 8050986:	a1 84 15 06 08       	mov    0x8061584,%eax
 805098b:	21 d0                	and    %edx,%eax
 805098d:	89 45 fc             	mov    %eax,-0x4(%ebp)
 8050990:	8b 45 fc             	mov    -0x4(%ebp),%eax
 8050993:	31 45 10             	xor    %eax,0x10(%ebp)
 8050996:	8b 45 fc             	mov    -0x4(%ebp),%eax
 8050999:	31 45 14             	xor    %eax,0x14(%ebp)
 805099c:	c7 45 f8 00 00 00 00 	movl   $0x0,-0x8(%ebp)
 80509a3:	8b 45 f8             	mov    -0x8(%ebp),%eax
 80509a6:	89 45 f4             	mov    %eax,-0xc(%ebp)
 80509a9:	c1 6d 08 03          	shrl   $0x3,0x8(%ebp)
 80509ad:	c1 6d 0c 03          	shrl   $0x3,0xc(%ebp)
 80509b1:	c1 6d 10 03          	shrl   $0x3,0x10(%ebp)
 80509b5:	c1 6d 14 03          	shrl   $0x3,0x14(%ebp)
 80509b9:	8b 45 14             	mov    0x14(%ebp),%eax
 80509bc:	83 e0 3f             	and    $0x3f,%eax
 80509bf:	05 c0 03 00 00       	add    $0x3c0,%eax
 80509c4:	8b 04 c5 80 f5 05 08 	mov    0x805f580(,%eax,8),%eax
 80509cb:	09 45 f4             	or     %eax,-0xc(%ebp)
 80509ce:	8b 45 14             	mov    0x14(%ebp),%eax
 80509d1:	83 e0 3f             	and    $0x3f,%eax
 80509d4:	8b 04 c5 84 13 06 08 	mov    0x8061384(,%eax,8),%eax
 80509db:	09 45 f8             	or     %eax,-0x8(%ebp)
 80509de:	c1 6d 14 06          	shrl   $0x6,0x14(%ebp)
 80509e2:	8b 45 14             	mov    0x14(%ebp),%eax
 80509e5:	83 e0 3f             	and    $0x3f,%eax
 80509e8:	05 80 03 00 00       	add    $0x380,%eax
 80509ed:	8b 04 c5 80 f5 05 08 	mov    0x805f580(,%eax,8),%eax
 80509f4:	09 45 f4             	or     %eax,-0xc(%ebp)
 80509f7:	8b 45 14             	mov    0x14(%ebp),%eax
 80509fa:	83 e0 3f             	and    $0x3f,%eax
 80509fd:	8b 04 c5 84 11 06 08 	mov    0x8061184(,%eax,8),%eax
 8050a04:	09 45 f8             	or     %eax,-0x8(%ebp)
 8050a07:	c1 6d 14 0a          	shrl   $0xa,0x14(%ebp)
 8050a0b:	8b 45 14             	mov    0x14(%ebp),%eax
 8050a0e:	83 e0 3f             	and    $0x3f,%eax
 8050a11:	05 40 03 00 00       	add    $0x340,%eax
 8050a16:	8b 04 c5 80 f5 05 08 	mov    0x805f580(,%eax,8),%eax
 8050a1d:	09 45 f4             	or     %eax,-0xc(%ebp)
 8050a20:	8b 45 14             	mov    0x14(%ebp),%eax
 8050a23:	83 e0 3f             	and    $0x3f,%eax
 8050a26:	8b 04 c5 84 0f 06 08 	mov    0x8060f84(,%eax,8),%eax
 8050a2d:	09 45 f8             	or     %eax,-0x8(%ebp)
 8050a30:	c1 6d 14 06          	shrl   $0x6,0x14(%ebp)
 8050a34:	8b 45 14             	mov    0x14(%ebp),%eax
 8050a37:	83 e0 3f             	and    $0x3f,%eax
 8050a3a:	05 00 03 00 00       	add    $0x300,%eax
 8050a3f:	8b 04 c5 80 f5 05 08 	mov    0x805f580(,%eax,8),%eax
 8050a46:	09 45 f4             	or     %eax,-0xc(%ebp)
 8050a49:	8b 45 14             	mov    0x14(%ebp),%eax
 8050a4c:	83 e0 3f             	and    $0x3f,%eax
 8050a4f:	8b 04 c5 84 0d 06 08 	mov    0x8060d84(,%eax,8),%eax
 8050a56:	09 45 f8             	or     %eax,-0x8(%ebp)
 8050a59:	8b 45 10             	mov    0x10(%ebp),%eax
 8050a5c:	83 e0 3f             	and    $0x3f,%eax
 8050a5f:	05 c0 02 00 00       	add    $0x2c0,%eax
 8050a64:	8b 04 c5 80 f5 05 08 	mov    0x805f580(,%eax,8),%eax
 8050a6b:	09 45 f4             	or     %eax,-0xc(%ebp)
 8050a6e:	8b 45 10             	mov    0x10(%ebp),%eax
 8050a71:	83 e0 3f             	and    $0x3f,%eax
 8050a74:	8b 04 c5 84 0b 06 08 	mov    0x8060b84(,%eax,8),%eax
 8050a7b:	09 45 f8             	or     %eax,-0x8(%ebp)
 8050a7e:	c1 6d 10 06          	shrl   $0x6,0x10(%ebp)
 8050a82:	8b 45 10             	mov    0x10(%ebp),%eax
 8050a85:	83 e0 3f             	and    $0x3f,%eax
 8050a88:	05 80 02 00 00       	add    $0x280,%eax
 8050a8d:	8b 04 c5 80 f5 05 08 	mov    0x805f580(,%eax,8),%eax
 8050a94:	09 45 f4             	or     %eax,-0xc(%ebp)
 8050a97:	8b 45 10             	mov    0x10(%ebp),%eax
 8050a9a:	83 e0 3f             	and    $0x3f,%eax
 8050a9d:	8b 04 c5 84 09 06 08 	mov    0x8060984(,%eax,8),%eax
 8050aa4:	09 45 f8             	or     %eax,-0x8(%ebp)
 8050aa7:	c1 6d 10 0a          	shrl   $0xa,0x10(%ebp)
 8050aab:	8b 45 10             	mov    0x10(%ebp),%eax
 8050aae:	83 e0 3f             	and    $0x3f,%eax
 8050ab1:	05 40 02 00 00       	add    $0x240,%eax
 8050ab6:	8b 04 c5 80 f5 05 08 	mov    0x805f580(,%eax,8),%eax
 8050abd:	09 45 f4             	or     %eax,-0xc(%ebp)
 8050ac0:	8b 45 10             	mov    0x10(%ebp),%eax
 8050ac3:	83 e0 3f             	and    $0x3f,%eax
 8050ac6:	8b 04 c5 84 07 06 08 	mov    0x8060784(,%eax,8),%eax
 8050acd:	09 45 f8             	or     %eax,-0x8(%ebp)
 8050ad0:	c1 6d 10 06          	shrl   $0x6,0x10(%ebp)
 8050ad4:	8b 45 10             	mov    0x10(%ebp),%eax
 8050ad7:	83 e0 3f             	and    $0x3f,%eax
 8050ada:	05 00 02 00 00       	add    $0x200,%eax
 8050adf:	8b 04 c5 80 f5 05 08 	mov    0x805f580(,%eax,8),%eax
 8050ae6:	09 45 f4             	or     %eax,-0xc(%ebp)
 8050ae9:	8b 45 10             	mov    0x10(%ebp),%eax
 8050aec:	83 e0 3f             	and    $0x3f,%eax
 8050aef:	8b 04 c5 84 05 06 08 	mov    0x8060584(,%eax,8),%eax
 8050af6:	09 45 f8             	or     %eax,-0x8(%ebp)
 8050af9:	8b 45 0c             	mov    0xc(%ebp),%eax
 8050afc:	83 e0 3f             	and    $0x3f,%eax
 8050aff:	05 c0 01 00 00       	add    $0x1c0,%eax
 8050b04:	8b 04 c5 80 f5 05 08 	mov    0x805f580(,%eax,8),%eax
 8050b0b:	09 45 f4             	or     %eax,-0xc(%ebp)
 8050b0e:	8b 45 0c             	mov    0xc(%ebp),%eax
 8050b11:	83 e0 3f             	and    $0x3f,%eax
 8050b14:	8b 04 c5 84 03 06 08 	mov    0x8060384(,%eax,8),%eax
 8050b1b:	09 45 f8             	or     %eax,-0x8(%ebp)
 8050b1e:	c1 6d 0c 06          	shrl   $0x6,0xc(%ebp)
 8050b22:	8b 45 0c             	mov    0xc(%ebp),%eax
 8050b25:	83 e0 3f             	and    $0x3f,%eax
 8050b28:	05 80 01 00 00       	add    $0x180,%eax
 8050b2d:	8b 04 c5 80 f5 05 08 	mov    0x805f580(,%eax,8),%eax
 8050b34:	09 45 f4             	or     %eax,-0xc(%ebp)
 8050b37:	8b 45 0c             	mov    0xc(%ebp),%eax
 8050b3a:	83 e0 3f             	and    $0x3f,%eax
 8050b3d:	8b 04 c5 84 01 06 08 	mov    0x8060184(,%eax,8),%eax
 8050b44:	09 45 f8             	or     %eax,-0x8(%ebp)
 8050b47:	c1 6d 0c 0a          	shrl   $0xa,0xc(%ebp)
 8050b4b:	8b 45 0c             	mov    0xc(%ebp),%eax
 8050b4e:	83 e0 3f             	and    $0x3f,%eax
 8050b51:	05 40 01 00 00       	add    $0x140,%eax
 8050b56:	8b 04 c5 80 f5 05 08 	mov    0x805f580(,%eax,8),%eax
 8050b5d:	09 45 f4             	or     %eax,-0xc(%ebp)
 8050b60:	8b 45 0c             	mov    0xc(%ebp),%eax
 8050b63:	83 e0 3f             	and    $0x3f,%eax
 8050b66:	8b 04 c5 84 ff 05 08 	mov    0x805ff84(,%eax,8),%eax
 8050b6d:	09 45 f8             	or     %eax,-0x8(%ebp)
 8050b70:	c1 6d 0c 06          	shrl   $0x6,0xc(%ebp)
 8050b74:	8b 45 0c             	mov    0xc(%ebp),%eax
 8050b77:	83 e0 3f             	and    $0x3f,%eax
 8050b7a:	05 00 01 00 00       	add    $0x100,%eax
 8050b7f:	8b 04 c5 80 f5 05 08 	mov    0x805f580(,%eax,8),%eax
 8050b86:	09 45 f4             	or     %eax,-0xc(%ebp)
 8050b89:	8b 45 0c             	mov    0xc(%ebp),%eax
 8050b8c:	83 e0 3f             	and    $0x3f,%eax
 8050b8f:	8b 04 c5 84 fd 05 08 	mov    0x805fd84(,%eax,8),%eax
 8050b96:	09 45 f8             	or     %eax,-0x8(%ebp)
 8050b99:	8b 45 08             	mov    0x8(%ebp),%eax
 8050b9c:	83 e0 3f             	and    $0x3f,%eax
 8050b9f:	05 c0 00 00 00       	add    $0xc0,%eax
 8050ba4:	8b 04 c5 80 f5 05 08 	mov    0x805f580(,%eax,8),%eax
 8050bab:	09 45 f4             	or     %eax,-0xc(%ebp)
 8050bae:	8b 45 08             	mov    0x8(%ebp),%eax
 8050bb1:	83 e0 3f             	and    $0x3f,%eax
 8050bb4:	8b 04 c5 84 fb 05 08 	mov    0x805fb84(,%eax,8),%eax
 8050bbb:	09 45 f8             	or     %eax,-0x8(%ebp)
 8050bbe:	c1 6d 08 06          	shrl   $0x6,0x8(%ebp)
 8050bc2:	8b 45 08             	mov    0x8(%ebp),%eax
 8050bc5:	83 e0 3f             	and    $0x3f,%eax
 8050bc8:	83 e8 80             	sub    $0xffffff80,%eax
 8050bcb:	8b 04 c5 80 f5 05 08 	mov    0x805f580(,%eax,8),%eax
 8050bd2:	09 45 f4             	or     %eax,-0xc(%ebp)
 8050bd5:	8b 45 08             	mov    0x8(%ebp),%eax
 8050bd8:	83 e0 3f             	and    $0x3f,%eax
 8050bdb:	8b 04 c5 84 f9 05 08 	mov    0x805f984(,%eax,8),%eax
 8050be2:	09 45 f8             	or     %eax,-0x8(%ebp)
 8050be5:	c1 6d 08 0a          	shrl   $0xa,0x8(%ebp)
 8050be9:	8b 45 08             	mov    0x8(%ebp),%eax
 8050bec:	83 e0 3f             	and    $0x3f,%eax
 8050bef:	83 c0 40             	add    $0x40,%eax
 8050bf2:	8b 04 c5 80 f5 05 08 	mov    0x805f580(,%eax,8),%eax
 8050bf9:	09 45 f4             	or     %eax,-0xc(%ebp)
 8050bfc:	8b 45 08             	mov    0x8(%ebp),%eax
 8050bff:	83 e0 3f             	and    $0x3f,%eax
 8050c02:	8b 04 c5 84 f7 05 08 	mov    0x805f784(,%eax,8),%eax
 8050c09:	09 45 f8             	or     %eax,-0x8(%ebp)
 8050c0c:	c1 6d 08 06          	shrl   $0x6,0x8(%ebp)
 8050c10:	8b 45 08             	mov    0x8(%ebp),%eax
 8050c13:	83 e0 3f             	and    $0x3f,%eax
 8050c16:	8b 04 c5 80 f5 05 08 	mov    0x805f580(,%eax,8),%eax
 8050c1d:	09 45 f4             	or     %eax,-0xc(%ebp)
 8050c20:	8b 45 08             	mov    0x8(%ebp),%eax
 8050c23:	83 e0 3f             	and    $0x3f,%eax
 8050c26:	8b 04 c5 84 f5 05 08 	mov    0x805f584(,%eax,8),%eax
 8050c2d:	09 45 f8             	or     %eax,-0x8(%ebp)
 8050c30:	8b 45 f4             	mov    -0xc(%ebp),%eax
 8050c33:	a3 8c 15 06 08       	mov    %eax,0x806158c
 8050c38:	8b 45 f8             	mov    -0x8(%ebp),%eax
 8050c3b:	a3 90 15 06 08       	mov    %eax,0x8061590
 8050c40:	b8 8c 15 06 08       	mov    $0x806158c,%eax
 8050c45:	c9                   	leave  
 8050c46:	c3                   	ret    

08050c47 <output_conversion>:
 8050c47:	55                   	push   %ebp
 8050c48:	89 e5                	mov    %esp,%ebp
 8050c4a:	53                   	push   %ebx
 8050c4b:	83 ec 24             	sub    $0x24,%esp
 8050c4e:	c7 04 24 0e 00 00 00 	movl   $0xe,(%esp)
 8050c55:	e8 2a e5 ff ff       	call   804f184 <_mcrypt_malloc>
 8050c5a:	89 45 f0             	mov    %eax,-0x10(%ebp)
 8050c5d:	8b 45 10             	mov    0x10(%ebp),%eax
 8050c60:	0f b6 10             	movzbl (%eax),%edx
 8050c63:	8b 45 f0             	mov    -0x10(%ebp),%eax
 8050c66:	88 10                	mov    %dl,(%eax)
 8050c68:	8b 45 f0             	mov    -0x10(%ebp),%eax
 8050c6b:	8d 50 01             	lea    0x1(%eax),%edx
 8050c6e:	8b 45 10             	mov    0x10(%ebp),%eax
 8050c71:	83 c0 01             	add    $0x1,%eax
 8050c74:	0f b6 00             	movzbl (%eax),%eax
 8050c77:	84 c0                	test   %al,%al
 8050c79:	74 09                	je     8050c84 <output_conversion+0x3d>
 8050c7b:	8b 45 10             	mov    0x10(%ebp),%eax
 8050c7e:	0f b6 40 01          	movzbl 0x1(%eax),%eax
 8050c82:	eb 06                	jmp    8050c8a <output_conversion+0x43>
 8050c84:	8b 45 10             	mov    0x10(%ebp),%eax
 8050c87:	0f b6 00             	movzbl (%eax),%eax
 8050c8a:	88 02                	mov    %al,(%edx)
 8050c8c:	c7 45 f4 00 00 00 00 	movl   $0x0,-0xc(%ebp)
 8050c93:	e9 91 00 00 00       	jmp    8050d29 <output_conversion+0xe2>
 8050c98:	8b 45 f4             	mov    -0xc(%ebp),%eax
 8050c9b:	8d 50 02             	lea    0x2(%eax),%edx
 8050c9e:	8b 45 f0             	mov    -0x10(%ebp),%eax
 8050ca1:	01 c2                	add    %eax,%edx
 8050ca3:	8b 45 f4             	mov    -0xc(%ebp),%eax
 8050ca6:	6b c0 fa             	imul   $0xfffffffa,%eax,%eax
 8050ca9:	83 c0 1a             	add    $0x1a,%eax
 8050cac:	8b 5d 08             	mov    0x8(%ebp),%ebx
 8050caf:	89 c1                	mov    %eax,%ecx
 8050cb1:	d3 eb                	shr    %cl,%ebx
 8050cb3:	89 d8                	mov    %ebx,%eax
 8050cb5:	83 e0 3f             	and    $0x3f,%eax
 8050cb8:	83 f8 25             	cmp    $0x25,%eax
 8050cbb:	76 1a                	jbe    8050cd7 <output_conversion+0x90>
 8050cbd:	8b 45 f4             	mov    -0xc(%ebp),%eax
 8050cc0:	6b c0 fa             	imul   $0xfffffffa,%eax,%eax
 8050cc3:	83 c0 1a             	add    $0x1a,%eax
 8050cc6:	8b 5d 08             	mov    0x8(%ebp),%ebx
 8050cc9:	89 c1                	mov    %eax,%ecx
 8050ccb:	d3 eb                	shr    %cl,%ebx
 8050ccd:	89 d8                	mov    %ebx,%eax
 8050ccf:	83 e0 3f             	and    $0x3f,%eax
 8050cd2:	83 c0 3b             	add    $0x3b,%eax
 8050cd5:	eb 4c                	jmp    8050d23 <output_conversion+0xdc>
 8050cd7:	8b 45 f4             	mov    -0xc(%ebp),%eax
 8050cda:	6b c0 fa             	imul   $0xfffffffa,%eax,%eax
 8050cdd:	83 c0 1a             	add    $0x1a,%eax
 8050ce0:	8b 5d 08             	mov    0x8(%ebp),%ebx
 8050ce3:	89 c1                	mov    %eax,%ecx
 8050ce5:	d3 eb                	shr    %cl,%ebx
 8050ce7:	89 d8                	mov    %ebx,%eax
 8050ce9:	83 e0 3f             	and    $0x3f,%eax
 8050cec:	83 f8 0b             	cmp    $0xb,%eax
 8050cef:	76 1a                	jbe    8050d0b <output_conversion+0xc4>
 8050cf1:	8b 45 f4             	mov    -0xc(%ebp),%eax
 8050cf4:	6b c0 fa             	imul   $0xfffffffa,%eax,%eax
 8050cf7:	83 c0 1a             	add    $0x1a,%eax
 8050cfa:	8b 5d 08             	mov    0x8(%ebp),%ebx
 8050cfd:	89 c1                	mov    %eax,%ecx
 8050cff:	d3 eb                	shr    %cl,%ebx
 8050d01:	89 d8                	mov    %ebx,%eax
 8050d03:	83 e0 3f             	and    $0x3f,%eax
 8050d06:	83 c0 35             	add    $0x35,%eax
 8050d09:	eb 18                	jmp    8050d23 <output_conversion+0xdc>
 8050d0b:	8b 45 f4             	mov    -0xc(%ebp),%eax
 8050d0e:	6b c0 fa             	imul   $0xfffffffa,%eax,%eax
 8050d11:	83 c0 1a             	add    $0x1a,%eax
 8050d14:	8b 5d 08             	mov    0x8(%ebp),%ebx
 8050d17:	89 c1                	mov    %eax,%ecx
 8050d19:	d3 eb                	shr    %cl,%ebx
 8050d1b:	89 d8                	mov    %ebx,%eax
 8050d1d:	83 e0 3f             	and    $0x3f,%eax
 8050d20:	83 c0 2e             	add    $0x2e,%eax
 8050d23:	88 02                	mov    %al,(%edx)
 8050d25:	83 45 f4 01          	addl   $0x1,-0xc(%ebp)
 8050d29:	83 7d f4 04          	cmpl   $0x4,-0xc(%ebp)
 8050d2d:	0f 8e 65 ff ff ff    	jle    8050c98 <output_conversion+0x51>
 8050d33:	8b 45 0c             	mov    0xc(%ebp),%eax
 8050d36:	83 e0 0f             	and    $0xf,%eax
 8050d39:	c1 e0 02             	shl    $0x2,%eax
 8050d3c:	89 45 ec             	mov    %eax,-0x14(%ebp)
 8050d3f:	8b 45 0c             	mov    0xc(%ebp),%eax
 8050d42:	c1 e8 02             	shr    $0x2,%eax
 8050d45:	89 c2                	mov    %eax,%edx
 8050d47:	8b 45 08             	mov    0x8(%ebp),%eax
 8050d4a:	c1 e0 1e             	shl    $0x1e,%eax
 8050d4d:	09 d0                	or     %edx,%eax
 8050d4f:	89 45 0c             	mov    %eax,0xc(%ebp)
 8050d52:	c7 45 f4 05 00 00 00 	movl   $0x5,-0xc(%ebp)
 8050d59:	e9 91 00 00 00       	jmp    8050def <output_conversion+0x1a8>
 8050d5e:	8b 45 f4             	mov    -0xc(%ebp),%eax
 8050d61:	8d 50 02             	lea    0x2(%eax),%edx
 8050d64:	8b 45 f0             	mov    -0x10(%ebp),%eax
 8050d67:	01 c2                	add    %eax,%edx
 8050d69:	8b 45 f4             	mov    -0xc(%ebp),%eax
 8050d6c:	6b c0 fa             	imul   $0xfffffffa,%eax,%eax
 8050d6f:	83 c0 38             	add    $0x38,%eax
 8050d72:	8b 5d 0c             	mov    0xc(%ebp),%ebx
 8050d75:	89 c1                	mov    %eax,%ecx
 8050d77:	d3 eb                	shr    %cl,%ebx
 8050d79:	89 d8                	mov    %ebx,%eax
 8050d7b:	83 e0 3f             	and    $0x3f,%eax
 8050d7e:	83 f8 25             	cmp    $0x25,%eax
 8050d81:	76 1a                	jbe    8050d9d <output_conversion+0x156>
 8050d83:	8b 45 f4             	mov    -0xc(%ebp),%eax
 8050d86:	6b c0 fa             	imul   $0xfffffffa,%eax,%eax
 8050d89:	83 c0 38             	add    $0x38,%eax
 8050d8c:	8b 5d 0c             	mov    0xc(%ebp),%ebx
 8050d8f:	89 c1                	mov    %eax,%ecx
 8050d91:	d3 eb                	shr    %cl,%ebx
 8050d93:	89 d8                	mov    %ebx,%eax
 8050d95:	83 e0 3f             	and    $0x3f,%eax
 8050d98:	83 c0 3b             	add    $0x3b,%eax
 8050d9b:	eb 4c                	jmp    8050de9 <output_conversion+0x1a2>
 8050d9d:	8b 45 f4             	mov    -0xc(%ebp),%eax
 8050da0:	6b c0 fa             	imul   $0xfffffffa,%eax,%eax
 8050da3:	83 c0 38             	add    $0x38,%eax
 8050da6:	8b 5d 0c             	mov    0xc(%ebp),%ebx
 8050da9:	89 c1                	mov    %eax,%ecx
 8050dab:	d3 eb                	shr    %cl,%ebx
 8050dad:	89 d8                	mov    %ebx,%eax
 8050daf:	83 e0 3f             	and    $0x3f,%eax
 8050db2:	83 f8 0b             	cmp    $0xb,%eax
 8050db5:	76 1a                	jbe    8050dd1 <output_conversion+0x18a>
 8050db7:	8b 45 f4             	mov    -0xc(%ebp),%eax
 8050dba:	6b c0 fa             	imul   $0xfffffffa,%eax,%eax
 8050dbd:	83 c0 38             	add    $0x38,%eax
 8050dc0:	8b 5d 0c             	mov    0xc(%ebp),%ebx
 8050dc3:	89 c1                	mov    %eax,%ecx
 8050dc5:	d3 eb                	shr    %cl,%ebx
 8050dc7:	89 d8                	mov    %ebx,%eax
 8050dc9:	83 e0 3f             	and    $0x3f,%eax
 8050dcc:	83 c0 35             	add    $0x35,%eax
 8050dcf:	eb 18                	jmp    8050de9 <output_conversion+0x1a2>
 8050dd1:	8b 45 f4             	mov    -0xc(%ebp),%eax
 8050dd4:	6b c0 fa             	imul   $0xfffffffa,%eax,%eax
 8050dd7:	83 c0 38             	add    $0x38,%eax
 8050dda:	8b 5d 0c             	mov    0xc(%ebp),%ebx
 8050ddd:	89 c1                	mov    %eax,%ecx
 8050ddf:	d3 eb                	shr    %cl,%ebx
 8050de1:	89 d8                	mov    %ebx,%eax
 8050de3:	83 e0 3f             	and    $0x3f,%eax
 8050de6:	83 c0 2e             	add    $0x2e,%eax
 8050de9:	88 02                	mov    %al,(%edx)
 8050deb:	83 45 f4 01          	addl   $0x1,-0xc(%ebp)
 8050def:	83 7d f4 09          	cmpl   $0x9,-0xc(%ebp)
 8050df3:	0f 8e 65 ff ff ff    	jle    8050d5e <output_conversion+0x117>
 8050df9:	8b 45 f0             	mov    -0x10(%ebp),%eax
 8050dfc:	8d 50 0c             	lea    0xc(%eax),%edx
 8050dff:	83 7d ec 25          	cmpl   $0x25,-0x14(%ebp)
 8050e03:	7e 08                	jle    8050e0d <output_conversion+0x1c6>
 8050e05:	8b 45 ec             	mov    -0x14(%ebp),%eax
 8050e08:	83 c0 3b             	add    $0x3b,%eax
 8050e0b:	eb 14                	jmp    8050e21 <output_conversion+0x1da>
 8050e0d:	83 7d ec 0b          	cmpl   $0xb,-0x14(%ebp)
 8050e11:	7e 08                	jle    8050e1b <output_conversion+0x1d4>
 8050e13:	8b 45 ec             	mov    -0x14(%ebp),%eax
 8050e16:	83 c0 35             	add    $0x35,%eax
 8050e19:	eb 06                	jmp    8050e21 <output_conversion+0x1da>
 8050e1b:	8b 45 ec             	mov    -0x14(%ebp),%eax
 8050e1e:	83 c0 2e             	add    $0x2e,%eax
 8050e21:	88 02                	mov    %al,(%edx)
 8050e23:	8b 45 f0             	mov    -0x10(%ebp),%eax
 8050e26:	83 c0 0d             	add    $0xd,%eax
 8050e29:	c6 00 00             	movb   $0x0,(%eax)
 8050e2c:	8b 45 f0             	mov    -0x10(%ebp),%eax
 8050e2f:	83 c4 24             	add    $0x24,%esp
 8050e32:	5b                   	pop    %ebx
 8050e33:	5d                   	pop    %ebp
 8050e34:	c3                   	ret    

08050e35 <__crypt>:
 8050e35:	55                   	push   %ebp
 8050e36:	89 e5                	mov    %esp,%ebp
 8050e38:	83 ec 38             	sub    $0x38,%esp
 8050e3b:	8b 45 0c             	mov    0xc(%ebp),%eax
 8050e3e:	89 04 24             	mov    %eax,(%esp)
 8050e41:	e8 e2 f6 ff ff       	call   8050528 <setup_salt>
 8050e46:	c7 44 24 04 09 00 00 	movl   $0x9,0x4(%esp)
 8050e4d:	00 
 8050e4e:	8d 45 eb             	lea    -0x15(%ebp),%eax
 8050e51:	89 04 24             	mov    %eax,(%esp)
 8050e54:	e8 57 9d ff ff       	call   804abb0 <Bzero>
 8050e59:	c7 44 24 08 08 00 00 	movl   $0x8,0x8(%esp)
 8050e60:	00 
 8050e61:	8b 45 08             	mov    0x8(%ebp),%eax
 8050e64:	89 44 24 04          	mov    %eax,0x4(%esp)
 8050e68:	8d 45 eb             	lea    -0x15(%ebp),%eax
 8050e6b:	89 04 24             	mov    %eax,(%esp)
 8050e6e:	e8 5d 8a ff ff       	call   80498d0 <strncpy@plt>
 8050e73:	8d 45 eb             	lea    -0x15(%ebp),%eax
 8050e76:	89 04 24             	mov    %eax,(%esp)
 8050e79:	e8 9f f8 ff ff       	call   805071d <ufc_mk_keytab>
 8050e7e:	c7 44 24 10 19 00 00 	movl   $0x19,0x10(%esp)
 8050e85:	00 
 8050e86:	c7 44 24 0c 00 00 00 	movl   $0x0,0xc(%esp)
 8050e8d:	00 
 8050e8e:	c7 44 24 08 00 00 00 	movl   $0x0,0x8(%esp)
 8050e95:	00 
 8050e96:	c7 44 24 04 00 00 00 	movl   $0x0,0x4(%esp)
 8050e9d:	00 
 8050e9e:	c7 04 24 00 00 00 00 	movl   $0x0,(%esp)
 8050ea5:	e8 6d ec ff ff       	call   804fb17 <_ufc_doit>
 8050eaa:	89 45 f4             	mov    %eax,-0xc(%ebp)
 8050ead:	8b 45 f4             	mov    -0xc(%ebp),%eax
 8050eb0:	83 c0 04             	add    $0x4,%eax
 8050eb3:	8b 10                	mov    (%eax),%edx
 8050eb5:	8b 45 f4             	mov    -0xc(%ebp),%eax
 8050eb8:	8b 00                	mov    (%eax),%eax
 8050eba:	8b 4d 0c             	mov    0xc(%ebp),%ecx
 8050ebd:	89 4c 24 08          	mov    %ecx,0x8(%esp)
 8050ec1:	89 54 24 04          	mov    %edx,0x4(%esp)
 8050ec5:	89 04 24             	mov    %eax,(%esp)
 8050ec8:	e8 7a fd ff ff       	call   8050c47 <output_conversion>
 8050ecd:	c9                   	leave  
 8050ece:	c3                   	ret    

08050ecf <__fcrypt>:
 8050ecf:	55                   	push   %ebp
 8050ed0:	89 e5                	mov    %esp,%ebp
 8050ed2:	83 ec 18             	sub    $0x18,%esp
 8050ed5:	8b 45 0c             	mov    0xc(%ebp),%eax
 8050ed8:	89 44 24 04          	mov    %eax,0x4(%esp)
 8050edc:	8b 45 08             	mov    0x8(%ebp),%eax
 8050edf:	89 04 24             	mov    %eax,(%esp)
 8050ee2:	e8 4e ff ff ff       	call   8050e35 <__crypt>
 8050ee7:	c9                   	leave  
 8050ee8:	c3                   	ret    

08050ee9 <gen_crypt>:
 8050ee9:	55                   	push   %ebp
 8050eea:	89 e5                	mov    %esp,%ebp
 8050eec:	83 ec 28             	sub    $0x28,%esp
 8050eef:	c7 44 24 04 03 00 00 	movl   $0x3,0x4(%esp)
 8050ef6:	00 
 8050ef7:	8d 45 e8             	lea    -0x18(%ebp),%eax
 8050efa:	89 04 24             	mov    %eax,(%esp)
 8050efd:	e8 ae 9c ff ff       	call   804abb0 <Bzero>
 8050f02:	c7 44 24 08 02 00 00 	movl   $0x2,0x8(%esp)
 8050f09:	00 
 8050f0a:	8b 45 10             	mov    0x10(%ebp),%eax
 8050f0d:	89 44 24 04          	mov    %eax,0x4(%esp)
 8050f11:	8d 45 e8             	lea    -0x18(%ebp),%eax
 8050f14:	89 04 24             	mov    %eax,(%esp)
 8050f17:	e8 c4 85 ff ff       	call   80494e0 <memmove@plt>
 8050f1c:	e8 5f 8b ff ff       	call   8049a80 <__ctype_b_loc@plt>
 8050f21:	8b 00                	mov    (%eax),%eax
 8050f23:	0f b6 55 e8          	movzbl -0x18(%ebp),%edx
 8050f27:	0f be d2             	movsbl %dl,%edx
 8050f2a:	01 d2                	add    %edx,%edx
 8050f2c:	01 d0                	add    %edx,%eax
 8050f2e:	0f b7 00             	movzwl (%eax),%eax
 8050f31:	0f b7 c0             	movzwl %ax,%eax
 8050f34:	25 00 04 00 00       	and    $0x400,%eax
 8050f39:	85 c0                	test   %eax,%eax
 8050f3b:	75 3b                	jne    8050f78 <gen_crypt+0x8f>
 8050f3d:	e8 3e 8b ff ff       	call   8049a80 <__ctype_b_loc@plt>
 8050f42:	8b 00                	mov    (%eax),%eax
 8050f44:	0f b6 55 e8          	movzbl -0x18(%ebp),%edx
 8050f48:	0f be d2             	movsbl %dl,%edx
 8050f4b:	01 d2                	add    %edx,%edx
 8050f4d:	01 d0                	add    %edx,%eax
 8050f4f:	0f b7 00             	movzwl (%eax),%eax
 8050f52:	0f b7 c0             	movzwl %ax,%eax
 8050f55:	25 00 08 00 00       	and    $0x800,%eax
 8050f5a:	85 c0                	test   %eax,%eax
 8050f5c:	75 1a                	jne    8050f78 <gen_crypt+0x8f>
 8050f5e:	0f b6 45 e8          	movzbl -0x18(%ebp),%eax
 8050f62:	3c 2e                	cmp    $0x2e,%al
 8050f64:	74 12                	je     8050f78 <gen_crypt+0x8f>
 8050f66:	0f b6 45 e8          	movzbl -0x18(%ebp),%eax
 8050f6a:	3c 2f                	cmp    $0x2f,%al
 8050f6c:	74 0a                	je     8050f78 <gen_crypt+0x8f>
 8050f6e:	b8 ff ff ff ff       	mov    $0xffffffff,%eax
 8050f73:	e9 20 01 00 00       	jmp    8051098 <gen_crypt+0x1af>
 8050f78:	e8 03 8b ff ff       	call   8049a80 <__ctype_b_loc@plt>
 8050f7d:	8b 00                	mov    (%eax),%eax
 8050f7f:	0f b6 55 e9          	movzbl -0x17(%ebp),%edx
 8050f83:	0f be d2             	movsbl %dl,%edx
 8050f86:	01 d2                	add    %edx,%edx
 8050f88:	01 d0                	add    %edx,%eax
 8050f8a:	0f b7 00             	movzwl (%eax),%eax
 8050f8d:	0f b7 c0             	movzwl %ax,%eax
 8050f90:	25 00 04 00 00       	and    $0x400,%eax
 8050f95:	85 c0                	test   %eax,%eax
 8050f97:	75 3b                	jne    8050fd4 <gen_crypt+0xeb>
 8050f99:	e8 e2 8a ff ff       	call   8049a80 <__ctype_b_loc@plt>
 8050f9e:	8b 00                	mov    (%eax),%eax
 8050fa0:	0f b6 55 e9          	movzbl -0x17(%ebp),%edx
 8050fa4:	0f be d2             	movsbl %dl,%edx
 8050fa7:	01 d2                	add    %edx,%edx
 8050fa9:	01 d0                	add    %edx,%eax
 8050fab:	0f b7 00             	movzwl (%eax),%eax
 8050fae:	0f b7 c0             	movzwl %ax,%eax
 8050fb1:	25 00 08 00 00       	and    $0x800,%eax
 8050fb6:	85 c0                	test   %eax,%eax
 8050fb8:	75 1a                	jne    8050fd4 <gen_crypt+0xeb>
 8050fba:	0f b6 45 e9          	movzbl -0x17(%ebp),%eax
 8050fbe:	3c 2e                	cmp    $0x2e,%al
 8050fc0:	74 12                	je     8050fd4 <gen_crypt+0xeb>
 8050fc2:	0f b6 45 e9          	movzbl -0x17(%ebp),%eax
 8050fc6:	3c 2f                	cmp    $0x2f,%al
 8050fc8:	74 0a                	je     8050fd4 <gen_crypt+0xeb>
 8050fca:	b8 ff ff ff ff       	mov    $0xffffffff,%eax
 8050fcf:	e9 c4 00 00 00       	jmp    8051098 <gen_crypt+0x1af>
 8050fd4:	83 7d 14 08          	cmpl   $0x8,0x14(%ebp)
 8050fd8:	7e 07                	jle    8050fe1 <gen_crypt+0xf8>
 8050fda:	c7 45 14 08 00 00 00 	movl   $0x8,0x14(%ebp)
 8050fe1:	c7 44 24 04 09 00 00 	movl   $0x9,0x4(%esp)
 8050fe8:	00 
 8050fe9:	8d 45 eb             	lea    -0x15(%ebp),%eax
 8050fec:	89 04 24             	mov    %eax,(%esp)
 8050fef:	e8 bc 9b ff ff       	call   804abb0 <Bzero>
 8050ff4:	8b 45 14             	mov    0x14(%ebp),%eax
 8050ff7:	89 44 24 08          	mov    %eax,0x8(%esp)
 8050ffb:	8b 45 10             	mov    0x10(%ebp),%eax
 8050ffe:	89 44 24 04          	mov    %eax,0x4(%esp)
 8051002:	8d 45 eb             	lea    -0x15(%ebp),%eax
 8051005:	89 04 24             	mov    %eax,(%esp)
 8051008:	e8 d3 84 ff ff       	call   80494e0 <memmove@plt>
 805100d:	c6 45 f3 00          	movb   $0x0,-0xd(%ebp)
 8051011:	8b 45 0c             	mov    0xc(%ebp),%eax
 8051014:	89 44 24 04          	mov    %eax,0x4(%esp)
 8051018:	8b 45 08             	mov    0x8(%ebp),%eax
 805101b:	89 04 24             	mov    %eax,(%esp)
 805101e:	e8 8d 9b ff ff       	call   804abb0 <Bzero>
 8051023:	83 7d 0c 0d          	cmpl   $0xd,0xc(%ebp)
 8051027:	7e 07                	jle    8051030 <gen_crypt+0x147>
 8051029:	c7 45 0c 0d 00 00 00 	movl   $0xd,0xc(%ebp)
 8051030:	8d 45 e8             	lea    -0x18(%ebp),%eax
 8051033:	89 44 24 04          	mov    %eax,0x4(%esp)
 8051037:	8d 45 eb             	lea    -0x15(%ebp),%eax
 805103a:	89 04 24             	mov    %eax,(%esp)
 805103d:	e8 f3 fd ff ff       	call   8050e35 <__crypt>
 8051042:	89 45 f4             	mov    %eax,-0xc(%ebp)
 8051045:	8b 45 f4             	mov    -0xc(%ebp),%eax
 8051048:	89 04 24             	mov    %eax,(%esp)
 805104b:	e8 c0 87 ff ff       	call   8049810 <strlen@plt>
 8051050:	83 f8 0d             	cmp    $0xd,%eax
 8051053:	74 07                	je     805105c <gen_crypt+0x173>
 8051055:	b8 fe ff ff ff       	mov    $0xfffffffe,%eax
 805105a:	eb 3c                	jmp    8051098 <gen_crypt+0x1af>
 805105c:	8b 45 0c             	mov    0xc(%ebp),%eax
 805105f:	89 44 24 08          	mov    %eax,0x8(%esp)
 8051063:	8b 45 f4             	mov    -0xc(%ebp),%eax
 8051066:	89 44 24 04          	mov    %eax,0x4(%esp)
 805106a:	8b 45 08             	mov    0x8(%ebp),%eax
 805106d:	89 04 24             	mov    %eax,(%esp)
 8051070:	e8 6b 84 ff ff       	call   80494e0 <memmove@plt>
 8051075:	c7 44 24 04 0d 00 00 	movl   $0xd,0x4(%esp)
 805107c:	00 
 805107d:	8b 45 f4             	mov    -0xc(%ebp),%eax
 8051080:	89 04 24             	mov    %eax,(%esp)
 8051083:	e8 28 9b ff ff       	call   804abb0 <Bzero>
 8051088:	8b 45 f4             	mov    -0xc(%ebp),%eax
 805108b:	89 04 24             	mov    %eax,(%esp)
 805108e:	e8 e9 e2 ff ff       	call   804f37c <_mcrypt_free>
 8051093:	b8 00 00 00 00       	mov    $0x0,%eax
 8051098:	c9                   	leave  
 8051099:	c3                   	ret    

0805109a <ppopen>:
 805109a:	55                   	push   %ebp
 805109b:	89 e5                	mov    %esp,%ebp
 805109d:	81 ec 98 00 00 00    	sub    $0x98,%esp
 80510a3:	c7 45 e0 ff ff ff ff 	movl   $0xffffffff,-0x20(%ebp)
 80510aa:	c7 45 e4 ff ff ff ff 	movl   $0xffffffff,-0x1c(%ebp)
 80510b1:	c7 45 d8 ff ff ff ff 	movl   $0xffffffff,-0x28(%ebp)
 80510b8:	c7 45 dc ff ff ff ff 	movl   $0xffffffff,-0x24(%ebp)
 80510bf:	c7 45 e8 ff ff ff ff 	movl   $0xffffffff,-0x18(%ebp)
 80510c6:	c7 45 f4 00 00 00 00 	movl   $0x0,-0xc(%ebp)
 80510cd:	c7 45 f0 00 00 00 00 	movl   $0x0,-0x10(%ebp)
 80510d4:	c7 45 ec 00 00 00 00 	movl   $0x0,-0x14(%ebp)
 80510db:	83 7d 10 00          	cmpl   $0x0,0x10(%ebp)
 80510df:	74 09                	je     80510ea <ppopen+0x50>
 80510e1:	8b 45 10             	mov    0x10(%ebp),%eax
 80510e4:	c7 00 00 00 00 00    	movl   $0x0,(%eax)
 80510ea:	83 7d 0c 00          	cmpl   $0x0,0xc(%ebp)
 80510ee:	74 0e                	je     80510fe <ppopen+0x64>
 80510f0:	8b 45 0c             	mov    0xc(%ebp),%eax
 80510f3:	c7 00 00 00 00 00    	movl   $0x0,(%eax)
 80510f9:	e9 13 02 00 00       	jmp    8051311 <ppopen+0x277>
 80510fe:	e9 0e 02 00 00       	jmp    8051311 <ppopen+0x277>
 8051103:	c7 04 24 00 02 00 00 	movl   $0x200,(%esp)
 805110a:	e8 75 e0 ff ff       	call   804f184 <_mcrypt_malloc>
 805110f:	8b 55 ec             	mov    -0x14(%ebp),%edx
 8051112:	89 44 95 84          	mov    %eax,-0x7c(%ebp,%edx,4)
 8051116:	8b 45 ec             	mov    -0x14(%ebp),%eax
 8051119:	8b 44 85 84          	mov    -0x7c(%ebp,%eax,4),%eax
 805111d:	85 c0                	test   %eax,%eax
 805111f:	75 25                	jne    8051146 <ppopen+0xac>
 8051121:	a1 80 a0 05 08       	mov    0x805a080,%eax
 8051126:	89 44 24 0c          	mov    %eax,0xc(%esp)
 805112a:	c7 44 24 08 1b 00 00 	movl   $0x1b,0x8(%esp)
 8051131:	00 
 8051132:	c7 44 24 04 01 00 00 	movl   $0x1,0x4(%esp)
 8051139:	00 
 805113a:	c7 04 24 44 58 05 08 	movl   $0x8055844,(%esp)
 8051141:	e8 2a 85 ff ff       	call   8049670 <fwrite@plt>
 8051146:	c7 45 f0 00 00 00 00 	movl   $0x0,-0x10(%ebp)
 805114d:	eb 27                	jmp    8051176 <ppopen+0xdc>
 805114f:	8b 45 ec             	mov    -0x14(%ebp),%eax
 8051152:	8b 4c 85 84          	mov    -0x7c(%ebp,%eax,4),%ecx
 8051156:	8b 45 f0             	mov    -0x10(%ebp),%eax
 8051159:	8d 50 01             	lea    0x1(%eax),%edx
 805115c:	89 55 f0             	mov    %edx,-0x10(%ebp)
 805115f:	01 c1                	add    %eax,%ecx
 8051161:	8b 45 f4             	mov    -0xc(%ebp),%eax
 8051164:	8d 50 01             	lea    0x1(%eax),%edx
 8051167:	89 55 f4             	mov    %edx,-0xc(%ebp)
 805116a:	89 c2                	mov    %eax,%edx
 805116c:	8b 45 08             	mov    0x8(%ebp),%eax
 805116f:	01 d0                	add    %edx,%eax
 8051171:	0f b6 00             	movzbl (%eax),%eax
 8051174:	88 01                	mov    %al,(%ecx)
 8051176:	8b 55 f4             	mov    -0xc(%ebp),%edx
 8051179:	8b 45 08             	mov    0x8(%ebp),%eax
 805117c:	01 d0                	add    %edx,%eax
 805117e:	0f b6 00             	movzbl (%eax),%eax
 8051181:	3c 20                	cmp    $0x20,%al
 8051183:	74 2d                	je     80511b2 <ppopen+0x118>
 8051185:	8b 55 f4             	mov    -0xc(%ebp),%edx
 8051188:	8b 45 08             	mov    0x8(%ebp),%eax
 805118b:	01 d0                	add    %edx,%eax
 805118d:	0f b6 00             	movzbl (%eax),%eax
 8051190:	3c 09                	cmp    $0x9,%al
 8051192:	74 1e                	je     80511b2 <ppopen+0x118>
 8051194:	8b 55 f4             	mov    -0xc(%ebp),%edx
 8051197:	8b 45 08             	mov    0x8(%ebp),%eax
 805119a:	01 d0                	add    %edx,%eax
 805119c:	0f b6 00             	movzbl (%eax),%eax
 805119f:	3c 22                	cmp    $0x22,%al
 80511a1:	74 0f                	je     80511b2 <ppopen+0x118>
 80511a3:	8b 55 f4             	mov    -0xc(%ebp),%edx
 80511a6:	8b 45 08             	mov    0x8(%ebp),%eax
 80511a9:	01 d0                	add    %edx,%eax
 80511ab:	0f b6 00             	movzbl (%eax),%eax
 80511ae:	84 c0                	test   %al,%al
 80511b0:	75 9d                	jne    805114f <ppopen+0xb5>
 80511b2:	8b 45 ec             	mov    -0x14(%ebp),%eax
 80511b5:	8b 54 85 84          	mov    -0x7c(%ebp,%eax,4),%edx
 80511b9:	8b 45 f0             	mov    -0x10(%ebp),%eax
 80511bc:	01 d0                	add    %edx,%eax
 80511be:	c6 00 00             	movb   $0x0,(%eax)
 80511c1:	8b 55 f4             	mov    -0xc(%ebp),%edx
 80511c4:	8b 45 08             	mov    0x8(%ebp),%eax
 80511c7:	01 d0                	add    %edx,%eax
 80511c9:	0f b6 00             	movzbl (%eax),%eax
 80511cc:	3c 20                	cmp    $0x20,%al
 80511ce:	74 0f                	je     80511df <ppopen+0x145>
 80511d0:	8b 55 f4             	mov    -0xc(%ebp),%edx
 80511d3:	8b 45 08             	mov    0x8(%ebp),%eax
 80511d6:	01 d0                	add    %edx,%eax
 80511d8:	0f b6 00             	movzbl (%eax),%eax
 80511db:	3c 09                	cmp    $0x9,%al
 80511dd:	75 29                	jne    8051208 <ppopen+0x16e>
 80511df:	eb 04                	jmp    80511e5 <ppopen+0x14b>
 80511e1:	83 45 f4 01          	addl   $0x1,-0xc(%ebp)
 80511e5:	8b 55 f4             	mov    -0xc(%ebp),%edx
 80511e8:	8b 45 08             	mov    0x8(%ebp),%eax
 80511eb:	01 d0                	add    %edx,%eax
 80511ed:	0f b6 00             	movzbl (%eax),%eax
 80511f0:	3c 20                	cmp    $0x20,%al
 80511f2:	74 ed                	je     80511e1 <ppopen+0x147>
 80511f4:	8b 55 f4             	mov    -0xc(%ebp),%edx
 80511f7:	8b 45 08             	mov    0x8(%ebp),%eax
 80511fa:	01 d0                	add    %edx,%eax
 80511fc:	0f b6 00             	movzbl (%eax),%eax
 80511ff:	3c 09                	cmp    $0x9,%al
 8051201:	74 de                	je     80511e1 <ppopen+0x147>
 8051203:	e9 05 01 00 00       	jmp    805130d <ppopen+0x273>
 8051208:	8b 55 f4             	mov    -0xc(%ebp),%edx
 805120b:	8b 45 08             	mov    0x8(%ebp),%eax
 805120e:	01 d0                	add    %edx,%eax
 8051210:	0f b6 00             	movzbl (%eax),%eax
 8051213:	3c 22                	cmp    $0x22,%al
 8051215:	0f 85 f2 00 00 00    	jne    805130d <ppopen+0x273>
 805121b:	83 7d f0 00          	cmpl   $0x0,-0x10(%ebp)
 805121f:	74 25                	je     8051246 <ppopen+0x1ac>
 8051221:	a1 80 a0 05 08       	mov    0x805a080,%eax
 8051226:	89 44 24 0c          	mov    %eax,0xc(%esp)
 805122a:	c7 44 24 08 1f 00 00 	movl   $0x1f,0x8(%esp)
 8051231:	00 
 8051232:	c7 44 24 04 01 00 00 	movl   $0x1,0x4(%esp)
 8051239:	00 
 805123a:	c7 04 24 60 58 05 08 	movl   $0x8055860,(%esp)
 8051241:	e8 2a 84 ff ff       	call   8049670 <fwrite@plt>
 8051246:	83 45 f4 01          	addl   $0x1,-0xc(%ebp)
 805124a:	eb 27                	jmp    8051273 <ppopen+0x1d9>
 805124c:	8b 45 ec             	mov    -0x14(%ebp),%eax
 805124f:	8b 4c 85 84          	mov    -0x7c(%ebp,%eax,4),%ecx
 8051253:	8b 45 f0             	mov    -0x10(%ebp),%eax
 8051256:	8d 50 01             	lea    0x1(%eax),%edx
 8051259:	89 55 f0             	mov    %edx,-0x10(%ebp)
 805125c:	01 c1                	add    %eax,%ecx
 805125e:	8b 45 f4             	mov    -0xc(%ebp),%eax
 8051261:	8d 50 01             	lea    0x1(%eax),%edx
 8051264:	89 55 f4             	mov    %edx,-0xc(%ebp)
 8051267:	89 c2                	mov    %eax,%edx
 8051269:	8b 45 08             	mov    0x8(%ebp),%eax
 805126c:	01 d0                	add    %edx,%eax
 805126e:	0f b6 00             	movzbl (%eax),%eax
 8051271:	88 01                	mov    %al,(%ecx)
 8051273:	8b 55 f4             	mov    -0xc(%ebp),%edx
 8051276:	8b 45 08             	mov    0x8(%ebp),%eax
 8051279:	01 d0                	add    %edx,%eax
 805127b:	0f b6 00             	movzbl (%eax),%eax
 805127e:	3c 22                	cmp    $0x22,%al
 8051280:	75 ca                	jne    805124c <ppopen+0x1b2>
 8051282:	8b 45 ec             	mov    -0x14(%ebp),%eax
 8051285:	8b 54 85 84          	mov    -0x7c(%ebp,%eax,4),%edx
 8051289:	8b 45 f0             	mov    -0x10(%ebp),%eax
 805128c:	01 d0                	add    %edx,%eax
 805128e:	c6 00 00             	movb   $0x0,(%eax)
 8051291:	83 45 f4 01          	addl   $0x1,-0xc(%ebp)
 8051295:	8b 55 f4             	mov    -0xc(%ebp),%edx
 8051298:	8b 45 08             	mov    0x8(%ebp),%eax
 805129b:	01 d0                	add    %edx,%eax
 805129d:	0f b6 00             	movzbl (%eax),%eax
 80512a0:	3c 20                	cmp    $0x20,%al
 80512a2:	74 45                	je     80512e9 <ppopen+0x24f>
 80512a4:	8b 55 f4             	mov    -0xc(%ebp),%edx
 80512a7:	8b 45 08             	mov    0x8(%ebp),%eax
 80512aa:	01 d0                	add    %edx,%eax
 80512ac:	0f b6 00             	movzbl (%eax),%eax
 80512af:	3c 09                	cmp    $0x9,%al
 80512b1:	74 36                	je     80512e9 <ppopen+0x24f>
 80512b3:	8b 55 f4             	mov    -0xc(%ebp),%edx
 80512b6:	8b 45 08             	mov    0x8(%ebp),%eax
 80512b9:	01 d0                	add    %edx,%eax
 80512bb:	0f b6 00             	movzbl (%eax),%eax
 80512be:	84 c0                	test   %al,%al
 80512c0:	74 27                	je     80512e9 <ppopen+0x24f>
 80512c2:	a1 80 a0 05 08       	mov    0x805a080,%eax
 80512c7:	89 44 24 0c          	mov    %eax,0xc(%esp)
 80512cb:	c7 44 24 08 1f 00 00 	movl   $0x1f,0x8(%esp)
 80512d2:	00 
 80512d3:	c7 44 24 04 01 00 00 	movl   $0x1,0x4(%esp)
 80512da:	00 
 80512db:	c7 04 24 60 58 05 08 	movl   $0x8055860,(%esp)
 80512e2:	e8 89 83 ff ff       	call   8049670 <fwrite@plt>
 80512e7:	eb 06                	jmp    80512ef <ppopen+0x255>
 80512e9:	eb 04                	jmp    80512ef <ppopen+0x255>
 80512eb:	83 45 f4 01          	addl   $0x1,-0xc(%ebp)
 80512ef:	8b 55 f4             	mov    -0xc(%ebp),%edx
 80512f2:	8b 45 08             	mov    0x8(%ebp),%eax
 80512f5:	01 d0                	add    %edx,%eax
 80512f7:	0f b6 00             	movzbl (%eax),%eax
 80512fa:	3c 20                	cmp    $0x20,%al
 80512fc:	74 ed                	je     80512eb <ppopen+0x251>
 80512fe:	8b 55 f4             	mov    -0xc(%ebp),%edx
 8051301:	8b 45 08             	mov    0x8(%ebp),%eax
 8051304:	01 d0                	add    %edx,%eax
 8051306:	0f b6 00             	movzbl (%eax),%eax
 8051309:	3c 09                	cmp    $0x9,%al
 805130b:	74 de                	je     80512eb <ppopen+0x251>
 805130d:	83 45 ec 01          	addl   $0x1,-0x14(%ebp)
 8051311:	8b 55 f4             	mov    -0xc(%ebp),%edx
 8051314:	8b 45 08             	mov    0x8(%ebp),%eax
 8051317:	01 d0                	add    %edx,%eax
 8051319:	0f b6 00             	movzbl (%eax),%eax
 805131c:	84 c0                	test   %al,%al
 805131e:	0f 85 df fd ff ff    	jne    8051103 <ppopen+0x69>
 8051324:	8b 45 ec             	mov    -0x14(%ebp),%eax
 8051327:	c7 44 85 84 00 00 00 	movl   $0x0,-0x7c(%ebp,%eax,4)
 805132e:	00 
 805132f:	8d 45 e0             	lea    -0x20(%ebp),%eax
 8051332:	89 04 24             	mov    %eax,(%esp)
 8051335:	e8 e6 85 ff ff       	call   8049920 <pipe@plt>
 805133a:	83 f8 ff             	cmp    $0xffffffff,%eax
 805133d:	75 25                	jne    8051364 <ppopen+0x2ca>
 805133f:	a1 80 a0 05 08       	mov    0x805a080,%eax
 8051344:	89 44 24 0c          	mov    %eax,0xc(%esp)
 8051348:	c7 44 24 08 16 00 00 	movl   $0x16,0x8(%esp)
 805134f:	00 
 8051350:	c7 44 24 04 01 00 00 	movl   $0x1,0x4(%esp)
 8051357:	00 
 8051358:	c7 04 24 80 58 05 08 	movl   $0x8055880,(%esp)
 805135f:	e8 0c 83 ff ff       	call   8049670 <fwrite@plt>
 8051364:	8d 45 d8             	lea    -0x28(%ebp),%eax
 8051367:	89 04 24             	mov    %eax,(%esp)
 805136a:	e8 b1 85 ff ff       	call   8049920 <pipe@plt>
 805136f:	83 f8 ff             	cmp    $0xffffffff,%eax
 8051372:	75 25                	jne    8051399 <ppopen+0x2ff>
 8051374:	a1 80 a0 05 08       	mov    0x805a080,%eax
 8051379:	89 44 24 0c          	mov    %eax,0xc(%esp)
 805137d:	c7 44 24 08 16 00 00 	movl   $0x16,0x8(%esp)
 8051384:	00 
 8051385:	c7 44 24 04 01 00 00 	movl   $0x1,0x4(%esp)
 805138c:	00 
 805138d:	c7 04 24 80 58 05 08 	movl   $0x8055880,(%esp)
 8051394:	e8 d7 82 ff ff       	call   8049670 <fwrite@plt>
 8051399:	e8 a2 85 ff ff       	call   8049940 <fork@plt>
 805139e:	89 45 e8             	mov    %eax,-0x18(%ebp)
 80513a1:	8b 45 e8             	mov    -0x18(%ebp),%eax
 80513a4:	83 f8 ff             	cmp    $0xffffffff,%eax
 80513a7:	74 09                	je     80513b2 <ppopen+0x318>
 80513a9:	85 c0                	test   %eax,%eax
 80513ab:	74 2f                	je     80513dc <ppopen+0x342>
 80513ad:	e9 a3 01 00 00       	jmp    8051555 <ppopen+0x4bb>
 80513b2:	a1 80 a0 05 08       	mov    0x805a080,%eax
 80513b7:	89 44 24 0c          	mov    %eax,0xc(%esp)
 80513bb:	c7 44 24 08 1d 00 00 	movl   $0x1d,0x8(%esp)
 80513c2:	00 
 80513c3:	c7 44 24 04 01 00 00 	movl   $0x1,0x4(%esp)
 80513ca:	00 
 80513cb:	c7 04 24 97 58 05 08 	movl   $0x8055897,(%esp)
 80513d2:	e8 99 82 ff ff       	call   8049670 <fwrite@plt>
 80513d7:	e9 7e 02 00 00       	jmp    805165a <ppopen+0x5c0>
 80513dc:	83 7d 0c 00          	cmpl   $0x0,0xc(%ebp)
 80513e0:	0f 84 a7 00 00 00    	je     805148d <ppopen+0x3f3>
 80513e6:	8b 45 e4             	mov    -0x1c(%ebp),%eax
 80513e9:	89 04 24             	mov    %eax,(%esp)
 80513ec:	e8 5f 86 ff ff       	call   8049a50 <close@plt>
 80513f1:	83 f8 ff             	cmp    $0xffffffff,%eax
 80513f4:	75 25                	jne    805141b <ppopen+0x381>
 80513f6:	a1 80 a0 05 08       	mov    0x805a080,%eax
 80513fb:	89 44 24 0c          	mov    %eax,0xc(%esp)
 80513ff:	c7 44 24 08 2d 00 00 	movl   $0x2d,0x8(%esp)
 8051406:	00 
 8051407:	c7 44 24 04 01 00 00 	movl   $0x1,0x4(%esp)
 805140e:	00 
 805140f:	c7 04 24 b8 58 05 08 	movl   $0x80558b8,(%esp)
 8051416:	e8 55 82 ff ff       	call   8049670 <fwrite@plt>
 805141b:	8b 45 e0             	mov    -0x20(%ebp),%eax
 805141e:	c7 44 24 04 00 00 00 	movl   $0x0,0x4(%esp)
 8051425:	00 
 8051426:	89 04 24             	mov    %eax,(%esp)
 8051429:	e8 f2 7f ff ff       	call   8049420 <dup2@plt>
 805142e:	83 f8 ff             	cmp    $0xffffffff,%eax
 8051431:	75 25                	jne    8051458 <ppopen+0x3be>
 8051433:	a1 80 a0 05 08       	mov    0x805a080,%eax
 8051438:	89 44 24 0c          	mov    %eax,0xc(%esp)
 805143c:	c7 44 24 08 1c 00 00 	movl   $0x1c,0x8(%esp)
 8051443:	00 
 8051444:	c7 44 24 04 01 00 00 	movl   $0x1,0x4(%esp)
 805144b:	00 
 805144c:	c7 04 24 e6 58 05 08 	movl   $0x80558e6,(%esp)
 8051453:	e8 18 82 ff ff       	call   8049670 <fwrite@plt>
 8051458:	8b 45 e0             	mov    -0x20(%ebp),%eax
 805145b:	89 04 24             	mov    %eax,(%esp)
 805145e:	e8 ed 85 ff ff       	call   8049a50 <close@plt>
 8051463:	83 f8 ff             	cmp    $0xffffffff,%eax
 8051466:	75 25                	jne    805148d <ppopen+0x3f3>
 8051468:	a1 80 a0 05 08       	mov    0x805a080,%eax
 805146d:	89 44 24 0c          	mov    %eax,0xc(%esp)
 8051471:	c7 44 24 08 2b 00 00 	movl   $0x2b,0x8(%esp)
 8051478:	00 
 8051479:	c7 44 24 04 01 00 00 	movl   $0x1,0x4(%esp)
 8051480:	00 
 8051481:	c7 04 24 04 59 05 08 	movl   $0x8055904,(%esp)
 8051488:	e8 e3 81 ff ff       	call   8049670 <fwrite@plt>
 805148d:	83 7d 10 00          	cmpl   $0x0,0x10(%ebp)
 8051491:	0f 84 a7 00 00 00    	je     805153e <ppopen+0x4a4>
 8051497:	8b 45 d8             	mov    -0x28(%ebp),%eax
 805149a:	89 04 24             	mov    %eax,(%esp)
 805149d:	e8 ae 85 ff ff       	call   8049a50 <close@plt>
 80514a2:	83 f8 ff             	cmp    $0xffffffff,%eax
 80514a5:	75 25                	jne    80514cc <ppopen+0x432>
 80514a7:	a1 80 a0 05 08       	mov    0x805a080,%eax
 80514ac:	89 44 24 0c          	mov    %eax,0xc(%esp)
 80514b0:	c7 44 24 08 2d 00 00 	movl   $0x2d,0x8(%esp)
 80514b7:	00 
 80514b8:	c7 44 24 04 01 00 00 	movl   $0x1,0x4(%esp)
 80514bf:	00 
 80514c0:	c7 04 24 30 59 05 08 	movl   $0x8055930,(%esp)
 80514c7:	e8 a4 81 ff ff       	call   8049670 <fwrite@plt>
 80514cc:	8b 45 dc             	mov    -0x24(%ebp),%eax
 80514cf:	c7 44 24 04 01 00 00 	movl   $0x1,0x4(%esp)
 80514d6:	00 
 80514d7:	89 04 24             	mov    %eax,(%esp)
 80514da:	e8 41 7f ff ff       	call   8049420 <dup2@plt>
 80514df:	83 f8 ff             	cmp    $0xffffffff,%eax
 80514e2:	75 25                	jne    8051509 <ppopen+0x46f>
 80514e4:	a1 80 a0 05 08       	mov    0x805a080,%eax
 80514e9:	89 44 24 0c          	mov    %eax,0xc(%esp)
 80514ed:	c7 44 24 08 1d 00 00 	movl   $0x1d,0x8(%esp)
 80514f4:	00 
 80514f5:	c7 44 24 04 01 00 00 	movl   $0x1,0x4(%esp)
 80514fc:	00 
 80514fd:	c7 04 24 5e 59 05 08 	movl   $0x805595e,(%esp)
 8051504:	e8 67 81 ff ff       	call   8049670 <fwrite@plt>
 8051509:	8b 45 dc             	mov    -0x24(%ebp),%eax
 805150c:	89 04 24             	mov    %eax,(%esp)
 805150f:	e8 3c 85 ff ff       	call   8049a50 <close@plt>
 8051514:	83 f8 ff             	cmp    $0xffffffff,%eax
 8051517:	75 25                	jne    805153e <ppopen+0x4a4>
 8051519:	a1 80 a0 05 08       	mov    0x805a080,%eax
 805151e:	89 44 24 0c          	mov    %eax,0xc(%esp)
 8051522:	c7 44 24 08 2e 00 00 	movl   $0x2e,0x8(%esp)
 8051529:	00 
 805152a:	c7 44 24 04 01 00 00 	movl   $0x1,0x4(%esp)
 8051531:	00 
 8051532:	c7 04 24 7c 59 05 08 	movl   $0x805597c,(%esp)
 8051539:	e8 32 81 ff ff       	call   8049670 <fwrite@plt>
 805153e:	8b 45 84             	mov    -0x7c(%ebp),%eax
 8051541:	8d 55 84             	lea    -0x7c(%ebp),%edx
 8051544:	89 54 24 04          	mov    %edx,0x4(%esp)
 8051548:	89 04 24             	mov    %eax,(%esp)
 805154b:	e8 c0 80 ff ff       	call   8049610 <execvp@plt>
 8051550:	e9 05 01 00 00       	jmp    805165a <ppopen+0x5c0>
 8051555:	83 7d 0c 00          	cmpl   $0x0,0xc(%ebp)
 8051559:	74 7b                	je     80515d6 <ppopen+0x53c>
 805155b:	8b 45 e0             	mov    -0x20(%ebp),%eax
 805155e:	89 04 24             	mov    %eax,(%esp)
 8051561:	e8 ea 84 ff ff       	call   8049a50 <close@plt>
 8051566:	83 f8 ff             	cmp    $0xffffffff,%eax
 8051569:	75 25                	jne    8051590 <ppopen+0x4f6>
 805156b:	a1 80 a0 05 08       	mov    0x805a080,%eax
 8051570:	89 44 24 0c          	mov    %eax,0xc(%esp)
 8051574:	c7 44 24 08 2c 00 00 	movl   $0x2c,0x8(%esp)
 805157b:	00 
 805157c:	c7 44 24 04 01 00 00 	movl   $0x1,0x4(%esp)
 8051583:	00 
 8051584:	c7 04 24 ac 59 05 08 	movl   $0x80559ac,(%esp)
 805158b:	e8 e0 80 ff ff       	call   8049670 <fwrite@plt>
 8051590:	8b 45 e4             	mov    -0x1c(%ebp),%eax
 8051593:	c7 44 24 04 d9 59 05 	movl   $0x80559d9,0x4(%esp)
 805159a:	08 
 805159b:	89 04 24             	mov    %eax,(%esp)
 805159e:	e8 1d 82 ff ff       	call   80497c0 <fdopen@plt>
 80515a3:	8b 55 0c             	mov    0xc(%ebp),%edx
 80515a6:	89 02                	mov    %eax,(%edx)
 80515a8:	8b 45 0c             	mov    0xc(%ebp),%eax
 80515ab:	8b 00                	mov    (%eax),%eax
 80515ad:	85 c0                	test   %eax,%eax
 80515af:	75 25                	jne    80515d6 <ppopen+0x53c>
 80515b1:	a1 80 a0 05 08       	mov    0x805a080,%eax
 80515b6:	89 44 24 0c          	mov    %eax,0xc(%esp)
 80515ba:	c7 44 24 08 23 00 00 	movl   $0x23,0x8(%esp)
 80515c1:	00 
 80515c2:	c7 44 24 04 01 00 00 	movl   $0x1,0x4(%esp)
 80515c9:	00 
 80515ca:	c7 04 24 dc 59 05 08 	movl   $0x80559dc,(%esp)
 80515d1:	e8 9a 80 ff ff       	call   8049670 <fwrite@plt>
 80515d6:	83 7d 10 00          	cmpl   $0x0,0x10(%ebp)
 80515da:	74 7d                	je     8051659 <ppopen+0x5bf>
 80515dc:	8b 45 dc             	mov    -0x24(%ebp),%eax
 80515df:	89 04 24             	mov    %eax,(%esp)
 80515e2:	e8 69 84 ff ff       	call   8049a50 <close@plt>
 80515e7:	83 f8 ff             	cmp    $0xffffffff,%eax
 80515ea:	75 25                	jne    8051611 <ppopen+0x577>
 80515ec:	a1 80 a0 05 08       	mov    0x805a080,%eax
 80515f1:	89 44 24 0c          	mov    %eax,0xc(%esp)
 80515f5:	c7 44 24 08 2e 00 00 	movl   $0x2e,0x8(%esp)
 80515fc:	00 
 80515fd:	c7 44 24 04 01 00 00 	movl   $0x1,0x4(%esp)
 8051604:	00 
 8051605:	c7 04 24 00 5a 05 08 	movl   $0x8055a00,(%esp)
 805160c:	e8 5f 80 ff ff       	call   8049670 <fwrite@plt>
 8051611:	8b 45 d8             	mov    -0x28(%ebp),%eax
 8051614:	c7 44 24 04 2f 5a 05 	movl   $0x8055a2f,0x4(%esp)
 805161b:	08 
 805161c:	89 04 24             	mov    %eax,(%esp)
 805161f:	e8 9c 81 ff ff       	call   80497c0 <fdopen@plt>
 8051624:	8b 55 10             	mov    0x10(%ebp),%edx
 8051627:	89 02                	mov    %eax,(%edx)
 8051629:	8b 45 10             	mov    0x10(%ebp),%eax
 805162c:	8b 00                	mov    (%eax),%eax
 805162e:	85 c0                	test   %eax,%eax
 8051630:	75 27                	jne    8051659 <ppopen+0x5bf>
 8051632:	a1 80 a0 05 08       	mov    0x805a080,%eax
 8051637:	89 44 24 0c          	mov    %eax,0xc(%esp)
 805163b:	c7 44 24 08 24 00 00 	movl   $0x24,0x8(%esp)
 8051642:	00 
 8051643:	c7 44 24 04 01 00 00 	movl   $0x1,0x4(%esp)
 805164a:	00 
 805164b:	c7 04 24 34 5a 05 08 	movl   $0x8055a34,(%esp)
 8051652:	e8 19 80 ff ff       	call   8049670 <fwrite@plt>
 8051657:	eb 00                	jmp    8051659 <ppopen+0x5bf>
 8051659:	90                   	nop
 805165a:	8b 45 e8             	mov    -0x18(%ebp),%eax
 805165d:	c9                   	leave  
 805165e:	c3                   	ret    

0805165f <__gaa_helpsingle>:
 805165f:	55                   	push   %ebp
 8051660:	89 e5                	mov    %esp,%ebp
 8051662:	83 ec 38             	sub    $0x38,%esp
 8051665:	8b 45 08             	mov    0x8(%ebp),%eax
 8051668:	88 45 d4             	mov    %al,-0x2c(%ebp)
 805166b:	c7 45 e8 03 00 00 00 	movl   $0x3,-0x18(%ebp)
 8051672:	c7 45 ec 05 00 00 00 	movl   $0x5,-0x14(%ebp)
 8051679:	c7 45 f0 1e 00 00 00 	movl   $0x1e,-0x10(%ebp)
 8051680:	c7 45 f4 46 00 00 00 	movl   $0x46,-0xc(%ebp)
 8051687:	c7 45 dc 00 00 00 00 	movl   $0x0,-0x24(%ebp)
 805168e:	c7 45 e0 00 00 00 00 	movl   $0x0,-0x20(%ebp)
 8051695:	eb 14                	jmp    80516ab <__gaa_helpsingle+0x4c>
 8051697:	c7 04 24 20 00 00 00 	movl   $0x20,(%esp)
 805169e:	e8 1d 82 ff ff       	call   80498c0 <putchar@plt>
 80516a3:	83 45 dc 01          	addl   $0x1,-0x24(%ebp)
 80516a7:	83 45 e0 01          	addl   $0x1,-0x20(%ebp)
 80516ab:	8b 45 e0             	mov    -0x20(%ebp),%eax
 80516ae:	3b 45 ec             	cmp    -0x14(%ebp),%eax
 80516b1:	7c e4                	jl     8051697 <__gaa_helpsingle+0x38>
 80516b3:	80 7d d4 00          	cmpb   $0x0,-0x2c(%ebp)
 80516b7:	74 42                	je     80516fb <__gaa_helpsingle+0x9c>
 80516b9:	83 7d 0c 00          	cmpl   $0x0,0xc(%ebp)
 80516bd:	74 24                	je     80516e3 <__gaa_helpsingle+0x84>
 80516bf:	8b 45 0c             	mov    0xc(%ebp),%eax
 80516c2:	0f b6 00             	movzbl (%eax),%eax
 80516c5:	84 c0                	test   %al,%al
 80516c7:	74 1a                	je     80516e3 <__gaa_helpsingle+0x84>
 80516c9:	0f be 45 d4          	movsbl -0x2c(%ebp),%eax
 80516cd:	89 44 24 04          	mov    %eax,0x4(%esp)
 80516d1:	c7 04 24 5c 5a 05 08 	movl   $0x8055a5c,(%esp)
 80516d8:	e8 a3 7d ff ff       	call   8049480 <printf@plt>
 80516dd:	83 45 dc 04          	addl   $0x4,-0x24(%ebp)
 80516e1:	eb 18                	jmp    80516fb <__gaa_helpsingle+0x9c>
 80516e3:	0f be 45 d4          	movsbl -0x2c(%ebp),%eax
 80516e7:	89 44 24 04          	mov    %eax,0x4(%esp)
 80516eb:	c7 04 24 62 5a 05 08 	movl   $0x8055a62,(%esp)
 80516f2:	e8 89 7d ff ff       	call   8049480 <printf@plt>
 80516f7:	83 45 dc 03          	addl   $0x3,-0x24(%ebp)
 80516fb:	83 7d 0c 00          	cmpl   $0x0,0xc(%ebp)
 80516ff:	74 33                	je     8051734 <__gaa_helpsingle+0xd5>
 8051701:	8b 45 0c             	mov    0xc(%ebp),%eax
 8051704:	0f b6 00             	movzbl (%eax),%eax
 8051707:	84 c0                	test   %al,%al
 8051709:	74 29                	je     8051734 <__gaa_helpsingle+0xd5>
 805170b:	8b 45 0c             	mov    0xc(%ebp),%eax
 805170e:	89 44 24 04          	mov    %eax,0x4(%esp)
 8051712:	c7 04 24 67 5a 05 08 	movl   $0x8055a67,(%esp)
 8051719:	e8 62 7d ff ff       	call   8049480 <printf@plt>
 805171e:	8b 45 0c             	mov    0xc(%ebp),%eax
 8051721:	89 04 24             	mov    %eax,(%esp)
 8051724:	e8 e7 80 ff ff       	call   8049810 <strlen@plt>
 8051729:	8b 55 dc             	mov    -0x24(%ebp),%edx
 805172c:	01 d0                	add    %edx,%eax
 805172e:	83 c0 03             	add    $0x3,%eax
 8051731:	89 45 dc             	mov    %eax,-0x24(%ebp)
 8051734:	83 7d 10 00          	cmpl   $0x0,0x10(%ebp)
 8051738:	74 33                	je     805176d <__gaa_helpsingle+0x10e>
 805173a:	8b 45 10             	mov    0x10(%ebp),%eax
 805173d:	0f b6 00             	movzbl (%eax),%eax
 8051740:	84 c0                	test   %al,%al
 8051742:	74 29                	je     805176d <__gaa_helpsingle+0x10e>
 8051744:	8b 45 10             	mov    0x10(%ebp),%eax
 8051747:	89 44 24 04          	mov    %eax,0x4(%esp)
 805174b:	c7 04 24 6d 5a 05 08 	movl   $0x8055a6d,(%esp)
 8051752:	e8 29 7d ff ff       	call   8049480 <printf@plt>
 8051757:	8b 45 10             	mov    0x10(%ebp),%eax
 805175a:	89 04 24             	mov    %eax,(%esp)
 805175d:	e8 ae 80 ff ff       	call   8049810 <strlen@plt>
 8051762:	8b 55 dc             	mov    -0x24(%ebp),%edx
 8051765:	01 d0                	add    %edx,%eax
 8051767:	83 c0 01             	add    $0x1,%eax
 805176a:	89 45 dc             	mov    %eax,-0x24(%ebp)
 805176d:	8b 45 dc             	mov    -0x24(%ebp),%eax
 8051770:	3b 45 f0             	cmp    -0x10(%ebp),%eax
 8051773:	7c 13                	jl     8051788 <__gaa_helpsingle+0x129>
 8051775:	c7 04 24 0a 00 00 00 	movl   $0xa,(%esp)
 805177c:	e8 3f 81 ff ff       	call   80498c0 <putchar@plt>
 8051781:	c7 45 dc 00 00 00 00 	movl   $0x0,-0x24(%ebp)
 8051788:	83 7d 14 00          	cmpl   $0x0,0x14(%ebp)
 805178c:	0f 84 45 01 00 00    	je     80518d7 <__gaa_helpsingle+0x278>
 8051792:	8b 45 14             	mov    0x14(%ebp),%eax
 8051795:	89 45 e4             	mov    %eax,-0x1c(%ebp)
 8051798:	e9 2c 01 00 00       	jmp    80518c9 <__gaa_helpsingle+0x26a>
 805179d:	eb 10                	jmp    80517af <__gaa_helpsingle+0x150>
 805179f:	c7 04 24 20 00 00 00 	movl   $0x20,(%esp)
 80517a6:	e8 15 81 ff ff       	call   80498c0 <putchar@plt>
 80517ab:	83 45 dc 01          	addl   $0x1,-0x24(%ebp)
 80517af:	8b 45 dc             	mov    -0x24(%ebp),%eax
 80517b2:	3b 45 f0             	cmp    -0x10(%ebp),%eax
 80517b5:	7c e8                	jl     805179f <__gaa_helpsingle+0x140>
 80517b7:	8b 45 e4             	mov    -0x1c(%ebp),%eax
 80517ba:	0f b6 00             	movzbl (%eax),%eax
 80517bd:	0f be c0             	movsbl %al,%eax
 80517c0:	83 f8 0a             	cmp    $0xa,%eax
 80517c3:	74 0f                	je     80517d4 <__gaa_helpsingle+0x175>
 80517c5:	83 f8 20             	cmp    $0x20,%eax
 80517c8:	74 4e                	je     8051818 <__gaa_helpsingle+0x1b9>
 80517ca:	83 f8 09             	cmp    $0x9,%eax
 80517cd:	74 1d                	je     80517ec <__gaa_helpsingle+0x18d>
 80517cf:	e9 c1 00 00 00       	jmp    8051895 <__gaa_helpsingle+0x236>
 80517d4:	c7 04 24 0a 00 00 00 	movl   $0xa,(%esp)
 80517db:	e8 e0 80 ff ff       	call   80498c0 <putchar@plt>
 80517e0:	c7 45 dc 00 00 00 00 	movl   $0x0,-0x24(%ebp)
 80517e7:	e9 be 00 00 00       	jmp    80518aa <__gaa_helpsingle+0x24b>
 80517ec:	c7 04 24 20 00 00 00 	movl   $0x20,(%esp)
 80517f3:	e8 c8 80 ff ff       	call   80498c0 <putchar@plt>
 80517f8:	83 45 dc 01          	addl   $0x1,-0x24(%ebp)
 80517fc:	8b 45 f0             	mov    -0x10(%ebp),%eax
 80517ff:	8b 55 dc             	mov    -0x24(%ebp),%edx
 8051802:	29 c2                	sub    %eax,%edx
 8051804:	89 d0                	mov    %edx,%eax
 8051806:	99                   	cltd   
 8051807:	f7 7d e8             	idivl  -0x18(%ebp)
 805180a:	89 d0                	mov    %edx,%eax
 805180c:	85 c0                	test   %eax,%eax
 805180e:	74 08                	je     8051818 <__gaa_helpsingle+0x1b9>
 8051810:	8b 45 dc             	mov    -0x24(%ebp),%eax
 8051813:	3b 45 f4             	cmp    -0xc(%ebp),%eax
 8051816:	7c d4                	jl     80517ec <__gaa_helpsingle+0x18d>
 8051818:	8b 45 e4             	mov    -0x1c(%ebp),%eax
 805181b:	0f b6 00             	movzbl (%eax),%eax
 805181e:	3c 20                	cmp    $0x20,%al
 8051820:	75 10                	jne    8051832 <__gaa_helpsingle+0x1d3>
 8051822:	83 45 dc 01          	addl   $0x1,-0x24(%ebp)
 8051826:	c7 04 24 20 00 00 00 	movl   $0x20,(%esp)
 805182d:	e8 8e 80 ff ff       	call   80498c0 <putchar@plt>
 8051832:	c7 45 e0 01 00 00 00 	movl   $0x1,-0x20(%ebp)
 8051839:	eb 04                	jmp    805183f <__gaa_helpsingle+0x1e0>
 805183b:	83 45 e0 01          	addl   $0x1,-0x20(%ebp)
 805183f:	8b 55 e0             	mov    -0x20(%ebp),%edx
 8051842:	8b 45 e4             	mov    -0x1c(%ebp),%eax
 8051845:	01 d0                	add    %edx,%eax
 8051847:	0f b6 00             	movzbl (%eax),%eax
 805184a:	84 c0                	test   %al,%al
 805184c:	74 2d                	je     805187b <__gaa_helpsingle+0x21c>
 805184e:	8b 55 e0             	mov    -0x20(%ebp),%edx
 8051851:	8b 45 e4             	mov    -0x1c(%ebp),%eax
 8051854:	01 d0                	add    %edx,%eax
 8051856:	0f b6 00             	movzbl (%eax),%eax
 8051859:	3c 20                	cmp    $0x20,%al
 805185b:	74 1e                	je     805187b <__gaa_helpsingle+0x21c>
 805185d:	8b 55 e0             	mov    -0x20(%ebp),%edx
 8051860:	8b 45 e4             	mov    -0x1c(%ebp),%eax
 8051863:	01 d0                	add    %edx,%eax
 8051865:	0f b6 00             	movzbl (%eax),%eax
 8051868:	3c 0a                	cmp    $0xa,%al
 805186a:	74 0f                	je     805187b <__gaa_helpsingle+0x21c>
 805186c:	8b 55 e0             	mov    -0x20(%ebp),%edx
 805186f:	8b 45 e4             	mov    -0x1c(%ebp),%eax
 8051872:	01 d0                	add    %edx,%eax
 8051874:	0f b6 00             	movzbl (%eax),%eax
 8051877:	3c 09                	cmp    $0x9,%al
 8051879:	75 c0                	jne    805183b <__gaa_helpsingle+0x1dc>
 805187b:	8b 45 e0             	mov    -0x20(%ebp),%eax
 805187e:	8b 55 dc             	mov    -0x24(%ebp),%edx
 8051881:	01 d0                	add    %edx,%eax
 8051883:	83 e8 01             	sub    $0x1,%eax
 8051886:	3b 45 f4             	cmp    -0xc(%ebp),%eax
 8051889:	7c 08                	jl     8051893 <__gaa_helpsingle+0x234>
 805188b:	8b 45 f4             	mov    -0xc(%ebp),%eax
 805188e:	89 45 dc             	mov    %eax,-0x24(%ebp)
 8051891:	eb 17                	jmp    80518aa <__gaa_helpsingle+0x24b>
 8051893:	eb 15                	jmp    80518aa <__gaa_helpsingle+0x24b>
 8051895:	8b 45 e4             	mov    -0x1c(%ebp),%eax
 8051898:	0f b6 00             	movzbl (%eax),%eax
 805189b:	0f be c0             	movsbl %al,%eax
 805189e:	89 04 24             	mov    %eax,(%esp)
 80518a1:	e8 1a 80 ff ff       	call   80498c0 <putchar@plt>
 80518a6:	83 45 dc 01          	addl   $0x1,-0x24(%ebp)
 80518aa:	8b 45 dc             	mov    -0x24(%ebp),%eax
 80518ad:	3b 45 f4             	cmp    -0xc(%ebp),%eax
 80518b0:	7c 13                	jl     80518c5 <__gaa_helpsingle+0x266>
 80518b2:	c7 04 24 0a 00 00 00 	movl   $0xa,(%esp)
 80518b9:	e8 02 80 ff ff       	call   80498c0 <putchar@plt>
 80518be:	c7 45 dc 00 00 00 00 	movl   $0x0,-0x24(%ebp)
 80518c5:	83 45 e4 01          	addl   $0x1,-0x1c(%ebp)
 80518c9:	8b 45 e4             	mov    -0x1c(%ebp),%eax
 80518cc:	0f b6 00             	movzbl (%eax),%eax
 80518cf:	84 c0                	test   %al,%al
 80518d1:	0f 85 c6 fe ff ff    	jne    805179d <__gaa_helpsingle+0x13e>
 80518d7:	c7 04 24 0a 00 00 00 	movl   $0xa,(%esp)
 80518de:	e8 dd 7f ff ff       	call   80498c0 <putchar@plt>
 80518e3:	c9                   	leave  
 80518e4:	c3                   	ret    

080518e5 <gaa_help>:
 80518e5:	55                   	push   %ebp
 80518e6:	89 e5                	mov    %esp,%ebp
 80518e8:	83 ec 18             	sub    $0x18,%esp
 80518eb:	c7 04 24 74 5a 05 08 	movl   $0x8055a74,(%esp)
 80518f2:	e8 49 7e ff ff       	call   8049740 <puts@plt>
 80518f7:	c7 44 24 0c ac 5a 05 	movl   $0x8055aac,0xc(%esp)
 80518fe:	08 
 80518ff:	c7 44 24 08 d0 5a 05 	movl   $0x8055ad0,0x8(%esp)
 8051906:	08 
 8051907:	c7 44 24 04 d1 5a 05 	movl   $0x8055ad1,0x4(%esp)
 805190e:	08 
 805190f:	c7 04 24 56 00 00 00 	movl   $0x56,(%esp)
 8051916:	e8 44 fd ff ff       	call   805165f <__gaa_helpsingle>
 805191b:	c7 44 24 0c dc 5a 05 	movl   $0x8055adc,0xc(%esp)
 8051922:	08 
 8051923:	c7 44 24 08 d0 5a 05 	movl   $0x8055ad0,0x8(%esp)
 805192a:	08 
 805192b:	c7 44 24 04 01 5b 05 	movl   $0x8055b01,0x4(%esp)
 8051932:	08 
 8051933:	c7 04 24 71 00 00 00 	movl   $0x71,(%esp)
 805193a:	e8 20 fd ff ff       	call   805165f <__gaa_helpsingle>
 805193f:	c7 44 24 0c 07 5b 05 	movl   $0x8055b07,0xc(%esp)
 8051946:	08 
 8051947:	c7 44 24 08 d0 5a 05 	movl   $0x8055ad0,0x8(%esp)
 805194e:	08 
 805194f:	c7 44 24 04 20 5b 05 	movl   $0x8055b20,0x4(%esp)
 8051956:	08 
 8051957:	c7 04 24 46 00 00 00 	movl   $0x46,(%esp)
 805195e:	e8 fc fc ff ff       	call   805165f <__gaa_helpsingle>
 8051963:	c7 44 24 0c 28 5b 05 	movl   $0x8055b28,0xc(%esp)
 805196a:	08 
 805196b:	c7 44 24 08 d0 5a 05 	movl   $0x8055ad0,0x8(%esp)
 8051972:	08 
 8051973:	c7 44 24 04 5b 5b 05 	movl   $0x8055b5b,0x4(%esp)
 805197a:	08 
 805197b:	c7 04 24 72 00 00 00 	movl   $0x72,(%esp)
 8051982:	e8 d8 fc ff ff       	call   805165f <__gaa_helpsingle>
 8051987:	c7 44 24 0c 64 5b 05 	movl   $0x8055b64,0xc(%esp)
 805198e:	08 
 805198f:	c7 44 24 08 d0 5a 05 	movl   $0x8055ad0,0x8(%esp)
 8051996:	08 
 8051997:	c7 44 24 04 9c 5b 05 	movl   $0x8055b9c,0x4(%esp)
 805199e:	08 
 805199f:	c7 04 24 62 00 00 00 	movl   $0x62,(%esp)
 80519a6:	e8 b4 fc ff ff       	call   805165f <__gaa_helpsingle>
 80519ab:	c7 44 24 0c a1 5b 05 	movl   $0x8055ba1,0xc(%esp)
 80519b2:	08 
 80519b3:	c7 44 24 08 d0 5a 05 	movl   $0x8055ad0,0x8(%esp)
 80519ba:	08 
 80519bb:	c7 44 24 04 bd 5b 05 	movl   $0x8055bbd,0x4(%esp)
 80519c2:	08 
 80519c3:	c7 04 24 7a 00 00 00 	movl   $0x7a,(%esp)
 80519ca:	e8 90 fc ff ff       	call   805165f <__gaa_helpsingle>
 80519cf:	c7 44 24 0c a1 5b 05 	movl   $0x8055ba1,0xc(%esp)
 80519d6:	08 
 80519d7:	c7 44 24 08 d0 5a 05 	movl   $0x8055ad0,0x8(%esp)
 80519de:	08 
 80519df:	c7 44 24 04 c2 5b 05 	movl   $0x8055bc2,0x4(%esp)
 80519e6:	08 
 80519e7:	c7 04 24 70 00 00 00 	movl   $0x70,(%esp)
 80519ee:	e8 6c fc ff ff       	call   805165f <__gaa_helpsingle>
 80519f3:	c7 44 24 0c c8 5b 05 	movl   $0x8055bc8,0xc(%esp)
 80519fa:	08 
 80519fb:	c7 44 24 08 d0 5a 05 	movl   $0x8055ad0,0x8(%esp)
 8051a02:	08 
 8051a03:	c7 44 24 04 db 5b 05 	movl   $0x8055bdb,0x4(%esp)
 8051a0a:	08 
 8051a0b:	c7 04 24 6e 00 00 00 	movl   $0x6e,(%esp)
 8051a12:	e8 48 fc ff ff       	call   805165f <__gaa_helpsingle>
 8051a17:	c7 44 24 0c e2 5b 05 	movl   $0x8055be2,0xc(%esp)
 8051a1e:	08 
 8051a1f:	c7 44 24 08 d0 5a 05 	movl   $0x8055ad0,0x8(%esp)
 8051a26:	08 
 8051a27:	c7 44 24 04 f2 5b 05 	movl   $0x8055bf2,0x4(%esp)
 8051a2e:	08 
 8051a2f:	c7 04 24 00 00 00 00 	movl   $0x0,(%esp)
 8051a36:	e8 24 fc ff ff       	call   805165f <__gaa_helpsingle>
 8051a3b:	c7 44 24 0c f7 5b 05 	movl   $0x8055bf7,0xc(%esp)
 8051a42:	08 
 8051a43:	c7 44 24 08 d0 5a 05 	movl   $0x8055ad0,0x8(%esp)
 8051a4a:	08 
 8051a4b:	c7 44 24 04 06 5c 05 	movl   $0x8055c06,0x4(%esp)
 8051a52:	08 
 8051a53:	c7 04 24 00 00 00 00 	movl   $0x0,(%esp)
 8051a5a:	e8 00 fc ff ff       	call   805165f <__gaa_helpsingle>
 8051a5f:	c7 44 24 0c 0c 5c 05 	movl   $0x8055c0c,0xc(%esp)
 8051a66:	08 
 8051a67:	c7 44 24 08 d0 5a 05 	movl   $0x8055ad0,0x8(%esp)
 8051a6e:	08 
 8051a6f:	c7 44 24 04 40 5c 05 	movl   $0x8055c40,0x4(%esp)
 8051a76:	08 
 8051a77:	c7 04 24 00 00 00 00 	movl   $0x0,(%esp)
 8051a7e:	e8 dc fb ff ff       	call   805165f <__gaa_helpsingle>
 8051a83:	c7 44 24 0c 49 5c 05 	movl   $0x8055c49,0xc(%esp)
 8051a8a:	08 
 8051a8b:	c7 44 24 08 d0 5a 05 	movl   $0x8055ad0,0x8(%esp)
 8051a92:	08 
 8051a93:	c7 44 24 04 66 5c 05 	movl   $0x8055c66,0x4(%esp)
 8051a9a:	08 
 8051a9b:	c7 04 24 00 00 00 00 	movl   $0x0,(%esp)
 8051aa2:	e8 b8 fb ff ff       	call   805165f <__gaa_helpsingle>
 8051aa7:	c7 44 24 0c 6c 5c 05 	movl   $0x8055c6c,0xc(%esp)
 8051aae:	08 
 8051aaf:	c7 44 24 08 d0 5a 05 	movl   $0x8055ad0,0x8(%esp)
 8051ab6:	08 
 8051ab7:	c7 44 24 04 84 5c 05 	movl   $0x8055c84,0x4(%esp)
 8051abe:	08 
 8051abf:	c7 04 24 6c 00 00 00 	movl   $0x6c,(%esp)
 8051ac6:	e8 94 fb ff ff       	call   805165f <__gaa_helpsingle>
 8051acb:	c7 44 24 0c 90 5c 05 	movl   $0x8055c90,0xc(%esp)
 8051ad2:	08 
 8051ad3:	c7 44 24 08 d0 5a 05 	movl   $0x8055ad0,0x8(%esp)
 8051ada:	08 
 8051adb:	c7 44 24 04 9a 5c 05 	movl   $0x8055c9a,0x4(%esp)
 8051ae2:	08 
 8051ae3:	c7 04 24 64 00 00 00 	movl   $0x64,(%esp)
 8051aea:	e8 70 fb ff ff       	call   805165f <__gaa_helpsingle>
 8051aef:	c7 44 24 0c a2 5c 05 	movl   $0x8055ca2,0xc(%esp)
 8051af6:	08 
 8051af7:	c7 44 24 08 bc 5c 05 	movl   $0x8055cbc,0x8(%esp)
 8051afe:	08 
 8051aff:	c7 44 24 04 c5 5c 05 	movl   $0x8055cc5,0x4(%esp)
 8051b06:	08 
 8051b07:	c7 04 24 73 00 00 00 	movl   $0x73,(%esp)
 8051b0e:	e8 4c fb ff ff       	call   805165f <__gaa_helpsingle>
 8051b13:	c7 44 24 0c cd 5c 05 	movl   $0x8055ccd,0xc(%esp)
 8051b1a:	08 
 8051b1b:	c7 44 24 08 e3 5c 05 	movl   $0x8055ce3,0x8(%esp)
 8051b22:	08 
 8051b23:	c7 44 24 04 f9 5c 05 	movl   $0x8055cf9,0x4(%esp)
 8051b2a:	08 
 8051b2b:	c7 04 24 00 00 00 00 	movl   $0x0,(%esp)
 8051b32:	e8 28 fb ff ff       	call   805165f <__gaa_helpsingle>
 8051b37:	c7 44 24 0c 0e 5d 05 	movl   $0x8055d0e,0xc(%esp)
 8051b3e:	08 
 8051b3f:	c7 44 24 08 1f 5d 05 	movl   $0x8055d1f,0x8(%esp)
 8051b46:	08 
 8051b47:	c7 44 24 04 30 5d 05 	movl   $0x8055d30,0x4(%esp)
 8051b4e:	08 
 8051b4f:	c7 04 24 00 00 00 00 	movl   $0x0,(%esp)
 8051b56:	e8 04 fb ff ff       	call   805165f <__gaa_helpsingle>
 8051b5b:	c7 44 24 0c 40 5d 05 	movl   $0x8055d40,0xc(%esp)
 8051b62:	08 
 8051b63:	c7 44 24 08 4e 5d 05 	movl   $0x8055d4e,0x8(%esp)
 8051b6a:	08 
 8051b6b:	c7 44 24 04 55 5d 05 	movl   $0x8055d55,0x4(%esp)
 8051b72:	08 
 8051b73:	c7 04 24 6f 00 00 00 	movl   $0x6f,(%esp)
 8051b7a:	e8 e0 fa ff ff       	call   805165f <__gaa_helpsingle>
 8051b7f:	c7 44 24 0c 60 5d 05 	movl   $0x8055d60,0xc(%esp)
 8051b86:	08 
 8051b87:	c7 44 24 08 d0 5a 05 	movl   $0x8055ad0,0x8(%esp)
 8051b8e:	08 
 8051b8f:	c7 44 24 04 92 5d 05 	movl   $0x8055d92,0x4(%esp)
 8051b96:	08 
 8051b97:	c7 04 24 75 00 00 00 	movl   $0x75,(%esp)
 8051b9e:	e8 bc fa ff ff       	call   805165f <__gaa_helpsingle>
 8051ba3:	c7 44 24 0c 9c 5d 05 	movl   $0x8055d9c,0xc(%esp)
 8051baa:	08 
 8051bab:	c7 44 24 08 bb 5d 05 	movl   $0x8055dbb,0x8(%esp)
 8051bb2:	08 
 8051bb3:	c7 44 24 04 c4 5d 05 	movl   $0x8055dc4,0x4(%esp)
 8051bba:	08 
 8051bbb:	c7 04 24 66 00 00 00 	movl   $0x66,(%esp)
 8051bc2:	e8 98 fa ff ff       	call   805165f <__gaa_helpsingle>
 8051bc7:	c7 44 24 0c cc 5d 05 	movl   $0x8055dcc,0xc(%esp)
 8051bce:	08 
 8051bcf:	c7 44 24 08 e9 5d 05 	movl   $0x8055de9,0x8(%esp)
 8051bd6:	08 
 8051bd7:	c7 44 24 04 f1 5d 05 	movl   $0x8055df1,0x4(%esp)
 8051bde:	08 
 8051bdf:	c7 04 24 63 00 00 00 	movl   $0x63,(%esp)
 8051be6:	e8 74 fa ff ff       	call   805165f <__gaa_helpsingle>
 8051beb:	c7 44 24 0c f8 5d 05 	movl   $0x8055df8,0xc(%esp)
 8051bf2:	08 
 8051bf3:	c7 44 24 08 29 5e 05 	movl   $0x8055e29,0x8(%esp)
 8051bfa:	08 
 8051bfb:	c7 44 24 04 34 5e 05 	movl   $0x8055e34,0x4(%esp)
 8051c02:	08 
 8051c03:	c7 04 24 61 00 00 00 	movl   $0x61,(%esp)
 8051c0a:	e8 50 fa ff ff       	call   805165f <__gaa_helpsingle>
 8051c0f:	c7 44 24 0c 3e 5e 05 	movl   $0x8055e3e,0xc(%esp)
 8051c16:	08 
 8051c17:	c7 44 24 08 51 5e 05 	movl   $0x8055e51,0x8(%esp)
 8051c1e:	08 
 8051c1f:	c7 44 24 04 63 5e 05 	movl   $0x8055e63,0x4(%esp)
 8051c26:	08 
 8051c27:	c7 04 24 6b 00 00 00 	movl   $0x6b,(%esp)
 8051c2e:	e8 2c fa ff ff       	call   805165f <__gaa_helpsingle>
 8051c33:	c7 44 24 0c 68 5e 05 	movl   $0x8055e68,0xc(%esp)
 8051c3a:	08 
 8051c3b:	c7 44 24 08 b8 5e 05 	movl   $0x8055eb8,0x8(%esp)
 8051c42:	08 
 8051c43:	c7 44 24 04 be 5e 05 	movl   $0x8055ebe,0x4(%esp)
 8051c4a:	08 
 8051c4b:	c7 04 24 6d 00 00 00 	movl   $0x6d,(%esp)
 8051c52:	e8 08 fa ff ff       	call   805165f <__gaa_helpsingle>
 8051c57:	c7 44 24 0c c4 5e 05 	movl   $0x8055ec4,0xc(%esp)
 8051c5e:	08 
 8051c5f:	c7 44 24 08 eb 5e 05 	movl   $0x8055eeb,0x8(%esp)
 8051c66:	08 
 8051c67:	c7 44 24 04 f1 5e 05 	movl   $0x8055ef1,0x4(%esp)
 8051c6e:	08 
 8051c6f:	c7 04 24 68 00 00 00 	movl   $0x68,(%esp)
 8051c76:	e8 e4 f9 ff ff       	call   805165f <__gaa_helpsingle>
 8051c7b:	c7 44 24 0c f8 5e 05 	movl   $0x8055ef8,0xc(%esp)
 8051c82:	08 
 8051c83:	c7 44 24 08 d0 5a 05 	movl   $0x8055ad0,0x8(%esp)
 8051c8a:	08 
 8051c8b:	c7 44 24 04 2d 5f 05 	movl   $0x8055f2d,0x4(%esp)
 8051c92:	08 
 8051c93:	c7 04 24 00 00 00 00 	movl   $0x0,(%esp)
 8051c9a:	e8 c0 f9 ff ff       	call   805165f <__gaa_helpsingle>
 8051c9f:	c7 44 24 0c 34 5f 05 	movl   $0x8055f34,0xc(%esp)
 8051ca6:	08 
 8051ca7:	c7 44 24 08 d0 5a 05 	movl   $0x8055ad0,0x8(%esp)
 8051cae:	08 
 8051caf:	c7 44 24 04 5d 5f 05 	movl   $0x8055f5d,0x4(%esp)
 8051cb6:	08 
 8051cb7:	c7 04 24 00 00 00 00 	movl   $0x0,(%esp)
 8051cbe:	e8 9c f9 ff ff       	call   805165f <__gaa_helpsingle>
 8051cc3:	c7 44 24 0c 6c 5f 05 	movl   $0x8055f6c,0xc(%esp)
 8051cca:	08 
 8051ccb:	c7 44 24 08 d0 5a 05 	movl   $0x8055ad0,0x8(%esp)
 8051cd2:	08 
 8051cd3:	c7 44 24 04 9b 5f 05 	movl   $0x8055f9b,0x4(%esp)
 8051cda:	08 
 8051cdb:	c7 04 24 00 00 00 00 	movl   $0x0,(%esp)
 8051ce2:	e8 78 f9 ff ff       	call   805165f <__gaa_helpsingle>
 8051ce7:	c7 44 24 0c a4 5f 05 	movl   $0x8055fa4,0xc(%esp)
 8051cee:	08 
 8051cef:	c7 44 24 08 d0 5a 05 	movl   $0x8055ad0,0x8(%esp)
 8051cf6:	08 
 8051cf7:	c7 44 24 04 b5 5f 05 	movl   $0x8055fb5,0x4(%esp)
 8051cfe:	08 
 8051cff:	c7 04 24 00 00 00 00 	movl   $0x0,(%esp)
 8051d06:	e8 54 f9 ff ff       	call   805165f <__gaa_helpsingle>
 8051d0b:	c7 44 24 0c ba 5f 05 	movl   $0x8055fba,0xc(%esp)
 8051d12:	08 
 8051d13:	c7 44 24 08 d0 5a 05 	movl   $0x8055ad0,0x8(%esp)
 8051d1a:	08 
 8051d1b:	c7 44 24 04 d4 5f 05 	movl   $0x8055fd4,0x4(%esp)
 8051d22:	08 
 8051d23:	c7 04 24 76 00 00 00 	movl   $0x76,(%esp)
 8051d2a:	e8 30 f9 ff ff       	call   805165f <__gaa_helpsingle>
 8051d2f:	c7 44 24 0c dc 5f 05 	movl   $0x8055fdc,0xc(%esp)
 8051d36:	08 
 8051d37:	c7 44 24 08 d0 5a 05 	movl   $0x8055ad0,0x8(%esp)
 8051d3e:	08 
 8051d3f:	c7 44 24 04 fa 5f 05 	movl   $0x8055ffa,0x4(%esp)
 8051d46:	08 
 8051d47:	c7 04 24 4c 00 00 00 	movl   $0x4c,(%esp)
 8051d4e:	e8 0c f9 ff ff       	call   805165f <__gaa_helpsingle>
 8051d53:	c9                   	leave  
 8051d54:	c3                   	ret    

08051d55 <gaa_getint>:
 8051d55:	55                   	push   %ebp
 8051d56:	89 e5                	mov    %esp,%ebp
 8051d58:	83 ec 28             	sub    $0x28,%esp
 8051d5b:	8d 45 f3             	lea    -0xd(%ebp),%eax
 8051d5e:	89 44 24 0c          	mov    %eax,0xc(%esp)
 8051d62:	8d 45 f4             	lea    -0xc(%ebp),%eax
 8051d65:	89 44 24 08          	mov    %eax,0x8(%esp)
 8051d69:	c7 44 24 04 02 60 05 	movl   $0x8056002,0x4(%esp)
 8051d70:	08 
 8051d71:	8b 45 08             	mov    0x8(%ebp),%eax
 8051d74:	89 04 24             	mov    %eax,(%esp)
 8051d77:	e8 14 7b ff ff       	call   8049890 <__isoc99_sscanf@plt>
 8051d7c:	83 f8 01             	cmp    $0x1,%eax
 8051d7f:	74 28                	je     8051da9 <gaa_getint+0x54>
 8051d81:	a1 e4 16 08 08       	mov    0x80816e4,%eax
 8051d86:	8b 55 08             	mov    0x8(%ebp),%edx
 8051d89:	89 54 24 08          	mov    %edx,0x8(%esp)
 8051d8d:	89 44 24 04          	mov    %eax,0x4(%esp)
 8051d91:	c7 04 24 08 60 05 08 	movl   $0x8056008,(%esp)
 8051d98:	e8 e3 76 ff ff       	call   8049480 <printf@plt>
 8051d9d:	c7 05 94 15 06 08 01 	movl   $0x1,0x8061594
 8051da4:	00 00 00 
 8051da7:	eb 03                	jmp    8051dac <gaa_getint+0x57>
 8051da9:	8b 45 f4             	mov    -0xc(%ebp),%eax
 8051dac:	c9                   	leave  
 8051dad:	c3                   	ret    

08051dae <gaa_getchar>:
 8051dae:	55                   	push   %ebp
 8051daf:	89 e5                	mov    %esp,%ebp
 8051db1:	83 ec 18             	sub    $0x18,%esp
 8051db4:	8b 45 08             	mov    0x8(%ebp),%eax
 8051db7:	89 04 24             	mov    %eax,(%esp)
 8051dba:	e8 51 7a ff ff       	call   8049810 <strlen@plt>
 8051dbf:	83 f8 01             	cmp    $0x1,%eax
 8051dc2:	74 29                	je     8051ded <gaa_getchar+0x3f>
 8051dc4:	a1 e4 16 08 08       	mov    0x80816e4,%eax
 8051dc9:	8b 55 08             	mov    0x8(%ebp),%edx
 8051dcc:	89 54 24 08          	mov    %edx,0x8(%esp)
 8051dd0:	89 44 24 04          	mov    %eax,0x4(%esp)
 8051dd4:	c7 04 24 2c 60 05 08 	movl   $0x805602c,(%esp)
 8051ddb:	e8 a0 76 ff ff       	call   8049480 <printf@plt>
 8051de0:	c7 05 94 15 06 08 01 	movl   $0x1,0x8061594
 8051de7:	00 00 00 
 8051dea:	90                   	nop
 8051deb:	eb 06                	jmp    8051df3 <gaa_getchar+0x45>
 8051ded:	8b 45 08             	mov    0x8(%ebp),%eax
 8051df0:	0f b6 00             	movzbl (%eax),%eax
 8051df3:	c9                   	leave  
 8051df4:	c3                   	ret    

08051df5 <gaa_getstr>:
 8051df5:	55                   	push   %ebp
 8051df6:	89 e5                	mov    %esp,%ebp
 8051df8:	8b 45 08             	mov    0x8(%ebp),%eax
 8051dfb:	5d                   	pop    %ebp
 8051dfc:	c3                   	ret    

08051dfd <gaa_getfloat>:
 8051dfd:	55                   	push   %ebp
 8051dfe:	89 e5                	mov    %esp,%ebp
 8051e00:	83 ec 38             	sub    $0x38,%esp
 8051e03:	8d 45 f3             	lea    -0xd(%ebp),%eax
 8051e06:	89 44 24 0c          	mov    %eax,0xc(%esp)
 8051e0a:	8d 45 f4             	lea    -0xc(%ebp),%eax
 8051e0d:	89 44 24 08          	mov    %eax,0x8(%esp)
 8051e11:	c7 44 24 04 51 60 05 	movl   $0x8056051,0x4(%esp)
 8051e18:	08 
 8051e19:	8b 45 08             	mov    0x8(%ebp),%eax
 8051e1c:	89 04 24             	mov    %eax,(%esp)
 8051e1f:	e8 6c 7a ff ff       	call   8049890 <__isoc99_sscanf@plt>
 8051e24:	83 f8 01             	cmp    $0x1,%eax
 8051e27:	74 36                	je     8051e5f <gaa_getfloat+0x62>
 8051e29:	a1 e4 16 08 08       	mov    0x80816e4,%eax
 8051e2e:	8b 55 08             	mov    0x8(%ebp),%edx
 8051e31:	89 54 24 08          	mov    %edx,0x8(%esp)
 8051e35:	89 44 24 04          	mov    %eax,0x4(%esp)
 8051e39:	c7 04 24 58 60 05 08 	movl   $0x8056058,(%esp)
 8051e40:	e8 3b 76 ff ff       	call   8049480 <printf@plt>
 8051e45:	c7 05 94 15 06 08 01 	movl   $0x1,0x8061594
 8051e4c:	00 00 00 
 8051e4f:	d9 05 48 62 05 08    	flds   0x8056248
 8051e55:	dd d8                	fstp   %st(0)
 8051e57:	d9 05 48 62 05 08    	flds   0x8056248
 8051e5d:	eb 09                	jmp    8051e68 <gaa_getfloat+0x6b>
 8051e5f:	8b 45 f4             	mov    -0xc(%ebp),%eax
 8051e62:	89 45 e4             	mov    %eax,-0x1c(%ebp)
 8051e65:	d9 45 e4             	flds   -0x1c(%ebp)
 8051e68:	c9                   	leave  
 8051e69:	c3                   	ret    

08051e6a <gaa_is_an_argument>:
 8051e6a:	55                   	push   %ebp
 8051e6b:	89 e5                	mov    %esp,%ebp
 8051e6d:	8b 45 08             	mov    0x8(%ebp),%eax
 8051e70:	0f b6 00             	movzbl (%eax),%eax
 8051e73:	3c 2d                	cmp    $0x2d,%al
 8051e75:	74 07                	je     8051e7e <gaa_is_an_argument+0x14>
 8051e77:	b8 00 00 00 00       	mov    $0x0,%eax
 8051e7c:	eb 55                	jmp    8051ed3 <gaa_is_an_argument+0x69>
 8051e7e:	8b 45 08             	mov    0x8(%ebp),%eax
 8051e81:	83 c0 01             	add    $0x1,%eax
 8051e84:	0f b6 00             	movzbl (%eax),%eax
 8051e87:	84 c0                	test   %al,%al
 8051e89:	75 07                	jne    8051e92 <gaa_is_an_argument+0x28>
 8051e8b:	b8 00 00 00 00       	mov    $0x0,%eax
 8051e90:	eb 41                	jmp    8051ed3 <gaa_is_an_argument+0x69>
 8051e92:	8b 45 08             	mov    0x8(%ebp),%eax
 8051e95:	83 c0 01             	add    $0x1,%eax
 8051e98:	0f b6 00             	movzbl (%eax),%eax
 8051e9b:	3c 2d                	cmp    $0x2d,%al
 8051e9d:	75 1b                	jne    8051eba <gaa_is_an_argument+0x50>
 8051e9f:	8b 45 08             	mov    0x8(%ebp),%eax
 8051ea2:	83 c0 02             	add    $0x2,%eax
 8051ea5:	0f b6 00             	movzbl (%eax),%eax
 8051ea8:	84 c0                	test   %al,%al
 8051eaa:	74 07                	je     8051eb3 <gaa_is_an_argument+0x49>
 8051eac:	b8 01 00 00 00       	mov    $0x1,%eax
 8051eb1:	eb 20                	jmp    8051ed3 <gaa_is_an_argument+0x69>
 8051eb3:	b8 00 00 00 00       	mov    $0x0,%eax
 8051eb8:	eb 19                	jmp    8051ed3 <gaa_is_an_argument+0x69>
 8051eba:	8b 45 08             	mov    0x8(%ebp),%eax
 8051ebd:	83 c0 02             	add    $0x2,%eax
 8051ec0:	0f b6 00             	movzbl (%eax),%eax
 8051ec3:	84 c0                	test   %al,%al
 8051ec5:	75 07                	jne    8051ece <gaa_is_an_argument+0x64>
 8051ec7:	b8 02 00 00 00       	mov    $0x2,%eax
 8051ecc:	eb 05                	jmp    8051ed3 <gaa_is_an_argument+0x69>
 8051ece:	b8 03 00 00 00       	mov    $0x3,%eax
 8051ed3:	5d                   	pop    %ebp
 8051ed4:	c3                   	ret    

08051ed5 <gaa_get_option_num>:
 8051ed5:	55                   	push   %ebp
 8051ed6:	89 e5                	mov    %esp,%ebp
 8051ed8:	83 ec 18             	sub    $0x18,%esp
 8051edb:	8b 45 0c             	mov    0xc(%ebp),%eax
 8051ede:	83 f8 02             	cmp    $0x2,%eax
 8051ee1:	74 17                	je     8051efa <gaa_get_option_num+0x25>
 8051ee3:	83 f8 03             	cmp    $0x3,%eax
 8051ee6:	0f 84 6c 01 00 00    	je     8052058 <gaa_get_option_num+0x183>
 8051eec:	83 f8 01             	cmp    $0x1,%eax
 8051eef:	0f 84 47 04 00 00    	je     805233c <gaa_get_option_num+0x467>
 8051ef5:	e9 6c 09 00 00       	jmp    8052866 <gaa_get_option_num+0x991>
 8051efa:	ba 68 00 00 00       	mov    $0x68,%edx
 8051eff:	8b 45 08             	mov    0x8(%ebp),%eax
 8051f02:	0f b6 00             	movzbl (%eax),%eax
 8051f05:	38 c2                	cmp    %al,%dl
 8051f07:	75 14                	jne    8051f1d <gaa_get_option_num+0x48>
 8051f09:	c7 05 e4 16 08 08 7f 	movl   $0x805607f,0x80816e4
 8051f10:	60 05 08 
 8051f13:	b8 07 00 00 00       	mov    $0x7,%eax
 8051f18:	e9 4e 09 00 00       	jmp    805286b <gaa_get_option_num+0x996>
 8051f1d:	ba 6d 00 00 00       	mov    $0x6d,%edx
 8051f22:	8b 45 08             	mov    0x8(%ebp),%eax
 8051f25:	0f b6 00             	movzbl (%eax),%eax
 8051f28:	38 c2                	cmp    %al,%dl
 8051f2a:	75 14                	jne    8051f40 <gaa_get_option_num+0x6b>
 8051f2c:	c7 05 e4 16 08 08 81 	movl   $0x8056081,0x80816e4
 8051f33:	60 05 08 
 8051f36:	b8 08 00 00 00       	mov    $0x8,%eax
 8051f3b:	e9 2b 09 00 00       	jmp    805286b <gaa_get_option_num+0x996>
 8051f40:	ba 6b 00 00 00       	mov    $0x6b,%edx
 8051f45:	8b 45 08             	mov    0x8(%ebp),%eax
 8051f48:	0f b6 00             	movzbl (%eax),%eax
 8051f4b:	38 c2                	cmp    %al,%dl
 8051f4d:	75 14                	jne    8051f63 <gaa_get_option_num+0x8e>
 8051f4f:	c7 05 e4 16 08 08 83 	movl   $0x8056083,0x80816e4
 8051f56:	60 05 08 
 8051f59:	b8 09 00 00 00       	mov    $0x9,%eax
 8051f5e:	e9 08 09 00 00       	jmp    805286b <gaa_get_option_num+0x996>
 8051f63:	ba 61 00 00 00       	mov    $0x61,%edx
 8051f68:	8b 45 08             	mov    0x8(%ebp),%eax
 8051f6b:	0f b6 00             	movzbl (%eax),%eax
 8051f6e:	38 c2                	cmp    %al,%dl
 8051f70:	75 14                	jne    8051f86 <gaa_get_option_num+0xb1>
 8051f72:	c7 05 e4 16 08 08 85 	movl   $0x8056085,0x80816e4
 8051f79:	60 05 08 
 8051f7c:	b8 0a 00 00 00       	mov    $0xa,%eax
 8051f81:	e9 e5 08 00 00       	jmp    805286b <gaa_get_option_num+0x996>
 8051f86:	ba 63 00 00 00       	mov    $0x63,%edx
 8051f8b:	8b 45 08             	mov    0x8(%ebp),%eax
 8051f8e:	0f b6 00             	movzbl (%eax),%eax
 8051f91:	38 c2                	cmp    %al,%dl
 8051f93:	75 14                	jne    8051fa9 <gaa_get_option_num+0xd4>
 8051f95:	c7 05 e4 16 08 08 87 	movl   $0x8056087,0x80816e4
 8051f9c:	60 05 08 
 8051f9f:	b8 0b 00 00 00       	mov    $0xb,%eax
 8051fa4:	e9 c2 08 00 00       	jmp    805286b <gaa_get_option_num+0x996>
 8051fa9:	ba 66 00 00 00       	mov    $0x66,%edx
 8051fae:	8b 45 08             	mov    0x8(%ebp),%eax
 8051fb1:	0f b6 00             	movzbl (%eax),%eax
 8051fb4:	38 c2                	cmp    %al,%dl
 8051fb6:	75 14                	jne    8051fcc <gaa_get_option_num+0xf7>
 8051fb8:	c7 05 e4 16 08 08 89 	movl   $0x8056089,0x80816e4
 8051fbf:	60 05 08 
 8051fc2:	b8 0c 00 00 00       	mov    $0xc,%eax
 8051fc7:	e9 9f 08 00 00       	jmp    805286b <gaa_get_option_num+0x996>
 8051fcc:	ba 6f 00 00 00       	mov    $0x6f,%edx
 8051fd1:	8b 45 08             	mov    0x8(%ebp),%eax
 8051fd4:	0f b6 00             	movzbl (%eax),%eax
 8051fd7:	38 c2                	cmp    %al,%dl
 8051fd9:	75 14                	jne    8051fef <gaa_get_option_num+0x11a>
 8051fdb:	c7 05 e4 16 08 08 8b 	movl   $0x805608b,0x80816e4
 8051fe2:	60 05 08 
 8051fe5:	b8 0e 00 00 00       	mov    $0xe,%eax
 8051fea:	e9 7c 08 00 00       	jmp    805286b <gaa_get_option_num+0x996>
 8051fef:	ba 00 00 00 00       	mov    $0x0,%edx
 8051ff4:	8b 45 08             	mov    0x8(%ebp),%eax
 8051ff7:	0f b6 00             	movzbl (%eax),%eax
 8051ffa:	38 c2                	cmp    %al,%dl
 8051ffc:	75 14                	jne    8052012 <gaa_get_option_num+0x13d>
 8051ffe:	c7 05 e4 16 08 08 d0 	movl   $0x8055ad0,0x80816e4
 8052005:	5a 05 08 
 8052008:	b8 0f 00 00 00       	mov    $0xf,%eax
 805200d:	e9 59 08 00 00       	jmp    805286b <gaa_get_option_num+0x996>
 8052012:	ba 00 00 00 00       	mov    $0x0,%edx
 8052017:	8b 45 08             	mov    0x8(%ebp),%eax
 805201a:	0f b6 00             	movzbl (%eax),%eax
 805201d:	38 c2                	cmp    %al,%dl
 805201f:	75 14                	jne    8052035 <gaa_get_option_num+0x160>
 8052021:	c7 05 e4 16 08 08 d0 	movl   $0x8055ad0,0x80816e4
 8052028:	5a 05 08 
 805202b:	b8 10 00 00 00       	mov    $0x10,%eax
 8052030:	e9 36 08 00 00       	jmp    805286b <gaa_get_option_num+0x996>
 8052035:	ba 73 00 00 00       	mov    $0x73,%edx
 805203a:	8b 45 08             	mov    0x8(%ebp),%eax
 805203d:	0f b6 00             	movzbl (%eax),%eax
 8052040:	38 c2                	cmp    %al,%dl
 8052042:	75 14                	jne    8052058 <gaa_get_option_num+0x183>
 8052044:	c7 05 e4 16 08 08 8d 	movl   $0x805608d,0x80816e4
 805204b:	60 05 08 
 805204e:	b8 11 00 00 00       	mov    $0x11,%eax
 8052053:	e9 13 08 00 00       	jmp    805286b <gaa_get_option_num+0x996>
 8052058:	ba 4c 00 00 00       	mov    $0x4c,%edx
 805205d:	8b 45 08             	mov    0x8(%ebp),%eax
 8052060:	0f b6 00             	movzbl (%eax),%eax
 8052063:	38 c2                	cmp    %al,%dl
 8052065:	75 14                	jne    805207b <gaa_get_option_num+0x1a6>
 8052067:	c7 05 e4 16 08 08 8f 	movl   $0x805608f,0x80816e4
 805206e:	60 05 08 
 8052071:	b8 01 00 00 00       	mov    $0x1,%eax
 8052076:	e9 f0 07 00 00       	jmp    805286b <gaa_get_option_num+0x996>
 805207b:	ba 76 00 00 00       	mov    $0x76,%edx
 8052080:	8b 45 08             	mov    0x8(%ebp),%eax
 8052083:	0f b6 00             	movzbl (%eax),%eax
 8052086:	38 c2                	cmp    %al,%dl
 8052088:	75 14                	jne    805209e <gaa_get_option_num+0x1c9>
 805208a:	c7 05 e4 16 08 08 91 	movl   $0x8056091,0x80816e4
 8052091:	60 05 08 
 8052094:	b8 02 00 00 00       	mov    $0x2,%eax
 8052099:	e9 cd 07 00 00       	jmp    805286b <gaa_get_option_num+0x996>
 805209e:	ba 00 00 00 00       	mov    $0x0,%edx
 80520a3:	8b 45 08             	mov    0x8(%ebp),%eax
 80520a6:	0f b6 00             	movzbl (%eax),%eax
 80520a9:	38 c2                	cmp    %al,%dl
 80520ab:	75 14                	jne    80520c1 <gaa_get_option_num+0x1ec>
 80520ad:	c7 05 e4 16 08 08 d0 	movl   $0x8055ad0,0x80816e4
 80520b4:	5a 05 08 
 80520b7:	b8 03 00 00 00       	mov    $0x3,%eax
 80520bc:	e9 aa 07 00 00       	jmp    805286b <gaa_get_option_num+0x996>
 80520c1:	ba 00 00 00 00       	mov    $0x0,%edx
 80520c6:	8b 45 08             	mov    0x8(%ebp),%eax
 80520c9:	0f b6 00             	movzbl (%eax),%eax
 80520cc:	38 c2                	cmp    %al,%dl
 80520ce:	75 14                	jne    80520e4 <gaa_get_option_num+0x20f>
 80520d0:	c7 05 e4 16 08 08 d0 	movl   $0x8055ad0,0x80816e4
 80520d7:	5a 05 08 
 80520da:	b8 04 00 00 00       	mov    $0x4,%eax
 80520df:	e9 87 07 00 00       	jmp    805286b <gaa_get_option_num+0x996>
 80520e4:	ba 00 00 00 00       	mov    $0x0,%edx
 80520e9:	8b 45 08             	mov    0x8(%ebp),%eax
 80520ec:	0f b6 00             	movzbl (%eax),%eax
 80520ef:	38 c2                	cmp    %al,%dl
 80520f1:	75 14                	jne    8052107 <gaa_get_option_num+0x232>
 80520f3:	c7 05 e4 16 08 08 d0 	movl   $0x8055ad0,0x80816e4
 80520fa:	5a 05 08 
 80520fd:	b8 05 00 00 00       	mov    $0x5,%eax
 8052102:	e9 64 07 00 00       	jmp    805286b <gaa_get_option_num+0x996>
 8052107:	ba 00 00 00 00       	mov    $0x0,%edx
 805210c:	8b 45 08             	mov    0x8(%ebp),%eax
 805210f:	0f b6 00             	movzbl (%eax),%eax
 8052112:	38 c2                	cmp    %al,%dl
 8052114:	75 14                	jne    805212a <gaa_get_option_num+0x255>
 8052116:	c7 05 e4 16 08 08 d0 	movl   $0x8055ad0,0x80816e4
 805211d:	5a 05 08 
 8052120:	b8 06 00 00 00       	mov    $0x6,%eax
 8052125:	e9 41 07 00 00       	jmp    805286b <gaa_get_option_num+0x996>
 805212a:	ba 75 00 00 00       	mov    $0x75,%edx
 805212f:	8b 45 08             	mov    0x8(%ebp),%eax
 8052132:	0f b6 00             	movzbl (%eax),%eax
 8052135:	38 c2                	cmp    %al,%dl
 8052137:	75 14                	jne    805214d <gaa_get_option_num+0x278>
 8052139:	c7 05 e4 16 08 08 93 	movl   $0x8056093,0x80816e4
 8052140:	60 05 08 
 8052143:	b8 0d 00 00 00       	mov    $0xd,%eax
 8052148:	e9 1e 07 00 00       	jmp    805286b <gaa_get_option_num+0x996>
 805214d:	ba 64 00 00 00       	mov    $0x64,%edx
 8052152:	8b 45 08             	mov    0x8(%ebp),%eax
 8052155:	0f b6 00             	movzbl (%eax),%eax
 8052158:	38 c2                	cmp    %al,%dl
 805215a:	75 14                	jne    8052170 <gaa_get_option_num+0x29b>
 805215c:	c7 05 e4 16 08 08 95 	movl   $0x8056095,0x80816e4
 8052163:	60 05 08 
 8052166:	b8 12 00 00 00       	mov    $0x12,%eax
 805216b:	e9 fb 06 00 00       	jmp    805286b <gaa_get_option_num+0x996>
 8052170:	ba 6c 00 00 00       	mov    $0x6c,%edx
 8052175:	8b 45 08             	mov    0x8(%ebp),%eax
 8052178:	0f b6 00             	movzbl (%eax),%eax
 805217b:	38 c2                	cmp    %al,%dl
 805217d:	75 14                	jne    8052193 <gaa_get_option_num+0x2be>
 805217f:	c7 05 e4 16 08 08 97 	movl   $0x8056097,0x80816e4
 8052186:	60 05 08 
 8052189:	b8 13 00 00 00       	mov    $0x13,%eax
 805218e:	e9 d8 06 00 00       	jmp    805286b <gaa_get_option_num+0x996>
 8052193:	ba 00 00 00 00       	mov    $0x0,%edx
 8052198:	8b 45 08             	mov    0x8(%ebp),%eax
 805219b:	0f b6 00             	movzbl (%eax),%eax
 805219e:	38 c2                	cmp    %al,%dl
 80521a0:	75 14                	jne    80521b6 <gaa_get_option_num+0x2e1>
 80521a2:	c7 05 e4 16 08 08 d0 	movl   $0x8055ad0,0x80816e4
 80521a9:	5a 05 08 
 80521ac:	b8 14 00 00 00       	mov    $0x14,%eax
 80521b1:	e9 b5 06 00 00       	jmp    805286b <gaa_get_option_num+0x996>
 80521b6:	ba 00 00 00 00       	mov    $0x0,%edx
 80521bb:	8b 45 08             	mov    0x8(%ebp),%eax
 80521be:	0f b6 00             	movzbl (%eax),%eax
 80521c1:	38 c2                	cmp    %al,%dl
 80521c3:	75 14                	jne    80521d9 <gaa_get_option_num+0x304>
 80521c5:	c7 05 e4 16 08 08 d0 	movl   $0x8055ad0,0x80816e4
 80521cc:	5a 05 08 
 80521cf:	b8 15 00 00 00       	mov    $0x15,%eax
 80521d4:	e9 92 06 00 00       	jmp    805286b <gaa_get_option_num+0x996>
 80521d9:	ba 00 00 00 00       	mov    $0x0,%edx
 80521de:	8b 45 08             	mov    0x8(%ebp),%eax
 80521e1:	0f b6 00             	movzbl (%eax),%eax
 80521e4:	38 c2                	cmp    %al,%dl
 80521e6:	75 14                	jne    80521fc <gaa_get_option_num+0x327>
 80521e8:	c7 05 e4 16 08 08 d0 	movl   $0x8055ad0,0x80816e4
 80521ef:	5a 05 08 
 80521f2:	b8 16 00 00 00       	mov    $0x16,%eax
 80521f7:	e9 6f 06 00 00       	jmp    805286b <gaa_get_option_num+0x996>
 80521fc:	ba 00 00 00 00       	mov    $0x0,%edx
 8052201:	8b 45 08             	mov    0x8(%ebp),%eax
 8052204:	0f b6 00             	movzbl (%eax),%eax
 8052207:	38 c2                	cmp    %al,%dl
 8052209:	75 14                	jne    805221f <gaa_get_option_num+0x34a>
 805220b:	c7 05 e4 16 08 08 d0 	movl   $0x8055ad0,0x80816e4
 8052212:	5a 05 08 
 8052215:	b8 17 00 00 00       	mov    $0x17,%eax
 805221a:	e9 4c 06 00 00       	jmp    805286b <gaa_get_option_num+0x996>
 805221f:	ba 6e 00 00 00       	mov    $0x6e,%edx
 8052224:	8b 45 08             	mov    0x8(%ebp),%eax
 8052227:	0f b6 00             	movzbl (%eax),%eax
 805222a:	38 c2                	cmp    %al,%dl
 805222c:	75 14                	jne    8052242 <gaa_get_option_num+0x36d>
 805222e:	c7 05 e4 16 08 08 99 	movl   $0x8056099,0x80816e4
 8052235:	60 05 08 
 8052238:	b8 18 00 00 00       	mov    $0x18,%eax
 805223d:	e9 29 06 00 00       	jmp    805286b <gaa_get_option_num+0x996>
 8052242:	ba 70 00 00 00       	mov    $0x70,%edx
 8052247:	8b 45 08             	mov    0x8(%ebp),%eax
 805224a:	0f b6 00             	movzbl (%eax),%eax
 805224d:	38 c2                	cmp    %al,%dl
 805224f:	75 14                	jne    8052265 <gaa_get_option_num+0x390>
 8052251:	c7 05 e4 16 08 08 9b 	movl   $0x805609b,0x80816e4
 8052258:	60 05 08 
 805225b:	b8 19 00 00 00       	mov    $0x19,%eax
 8052260:	e9 06 06 00 00       	jmp    805286b <gaa_get_option_num+0x996>
 8052265:	ba 7a 00 00 00       	mov    $0x7a,%edx
 805226a:	8b 45 08             	mov    0x8(%ebp),%eax
 805226d:	0f b6 00             	movzbl (%eax),%eax
 8052270:	38 c2                	cmp    %al,%dl
 8052272:	75 14                	jne    8052288 <gaa_get_option_num+0x3b3>
 8052274:	c7 05 e4 16 08 08 9d 	movl   $0x805609d,0x80816e4
 805227b:	60 05 08 
 805227e:	b8 1a 00 00 00       	mov    $0x1a,%eax
 8052283:	e9 e3 05 00 00       	jmp    805286b <gaa_get_option_num+0x996>
 8052288:	ba 62 00 00 00       	mov    $0x62,%edx
 805228d:	8b 45 08             	mov    0x8(%ebp),%eax
 8052290:	0f b6 00             	movzbl (%eax),%eax
 8052293:	38 c2                	cmp    %al,%dl
 8052295:	75 14                	jne    80522ab <gaa_get_option_num+0x3d6>
 8052297:	c7 05 e4 16 08 08 9f 	movl   $0x805609f,0x80816e4
 805229e:	60 05 08 
 80522a1:	b8 1b 00 00 00       	mov    $0x1b,%eax
 80522a6:	e9 c0 05 00 00       	jmp    805286b <gaa_get_option_num+0x996>
 80522ab:	ba 72 00 00 00       	mov    $0x72,%edx
 80522b0:	8b 45 08             	mov    0x8(%ebp),%eax
 80522b3:	0f b6 00             	movzbl (%eax),%eax
 80522b6:	38 c2                	cmp    %al,%dl
 80522b8:	75 14                	jne    80522ce <gaa_get_option_num+0x3f9>
 80522ba:	c7 05 e4 16 08 08 a1 	movl   $0x80560a1,0x80816e4
 80522c1:	60 05 08 
 80522c4:	b8 1c 00 00 00       	mov    $0x1c,%eax
 80522c9:	e9 9d 05 00 00       	jmp    805286b <gaa_get_option_num+0x996>
 80522ce:	ba 46 00 00 00       	mov    $0x46,%edx
 80522d3:	8b 45 08             	mov    0x8(%ebp),%eax
 80522d6:	0f b6 00             	movzbl (%eax),%eax
 80522d9:	38 c2                	cmp    %al,%dl
 80522db:	75 14                	jne    80522f1 <gaa_get_option_num+0x41c>
 80522dd:	c7 05 e4 16 08 08 a3 	movl   $0x80560a3,0x80816e4
 80522e4:	60 05 08 
 80522e7:	b8 1d 00 00 00       	mov    $0x1d,%eax
 80522ec:	e9 7a 05 00 00       	jmp    805286b <gaa_get_option_num+0x996>
 80522f1:	ba 71 00 00 00       	mov    $0x71,%edx
 80522f6:	8b 45 08             	mov    0x8(%ebp),%eax
 80522f9:	0f b6 00             	movzbl (%eax),%eax
 80522fc:	38 c2                	cmp    %al,%dl
 80522fe:	75 14                	jne    8052314 <gaa_get_option_num+0x43f>
 8052300:	c7 05 e4 16 08 08 a5 	movl   $0x80560a5,0x80816e4
 8052307:	60 05 08 
 805230a:	b8 1e 00 00 00       	mov    $0x1e,%eax
 805230f:	e9 57 05 00 00       	jmp    805286b <gaa_get_option_num+0x996>
 8052314:	ba 56 00 00 00       	mov    $0x56,%edx
 8052319:	8b 45 08             	mov    0x8(%ebp),%eax
 805231c:	0f b6 00             	movzbl (%eax),%eax
 805231f:	38 c2                	cmp    %al,%dl
 8052321:	75 14                	jne    8052337 <gaa_get_option_num+0x462>
 8052323:	c7 05 e4 16 08 08 a7 	movl   $0x80560a7,0x80816e4
 805232a:	60 05 08 
 805232d:	b8 1f 00 00 00       	mov    $0x1f,%eax
 8052332:	e9 34 05 00 00       	jmp    805286b <gaa_get_option_num+0x996>
 8052337:	e9 2a 05 00 00       	jmp    8052866 <gaa_get_option_num+0x991>
 805233c:	8b 45 08             	mov    0x8(%ebp),%eax
 805233f:	89 44 24 04          	mov    %eax,0x4(%esp)
 8052343:	c7 04 24 fa 5f 05 08 	movl   $0x8055ffa,(%esp)
 805234a:	e8 f1 70 ff ff       	call   8049440 <strcmp@plt>
 805234f:	85 c0                	test   %eax,%eax
 8052351:	75 14                	jne    8052367 <gaa_get_option_num+0x492>
 8052353:	c7 05 e4 16 08 08 fa 	movl   $0x8055ffa,0x80816e4
 805235a:	5f 05 08 
 805235d:	b8 01 00 00 00       	mov    $0x1,%eax
 8052362:	e9 04 05 00 00       	jmp    805286b <gaa_get_option_num+0x996>
 8052367:	8b 45 08             	mov    0x8(%ebp),%eax
 805236a:	89 44 24 04          	mov    %eax,0x4(%esp)
 805236e:	c7 04 24 d4 5f 05 08 	movl   $0x8055fd4,(%esp)
 8052375:	e8 c6 70 ff ff       	call   8049440 <strcmp@plt>
 805237a:	85 c0                	test   %eax,%eax
 805237c:	75 14                	jne    8052392 <gaa_get_option_num+0x4bd>
 805237e:	c7 05 e4 16 08 08 d4 	movl   $0x8055fd4,0x80816e4
 8052385:	5f 05 08 
 8052388:	b8 02 00 00 00       	mov    $0x2,%eax
 805238d:	e9 d9 04 00 00       	jmp    805286b <gaa_get_option_num+0x996>
 8052392:	8b 45 08             	mov    0x8(%ebp),%eax
 8052395:	89 44 24 04          	mov    %eax,0x4(%esp)
 8052399:	c7 04 24 b5 5f 05 08 	movl   $0x8055fb5,(%esp)
 80523a0:	e8 9b 70 ff ff       	call   8049440 <strcmp@plt>
 80523a5:	85 c0                	test   %eax,%eax
 80523a7:	75 14                	jne    80523bd <gaa_get_option_num+0x4e8>
 80523a9:	c7 05 e4 16 08 08 b5 	movl   $0x8055fb5,0x80816e4
 80523b0:	5f 05 08 
 80523b3:	b8 03 00 00 00       	mov    $0x3,%eax
 80523b8:	e9 ae 04 00 00       	jmp    805286b <gaa_get_option_num+0x996>
 80523bd:	8b 45 08             	mov    0x8(%ebp),%eax
 80523c0:	89 44 24 04          	mov    %eax,0x4(%esp)
 80523c4:	c7 04 24 9b 5f 05 08 	movl   $0x8055f9b,(%esp)
 80523cb:	e8 70 70 ff ff       	call   8049440 <strcmp@plt>
 80523d0:	85 c0                	test   %eax,%eax
 80523d2:	75 14                	jne    80523e8 <gaa_get_option_num+0x513>
 80523d4:	c7 05 e4 16 08 08 9b 	movl   $0x8055f9b,0x80816e4
 80523db:	5f 05 08 
 80523de:	b8 04 00 00 00       	mov    $0x4,%eax
 80523e3:	e9 83 04 00 00       	jmp    805286b <gaa_get_option_num+0x996>
 80523e8:	8b 45 08             	mov    0x8(%ebp),%eax
 80523eb:	89 44 24 04          	mov    %eax,0x4(%esp)
 80523ef:	c7 04 24 5d 5f 05 08 	movl   $0x8055f5d,(%esp)
 80523f6:	e8 45 70 ff ff       	call   8049440 <strcmp@plt>
 80523fb:	85 c0                	test   %eax,%eax
 80523fd:	75 14                	jne    8052413 <gaa_get_option_num+0x53e>
 80523ff:	c7 05 e4 16 08 08 5d 	movl   $0x8055f5d,0x80816e4
 8052406:	5f 05 08 
 8052409:	b8 05 00 00 00       	mov    $0x5,%eax
 805240e:	e9 58 04 00 00       	jmp    805286b <gaa_get_option_num+0x996>
 8052413:	8b 45 08             	mov    0x8(%ebp),%eax
 8052416:	89 44 24 04          	mov    %eax,0x4(%esp)
 805241a:	c7 04 24 2d 5f 05 08 	movl   $0x8055f2d,(%esp)
 8052421:	e8 1a 70 ff ff       	call   8049440 <strcmp@plt>
 8052426:	85 c0                	test   %eax,%eax
 8052428:	75 14                	jne    805243e <gaa_get_option_num+0x569>
 805242a:	c7 05 e4 16 08 08 2d 	movl   $0x8055f2d,0x80816e4
 8052431:	5f 05 08 
 8052434:	b8 06 00 00 00       	mov    $0x6,%eax
 8052439:	e9 2d 04 00 00       	jmp    805286b <gaa_get_option_num+0x996>
 805243e:	8b 45 08             	mov    0x8(%ebp),%eax
 8052441:	89 44 24 04          	mov    %eax,0x4(%esp)
 8052445:	c7 04 24 f1 5e 05 08 	movl   $0x8055ef1,(%esp)
 805244c:	e8 ef 6f ff ff       	call   8049440 <strcmp@plt>
 8052451:	85 c0                	test   %eax,%eax
 8052453:	75 14                	jne    8052469 <gaa_get_option_num+0x594>
 8052455:	c7 05 e4 16 08 08 f1 	movl   $0x8055ef1,0x80816e4
 805245c:	5e 05 08 
 805245f:	b8 07 00 00 00       	mov    $0x7,%eax
 8052464:	e9 02 04 00 00       	jmp    805286b <gaa_get_option_num+0x996>
 8052469:	8b 45 08             	mov    0x8(%ebp),%eax
 805246c:	89 44 24 04          	mov    %eax,0x4(%esp)
 8052470:	c7 04 24 be 5e 05 08 	movl   $0x8055ebe,(%esp)
 8052477:	e8 c4 6f ff ff       	call   8049440 <strcmp@plt>
 805247c:	85 c0                	test   %eax,%eax
 805247e:	75 14                	jne    8052494 <gaa_get_option_num+0x5bf>
 8052480:	c7 05 e4 16 08 08 be 	movl   $0x8055ebe,0x80816e4
 8052487:	5e 05 08 
 805248a:	b8 08 00 00 00       	mov    $0x8,%eax
 805248f:	e9 d7 03 00 00       	jmp    805286b <gaa_get_option_num+0x996>
 8052494:	8b 45 08             	mov    0x8(%ebp),%eax
 8052497:	89 44 24 04          	mov    %eax,0x4(%esp)
 805249b:	c7 04 24 63 5e 05 08 	movl   $0x8055e63,(%esp)
 80524a2:	e8 99 6f ff ff       	call   8049440 <strcmp@plt>
 80524a7:	85 c0                	test   %eax,%eax
 80524a9:	75 14                	jne    80524bf <gaa_get_option_num+0x5ea>
 80524ab:	c7 05 e4 16 08 08 63 	movl   $0x8055e63,0x80816e4
 80524b2:	5e 05 08 
 80524b5:	b8 09 00 00 00       	mov    $0x9,%eax
 80524ba:	e9 ac 03 00 00       	jmp    805286b <gaa_get_option_num+0x996>
 80524bf:	8b 45 08             	mov    0x8(%ebp),%eax
 80524c2:	89 44 24 04          	mov    %eax,0x4(%esp)
 80524c6:	c7 04 24 34 5e 05 08 	movl   $0x8055e34,(%esp)
 80524cd:	e8 6e 6f ff ff       	call   8049440 <strcmp@plt>
 80524d2:	85 c0                	test   %eax,%eax
 80524d4:	75 14                	jne    80524ea <gaa_get_option_num+0x615>
 80524d6:	c7 05 e4 16 08 08 34 	movl   $0x8055e34,0x80816e4
 80524dd:	5e 05 08 
 80524e0:	b8 0a 00 00 00       	mov    $0xa,%eax
 80524e5:	e9 81 03 00 00       	jmp    805286b <gaa_get_option_num+0x996>
 80524ea:	8b 45 08             	mov    0x8(%ebp),%eax
 80524ed:	89 44 24 04          	mov    %eax,0x4(%esp)
 80524f1:	c7 04 24 f1 5d 05 08 	movl   $0x8055df1,(%esp)
 80524f8:	e8 43 6f ff ff       	call   8049440 <strcmp@plt>
 80524fd:	85 c0                	test   %eax,%eax
 80524ff:	75 14                	jne    8052515 <gaa_get_option_num+0x640>
 8052501:	c7 05 e4 16 08 08 f1 	movl   $0x8055df1,0x80816e4
 8052508:	5d 05 08 
 805250b:	b8 0b 00 00 00       	mov    $0xb,%eax
 8052510:	e9 56 03 00 00       	jmp    805286b <gaa_get_option_num+0x996>
 8052515:	8b 45 08             	mov    0x8(%ebp),%eax
 8052518:	89 44 24 04          	mov    %eax,0x4(%esp)
 805251c:	c7 04 24 c4 5d 05 08 	movl   $0x8055dc4,(%esp)
 8052523:	e8 18 6f ff ff       	call   8049440 <strcmp@plt>
 8052528:	85 c0                	test   %eax,%eax
 805252a:	75 14                	jne    8052540 <gaa_get_option_num+0x66b>
 805252c:	c7 05 e4 16 08 08 c4 	movl   $0x8055dc4,0x80816e4
 8052533:	5d 05 08 
 8052536:	b8 0c 00 00 00       	mov    $0xc,%eax
 805253b:	e9 2b 03 00 00       	jmp    805286b <gaa_get_option_num+0x996>
 8052540:	8b 45 08             	mov    0x8(%ebp),%eax
 8052543:	89 44 24 04          	mov    %eax,0x4(%esp)
 8052547:	c7 04 24 92 5d 05 08 	movl   $0x8055d92,(%esp)
 805254e:	e8 ed 6e ff ff       	call   8049440 <strcmp@plt>
 8052553:	85 c0                	test   %eax,%eax
 8052555:	75 14                	jne    805256b <gaa_get_option_num+0x696>
 8052557:	c7 05 e4 16 08 08 92 	movl   $0x8055d92,0x80816e4
 805255e:	5d 05 08 
 8052561:	b8 0d 00 00 00       	mov    $0xd,%eax
 8052566:	e9 00 03 00 00       	jmp    805286b <gaa_get_option_num+0x996>
 805256b:	8b 45 08             	mov    0x8(%ebp),%eax
 805256e:	89 44 24 04          	mov    %eax,0x4(%esp)
 8052572:	c7 04 24 55 5d 05 08 	movl   $0x8055d55,(%esp)
 8052579:	e8 c2 6e ff ff       	call   8049440 <strcmp@plt>
 805257e:	85 c0                	test   %eax,%eax
 8052580:	75 14                	jne    8052596 <gaa_get_option_num+0x6c1>
 8052582:	c7 05 e4 16 08 08 55 	movl   $0x8055d55,0x80816e4
 8052589:	5d 05 08 
 805258c:	b8 0e 00 00 00       	mov    $0xe,%eax
 8052591:	e9 d5 02 00 00       	jmp    805286b <gaa_get_option_num+0x996>
 8052596:	8b 45 08             	mov    0x8(%ebp),%eax
 8052599:	89 44 24 04          	mov    %eax,0x4(%esp)
 805259d:	c7 04 24 30 5d 05 08 	movl   $0x8055d30,(%esp)
 80525a4:	e8 97 6e ff ff       	call   8049440 <strcmp@plt>
 80525a9:	85 c0                	test   %eax,%eax
 80525ab:	75 14                	jne    80525c1 <gaa_get_option_num+0x6ec>
 80525ad:	c7 05 e4 16 08 08 30 	movl   $0x8055d30,0x80816e4
 80525b4:	5d 05 08 
 80525b7:	b8 0f 00 00 00       	mov    $0xf,%eax
 80525bc:	e9 aa 02 00 00       	jmp    805286b <gaa_get_option_num+0x996>
 80525c1:	8b 45 08             	mov    0x8(%ebp),%eax
 80525c4:	89 44 24 04          	mov    %eax,0x4(%esp)
 80525c8:	c7 04 24 f9 5c 05 08 	movl   $0x8055cf9,(%esp)
 80525cf:	e8 6c 6e ff ff       	call   8049440 <strcmp@plt>
 80525d4:	85 c0                	test   %eax,%eax
 80525d6:	75 14                	jne    80525ec <gaa_get_option_num+0x717>
 80525d8:	c7 05 e4 16 08 08 f9 	movl   $0x8055cf9,0x80816e4
 80525df:	5c 05 08 
 80525e2:	b8 10 00 00 00       	mov    $0x10,%eax
 80525e7:	e9 7f 02 00 00       	jmp    805286b <gaa_get_option_num+0x996>
 80525ec:	8b 45 08             	mov    0x8(%ebp),%eax
 80525ef:	89 44 24 04          	mov    %eax,0x4(%esp)
 80525f3:	c7 04 24 c5 5c 05 08 	movl   $0x8055cc5,(%esp)
 80525fa:	e8 41 6e ff ff       	call   8049440 <strcmp@plt>
 80525ff:	85 c0                	test   %eax,%eax
 8052601:	75 14                	jne    8052617 <gaa_get_option_num+0x742>
 8052603:	c7 05 e4 16 08 08 c5 	movl   $0x8055cc5,0x80816e4
 805260a:	5c 05 08 
 805260d:	b8 11 00 00 00       	mov    $0x11,%eax
 8052612:	e9 54 02 00 00       	jmp    805286b <gaa_get_option_num+0x996>
 8052617:	8b 45 08             	mov    0x8(%ebp),%eax
 805261a:	89 44 24 04          	mov    %eax,0x4(%esp)
 805261e:	c7 04 24 9a 5c 05 08 	movl   $0x8055c9a,(%esp)
 8052625:	e8 16 6e ff ff       	call   8049440 <strcmp@plt>
 805262a:	85 c0                	test   %eax,%eax
 805262c:	75 14                	jne    8052642 <gaa_get_option_num+0x76d>
 805262e:	c7 05 e4 16 08 08 9a 	movl   $0x8055c9a,0x80816e4
 8052635:	5c 05 08 
 8052638:	b8 12 00 00 00       	mov    $0x12,%eax
 805263d:	e9 29 02 00 00       	jmp    805286b <gaa_get_option_num+0x996>
 8052642:	8b 45 08             	mov    0x8(%ebp),%eax
 8052645:	89 44 24 04          	mov    %eax,0x4(%esp)
 8052649:	c7 04 24 84 5c 05 08 	movl   $0x8055c84,(%esp)
 8052650:	e8 eb 6d ff ff       	call   8049440 <strcmp@plt>
 8052655:	85 c0                	test   %eax,%eax
 8052657:	75 14                	jne    805266d <gaa_get_option_num+0x798>
 8052659:	c7 05 e4 16 08 08 84 	movl   $0x8055c84,0x80816e4
 8052660:	5c 05 08 
 8052663:	b8 13 00 00 00       	mov    $0x13,%eax
 8052668:	e9 fe 01 00 00       	jmp    805286b <gaa_get_option_num+0x996>
 805266d:	8b 45 08             	mov    0x8(%ebp),%eax
 8052670:	89 44 24 04          	mov    %eax,0x4(%esp)
 8052674:	c7 04 24 66 5c 05 08 	movl   $0x8055c66,(%esp)
 805267b:	e8 c0 6d ff ff       	call   8049440 <strcmp@plt>
 8052680:	85 c0                	test   %eax,%eax
 8052682:	75 14                	jne    8052698 <gaa_get_option_num+0x7c3>
 8052684:	c7 05 e4 16 08 08 66 	movl   $0x8055c66,0x80816e4
 805268b:	5c 05 08 
 805268e:	b8 14 00 00 00       	mov    $0x14,%eax
 8052693:	e9 d3 01 00 00       	jmp    805286b <gaa_get_option_num+0x996>
 8052698:	8b 45 08             	mov    0x8(%ebp),%eax
 805269b:	89 44 24 04          	mov    %eax,0x4(%esp)
 805269f:	c7 04 24 40 5c 05 08 	movl   $0x8055c40,(%esp)
 80526a6:	e8 95 6d ff ff       	call   8049440 <strcmp@plt>
 80526ab:	85 c0                	test   %eax,%eax
 80526ad:	75 14                	jne    80526c3 <gaa_get_option_num+0x7ee>
 80526af:	c7 05 e4 16 08 08 40 	movl   $0x8055c40,0x80816e4
 80526b6:	5c 05 08 
 80526b9:	b8 15 00 00 00       	mov    $0x15,%eax
 80526be:	e9 a8 01 00 00       	jmp    805286b <gaa_get_option_num+0x996>
 80526c3:	8b 45 08             	mov    0x8(%ebp),%eax
 80526c6:	89 44 24 04          	mov    %eax,0x4(%esp)
 80526ca:	c7 04 24 06 5c 05 08 	movl   $0x8055c06,(%esp)
 80526d1:	e8 6a 6d ff ff       	call   8049440 <strcmp@plt>
 80526d6:	85 c0                	test   %eax,%eax
 80526d8:	75 14                	jne    80526ee <gaa_get_option_num+0x819>
 80526da:	c7 05 e4 16 08 08 06 	movl   $0x8055c06,0x80816e4
 80526e1:	5c 05 08 
 80526e4:	b8 16 00 00 00       	mov    $0x16,%eax
 80526e9:	e9 7d 01 00 00       	jmp    805286b <gaa_get_option_num+0x996>
 80526ee:	8b 45 08             	mov    0x8(%ebp),%eax
 80526f1:	89 44 24 04          	mov    %eax,0x4(%esp)
 80526f5:	c7 04 24 f2 5b 05 08 	movl   $0x8055bf2,(%esp)
 80526fc:	e8 3f 6d ff ff       	call   8049440 <strcmp@plt>
 8052701:	85 c0                	test   %eax,%eax
 8052703:	75 14                	jne    8052719 <gaa_get_option_num+0x844>
 8052705:	c7 05 e4 16 08 08 f2 	movl   $0x8055bf2,0x80816e4
 805270c:	5b 05 08 
 805270f:	b8 17 00 00 00       	mov    $0x17,%eax
 8052714:	e9 52 01 00 00       	jmp    805286b <gaa_get_option_num+0x996>
 8052719:	8b 45 08             	mov    0x8(%ebp),%eax
 805271c:	89 44 24 04          	mov    %eax,0x4(%esp)
 8052720:	c7 04 24 db 5b 05 08 	movl   $0x8055bdb,(%esp)
 8052727:	e8 14 6d ff ff       	call   8049440 <strcmp@plt>
 805272c:	85 c0                	test   %eax,%eax
 805272e:	75 14                	jne    8052744 <gaa_get_option_num+0x86f>
 8052730:	c7 05 e4 16 08 08 db 	movl   $0x8055bdb,0x80816e4
 8052737:	5b 05 08 
 805273a:	b8 18 00 00 00       	mov    $0x18,%eax
 805273f:	e9 27 01 00 00       	jmp    805286b <gaa_get_option_num+0x996>
 8052744:	8b 45 08             	mov    0x8(%ebp),%eax
 8052747:	89 44 24 04          	mov    %eax,0x4(%esp)
 805274b:	c7 04 24 c2 5b 05 08 	movl   $0x8055bc2,(%esp)
 8052752:	e8 e9 6c ff ff       	call   8049440 <strcmp@plt>
 8052757:	85 c0                	test   %eax,%eax
 8052759:	75 14                	jne    805276f <gaa_get_option_num+0x89a>
 805275b:	c7 05 e4 16 08 08 c2 	movl   $0x8055bc2,0x80816e4
 8052762:	5b 05 08 
 8052765:	b8 19 00 00 00       	mov    $0x19,%eax
 805276a:	e9 fc 00 00 00       	jmp    805286b <gaa_get_option_num+0x996>
 805276f:	8b 45 08             	mov    0x8(%ebp),%eax
 8052772:	89 44 24 04          	mov    %eax,0x4(%esp)
 8052776:	c7 04 24 bd 5b 05 08 	movl   $0x8055bbd,(%esp)
 805277d:	e8 be 6c ff ff       	call   8049440 <strcmp@plt>
 8052782:	85 c0                	test   %eax,%eax
 8052784:	75 14                	jne    805279a <gaa_get_option_num+0x8c5>
 8052786:	c7 05 e4 16 08 08 bd 	movl   $0x8055bbd,0x80816e4
 805278d:	5b 05 08 
 8052790:	b8 1a 00 00 00       	mov    $0x1a,%eax
 8052795:	e9 d1 00 00 00       	jmp    805286b <gaa_get_option_num+0x996>
 805279a:	8b 45 08             	mov    0x8(%ebp),%eax
 805279d:	89 44 24 04          	mov    %eax,0x4(%esp)
 80527a1:	c7 04 24 9c 5b 05 08 	movl   $0x8055b9c,(%esp)
 80527a8:	e8 93 6c ff ff       	call   8049440 <strcmp@plt>
 80527ad:	85 c0                	test   %eax,%eax
 80527af:	75 14                	jne    80527c5 <gaa_get_option_num+0x8f0>
 80527b1:	c7 05 e4 16 08 08 9c 	movl   $0x8055b9c,0x80816e4
 80527b8:	5b 05 08 
 80527bb:	b8 1b 00 00 00       	mov    $0x1b,%eax
 80527c0:	e9 a6 00 00 00       	jmp    805286b <gaa_get_option_num+0x996>
 80527c5:	8b 45 08             	mov    0x8(%ebp),%eax
 80527c8:	89 44 24 04          	mov    %eax,0x4(%esp)
 80527cc:	c7 04 24 5b 5b 05 08 	movl   $0x8055b5b,(%esp)
 80527d3:	e8 68 6c ff ff       	call   8049440 <strcmp@plt>
 80527d8:	85 c0                	test   %eax,%eax
 80527da:	75 11                	jne    80527ed <gaa_get_option_num+0x918>
 80527dc:	c7 05 e4 16 08 08 5b 	movl   $0x8055b5b,0x80816e4
 80527e3:	5b 05 08 
 80527e6:	b8 1c 00 00 00       	mov    $0x1c,%eax
 80527eb:	eb 7e                	jmp    805286b <gaa_get_option_num+0x996>
 80527ed:	8b 45 08             	mov    0x8(%ebp),%eax
 80527f0:	89 44 24 04          	mov    %eax,0x4(%esp)
 80527f4:	c7 04 24 20 5b 05 08 	movl   $0x8055b20,(%esp)
 80527fb:	e8 40 6c ff ff       	call   8049440 <strcmp@plt>
 8052800:	85 c0                	test   %eax,%eax
 8052802:	75 11                	jne    8052815 <gaa_get_option_num+0x940>
 8052804:	c7 05 e4 16 08 08 20 	movl   $0x8055b20,0x80816e4
 805280b:	5b 05 08 
 805280e:	b8 1d 00 00 00       	mov    $0x1d,%eax
 8052813:	eb 56                	jmp    805286b <gaa_get_option_num+0x996>
 8052815:	8b 45 08             	mov    0x8(%ebp),%eax
 8052818:	89 44 24 04          	mov    %eax,0x4(%esp)
 805281c:	c7 04 24 01 5b 05 08 	movl   $0x8055b01,(%esp)
 8052823:	e8 18 6c ff ff       	call   8049440 <strcmp@plt>
 8052828:	85 c0                	test   %eax,%eax
 805282a:	75 11                	jne    805283d <gaa_get_option_num+0x968>
 805282c:	c7 05 e4 16 08 08 01 	movl   $0x8055b01,0x80816e4
 8052833:	5b 05 08 
 8052836:	b8 1e 00 00 00       	mov    $0x1e,%eax
 805283b:	eb 2e                	jmp    805286b <gaa_get_option_num+0x996>
 805283d:	8b 45 08             	mov    0x8(%ebp),%eax
 8052840:	89 44 24 04          	mov    %eax,0x4(%esp)
 8052844:	c7 04 24 d1 5a 05 08 	movl   $0x8055ad1,(%esp)
 805284b:	e8 f0 6b ff ff       	call   8049440 <strcmp@plt>
 8052850:	85 c0                	test   %eax,%eax
 8052852:	75 11                	jne    8052865 <gaa_get_option_num+0x990>
 8052854:	c7 05 e4 16 08 08 d1 	movl   $0x8055ad1,0x80816e4
 805285b:	5a 05 08 
 805285e:	b8 1f 00 00 00       	mov    $0x1f,%eax
 8052863:	eb 06                	jmp    805286b <gaa_get_option_num+0x996>
 8052865:	90                   	nop
 8052866:	b8 00 00 00 00       	mov    $0x0,%eax
 805286b:	c9                   	leave  
 805286c:	c3                   	ret    

0805286d <gaa_try>:
 805286d:	55                   	push   %ebp
 805286e:	89 e5                	mov    %esp,%ebp
 8052870:	53                   	push   %ebx
 8052871:	83 ec 24             	sub    $0x24,%esp
 8052874:	c7 45 ec 00 00 00 00 	movl   $0x0,-0x14(%ebp)
 805287b:	8b 55 08             	mov    0x8(%ebp),%edx
 805287e:	8b 45 14             	mov    0x14(%ebp),%eax
 8052881:	01 d0                	add    %edx,%eax
 8052883:	c6 00 01             	movb   $0x1,(%eax)
 8052886:	8b 45 0c             	mov    0xc(%ebp),%eax
 8052889:	89 45 e8             	mov    %eax,-0x18(%ebp)
 805288c:	eb 04                	jmp    8052892 <gaa_try+0x25>
 805288e:	83 45 e8 01          	addl   $0x1,-0x18(%ebp)
 8052892:	a1 e0 16 08 08       	mov    0x80816e0,%eax
 8052897:	39 45 e8             	cmp    %eax,-0x18(%ebp)
 805289a:	74 1b                	je     80528b7 <gaa_try+0x4a>
 805289c:	a1 ec 16 08 08       	mov    0x80816ec,%eax
 80528a1:	8b 55 e8             	mov    -0x18(%ebp),%edx
 80528a4:	c1 e2 02             	shl    $0x2,%edx
 80528a7:	01 d0                	add    %edx,%eax
 80528a9:	8b 00                	mov    (%eax),%eax
 80528ab:	89 04 24             	mov    %eax,(%esp)
 80528ae:	e8 b7 f5 ff ff       	call   8051e6a <gaa_is_an_argument>
 80528b3:	85 c0                	test   %eax,%eax
 80528b5:	74 d7                	je     805288e <gaa_try+0x21>
 80528b7:	83 7d 08 00          	cmpl   $0x0,0x8(%ebp)
 80528bb:	75 0f                	jne    80528cc <gaa_try+0x5f>
 80528bd:	c7 45 0c 01 00 00 00 	movl   $0x1,0xc(%ebp)
 80528c4:	a1 e0 16 08 08       	mov    0x80816e0,%eax
 80528c9:	89 45 e8             	mov    %eax,-0x18(%ebp)
 80528cc:	83 7d 08 1f          	cmpl   $0x1f,0x8(%ebp)
 80528d0:	0f 87 2b 0a 00 00    	ja     8053301 <gaa_try+0xa94>
 80528d6:	8b 45 08             	mov    0x8(%ebp),%eax
 80528d9:	c1 e0 02             	shl    $0x2,%eax
 80528dc:	05 ac 60 05 08       	add    $0x80560ac,%eax
 80528e1:	8b 00                	mov    (%eax),%eax
 80528e3:	ff e0                	jmp    *%eax
 80528e5:	c7 45 ec 00 00 00 00 	movl   $0x0,-0x14(%ebp)
 80528ec:	e8 f7 83 ff ff       	call   804ace8 <mcrypt_license>
 80528f1:	c7 04 24 00 00 00 00 	movl   $0x0,(%esp)
 80528f8:	e8 83 6e ff ff       	call   8049780 <exit@plt>
 80528fd:	c7 45 ec 00 00 00 00 	movl   $0x0,-0x14(%ebp)
 8052904:	e8 9d 84 ff ff       	call   804ada6 <mcrypt_version>
 8052909:	c7 04 24 00 00 00 00 	movl   $0x0,(%esp)
 8052910:	e8 6b 6e ff ff       	call   8049780 <exit@plt>
 8052915:	c7 45 ec 00 00 00 00 	movl   $0x0,-0x14(%ebp)
 805291c:	e8 b1 82 ff ff       	call   804abd2 <usage>
 8052921:	c7 04 24 00 00 00 00 	movl   $0x0,(%esp)
 8052928:	e8 53 6e ff ff       	call   8049780 <exit@plt>
 805292d:	c7 45 ec 00 00 00 00 	movl   $0x0,-0x14(%ebp)
 8052934:	e8 05 bd ff ff       	call   804e63e <print_hashlist>
 8052939:	c7 04 24 00 00 00 00 	movl   $0x0,(%esp)
 8052940:	e8 3b 6e ff ff       	call   8049780 <exit@plt>
 8052945:	c7 45 ec 00 00 00 00 	movl   $0x0,-0x14(%ebp)
 805294c:	e8 50 bc ff ff       	call   804e5a1 <print_keylist>
 8052951:	c7 04 24 00 00 00 00 	movl   $0x0,(%esp)
 8052958:	e8 23 6e ff ff       	call   8049780 <exit@plt>
 805295d:	c7 45 ec 00 00 00 00 	movl   $0x0,-0x14(%ebp)
 8052964:	e8 3f ba ff ff       	call   804e3a8 <print_list>
 8052969:	c7 04 24 00 00 00 00 	movl   $0x0,(%esp)
 8052970:	e8 0b 6e ff ff       	call   8049780 <exit@plt>
 8052975:	c7 45 ec 00 00 00 00 	movl   $0x0,-0x14(%ebp)
 805297c:	83 7d ec 00          	cmpl   $0x0,-0x14(%ebp)
 8052980:	75 32                	jne    80529b4 <gaa_try+0x147>
 8052982:	eb 04                	jmp    8052988 <gaa_try+0x11b>
 8052984:	83 45 0c 01          	addl   $0x1,0xc(%ebp)
 8052988:	8b 45 e8             	mov    -0x18(%ebp),%eax
 805298b:	3b 45 0c             	cmp    0xc(%ebp),%eax
 805298e:	74 12                	je     80529a2 <gaa_try+0x135>
 8052990:	8b 15 e8 16 08 08    	mov    0x80816e8,%edx
 8052996:	8b 45 0c             	mov    0xc(%ebp),%eax
 8052999:	01 d0                	add    %edx,%eax
 805299b:	0f b6 00             	movzbl (%eax),%eax
 805299e:	3c 01                	cmp    $0x1,%al
 80529a0:	74 e2                	je     8052984 <gaa_try+0x117>
 80529a2:	8b 45 e8             	mov    -0x18(%ebp),%eax
 80529a5:	3b 45 0c             	cmp    0xc(%ebp),%eax
 80529a8:	75 0a                	jne    80529b4 <gaa_try+0x147>
 80529aa:	b8 01 00 00 00       	mov    $0x1,%eax
 80529af:	e9 53 09 00 00       	jmp    8053307 <gaa_try+0xa9a>
 80529b4:	83 7d ec 00          	cmpl   $0x0,-0x14(%ebp)
 80529b8:	75 4f                	jne    8052a09 <gaa_try+0x19c>
 80529ba:	a1 ec 16 08 08       	mov    0x80816ec,%eax
 80529bf:	8b 55 0c             	mov    0xc(%ebp),%edx
 80529c2:	c1 e2 02             	shl    $0x2,%edx
 80529c5:	01 d0                	add    %edx,%eax
 80529c7:	8b 00                	mov    (%eax),%eax
 80529c9:	89 04 24             	mov    %eax,(%esp)
 80529cc:	e8 24 f4 ff ff       	call   8051df5 <gaa_getstr>
 80529d1:	89 45 f0             	mov    %eax,-0x10(%ebp)
 80529d4:	8b 15 e8 16 08 08    	mov    0x80816e8,%edx
 80529da:	8b 45 0c             	mov    0xc(%ebp),%eax
 80529dd:	01 d0                	add    %edx,%eax
 80529df:	c6 00 01             	movb   $0x1,(%eax)
 80529e2:	a1 94 15 06 08       	mov    0x8061594,%eax
 80529e7:	83 f8 01             	cmp    $0x1,%eax
 80529ea:	75 14                	jne    8052a00 <gaa_try+0x193>
 80529ec:	c7 05 94 15 06 08 00 	movl   $0x0,0x8061594
 80529f3:	00 00 00 
 80529f6:	b8 02 00 00 00       	mov    $0x2,%eax
 80529fb:	e9 07 09 00 00       	jmp    8053307 <gaa_try+0xa9a>
 8052a00:	c7 45 f4 01 00 00 00 	movl   $0x1,-0xc(%ebp)
 8052a07:	eb 07                	jmp    8052a10 <gaa_try+0x1a3>
 8052a09:	c7 45 f4 00 00 00 00 	movl   $0x0,-0xc(%ebp)
 8052a10:	83 45 0c 01          	addl   $0x1,0xc(%ebp)
 8052a14:	8b 55 f0             	mov    -0x10(%ebp),%edx
 8052a17:	8b 45 10             	mov    0x10(%ebp),%eax
 8052a1a:	89 50 08             	mov    %edx,0x8(%eax)
 8052a1d:	b8 ff ff ff ff       	mov    $0xffffffff,%eax
 8052a22:	e9 e0 08 00 00       	jmp    8053307 <gaa_try+0xa9a>
 8052a27:	c7 45 ec 00 00 00 00 	movl   $0x0,-0x14(%ebp)
 8052a2e:	83 7d ec 00          	cmpl   $0x0,-0x14(%ebp)
 8052a32:	75 32                	jne    8052a66 <gaa_try+0x1f9>
 8052a34:	eb 04                	jmp    8052a3a <gaa_try+0x1cd>
 8052a36:	83 45 0c 01          	addl   $0x1,0xc(%ebp)
 8052a3a:	8b 45 e8             	mov    -0x18(%ebp),%eax
 8052a3d:	3b 45 0c             	cmp    0xc(%ebp),%eax
 8052a40:	74 12                	je     8052a54 <gaa_try+0x1e7>
 8052a42:	8b 15 e8 16 08 08    	mov    0x80816e8,%edx
 8052a48:	8b 45 0c             	mov    0xc(%ebp),%eax
 8052a4b:	01 d0                	add    %edx,%eax
 8052a4d:	0f b6 00             	movzbl (%eax),%eax
 8052a50:	3c 01                	cmp    $0x1,%al
 8052a52:	74 e2                	je     8052a36 <gaa_try+0x1c9>
 8052a54:	8b 45 e8             	mov    -0x18(%ebp),%eax
 8052a57:	3b 45 0c             	cmp    0xc(%ebp),%eax
 8052a5a:	75 0a                	jne    8052a66 <gaa_try+0x1f9>
 8052a5c:	b8 01 00 00 00       	mov    $0x1,%eax
 8052a61:	e9 a1 08 00 00       	jmp    8053307 <gaa_try+0xa9a>
 8052a66:	83 7d ec 00          	cmpl   $0x0,-0x14(%ebp)
 8052a6a:	75 4f                	jne    8052abb <gaa_try+0x24e>
 8052a6c:	a1 ec 16 08 08       	mov    0x80816ec,%eax
 8052a71:	8b 55 0c             	mov    0xc(%ebp),%edx
 8052a74:	c1 e2 02             	shl    $0x2,%edx
 8052a77:	01 d0                	add    %edx,%eax
 8052a79:	8b 00                	mov    (%eax),%eax
 8052a7b:	89 04 24             	mov    %eax,(%esp)
 8052a7e:	e8 72 f3 ff ff       	call   8051df5 <gaa_getstr>
 8052a83:	89 45 f0             	mov    %eax,-0x10(%ebp)
 8052a86:	8b 15 e8 16 08 08    	mov    0x80816e8,%edx
 8052a8c:	8b 45 0c             	mov    0xc(%ebp),%eax
 8052a8f:	01 d0                	add    %edx,%eax
 8052a91:	c6 00 01             	movb   $0x1,(%eax)
 8052a94:	a1 94 15 06 08       	mov    0x8061594,%eax
 8052a99:	83 f8 01             	cmp    $0x1,%eax
 8052a9c:	75 14                	jne    8052ab2 <gaa_try+0x245>
 8052a9e:	c7 05 94 15 06 08 00 	movl   $0x0,0x8061594
 8052aa5:	00 00 00 
 8052aa8:	b8 02 00 00 00       	mov    $0x2,%eax
 8052aad:	e9 55 08 00 00       	jmp    8053307 <gaa_try+0xa9a>
 8052ab2:	c7 45 f4 01 00 00 00 	movl   $0x1,-0xc(%ebp)
 8052ab9:	eb 07                	jmp    8052ac2 <gaa_try+0x255>
 8052abb:	c7 45 f4 00 00 00 00 	movl   $0x0,-0xc(%ebp)
 8052ac2:	83 45 0c 01          	addl   $0x1,0xc(%ebp)
 8052ac6:	8b 55 f0             	mov    -0x10(%ebp),%edx
 8052ac9:	8b 45 10             	mov    0x10(%ebp),%eax
 8052acc:	89 50 0c             	mov    %edx,0xc(%eax)
 8052acf:	b8 ff ff ff ff       	mov    $0xffffffff,%eax
 8052ad4:	e9 2e 08 00 00       	jmp    8053307 <gaa_try+0xa9a>
 8052ad9:	c7 45 ec 00 00 00 00 	movl   $0x0,-0x14(%ebp)
 8052ae0:	83 7d ec 00          	cmpl   $0x0,-0x14(%ebp)
 8052ae4:	0f 85 aa 00 00 00    	jne    8052b94 <gaa_try+0x327>
 8052aea:	c7 45 f4 00 00 00 00 	movl   $0x0,-0xc(%ebp)
 8052af1:	8b 45 0c             	mov    0xc(%ebp),%eax
 8052af4:	8b 55 e8             	mov    -0x18(%ebp),%edx
 8052af7:	29 c2                	sub    %eax,%edx
 8052af9:	89 d0                	mov    %edx,%eax
 8052afb:	c1 e0 02             	shl    $0x2,%eax
 8052afe:	89 04 24             	mov    %eax,(%esp)
 8052b01:	e8 7e c6 ff ff       	call   804f184 <_mcrypt_malloc>
 8052b06:	89 45 f0             	mov    %eax,-0x10(%ebp)
 8052b09:	eb 70                	jmp    8052b7b <gaa_try+0x30e>
 8052b0b:	8b 15 e8 16 08 08    	mov    0x80816e8,%edx
 8052b11:	8b 45 0c             	mov    0xc(%ebp),%eax
 8052b14:	01 d0                	add    %edx,%eax
 8052b16:	0f b6 00             	movzbl (%eax),%eax
 8052b19:	84 c0                	test   %al,%al
 8052b1b:	75 5a                	jne    8052b77 <gaa_try+0x30a>
 8052b1d:	8b 45 f0             	mov    -0x10(%ebp),%eax
 8052b20:	8b 55 f4             	mov    -0xc(%ebp),%edx
 8052b23:	c1 e2 02             	shl    $0x2,%edx
 8052b26:	8d 1c 10             	lea    (%eax,%edx,1),%ebx
 8052b29:	a1 ec 16 08 08       	mov    0x80816ec,%eax
 8052b2e:	8b 55 0c             	mov    0xc(%ebp),%edx
 8052b31:	c1 e2 02             	shl    $0x2,%edx
 8052b34:	01 d0                	add    %edx,%eax
 8052b36:	8b 00                	mov    (%eax),%eax
 8052b38:	89 04 24             	mov    %eax,(%esp)
 8052b3b:	e8 b5 f2 ff ff       	call   8051df5 <gaa_getstr>
 8052b40:	89 03                	mov    %eax,(%ebx)
 8052b42:	8b 15 e8 16 08 08    	mov    0x80816e8,%edx
 8052b48:	8b 45 0c             	mov    0xc(%ebp),%eax
 8052b4b:	01 d0                	add    %edx,%eax
 8052b4d:	c6 00 01             	movb   $0x1,(%eax)
 8052b50:	a1 94 15 06 08       	mov    0x8061594,%eax
 8052b55:	83 f8 01             	cmp    $0x1,%eax
 8052b58:	75 14                	jne    8052b6e <gaa_try+0x301>
 8052b5a:	c7 05 94 15 06 08 00 	movl   $0x0,0x8061594
 8052b61:	00 00 00 
 8052b64:	b8 02 00 00 00       	mov    $0x2,%eax
 8052b69:	e9 99 07 00 00       	jmp    8053307 <gaa_try+0xa9a>
 8052b6e:	8b 45 f4             	mov    -0xc(%ebp),%eax
 8052b71:	83 c0 01             	add    $0x1,%eax
 8052b74:	89 45 f4             	mov    %eax,-0xc(%ebp)
 8052b77:	83 45 0c 01          	addl   $0x1,0xc(%ebp)
 8052b7b:	8b 45 0c             	mov    0xc(%ebp),%eax
 8052b7e:	3b 45 e8             	cmp    -0x18(%ebp),%eax
 8052b81:	7c 88                	jl     8052b0b <gaa_try+0x29e>
 8052b83:	8b 45 f4             	mov    -0xc(%ebp),%eax
 8052b86:	85 c0                	test   %eax,%eax
 8052b88:	75 0a                	jne    8052b94 <gaa_try+0x327>
 8052b8a:	b8 01 00 00 00       	mov    $0x1,%eax
 8052b8f:	e9 73 07 00 00       	jmp    8053307 <gaa_try+0xa9a>
 8052b94:	8b 55 f0             	mov    -0x10(%ebp),%edx
 8052b97:	8b 45 10             	mov    0x10(%ebp),%eax
 8052b9a:	89 50 10             	mov    %edx,0x10(%eax)
 8052b9d:	8b 55 f4             	mov    -0xc(%ebp),%edx
 8052ba0:	8b 45 10             	mov    0x10(%ebp),%eax
 8052ba3:	89 50 14             	mov    %edx,0x14(%eax)
 8052ba6:	b8 ff ff ff ff       	mov    $0xffffffff,%eax
 8052bab:	e9 57 07 00 00       	jmp    8053307 <gaa_try+0xa9a>
 8052bb0:	c7 45 ec 00 00 00 00 	movl   $0x0,-0x14(%ebp)
 8052bb7:	83 7d ec 00          	cmpl   $0x0,-0x14(%ebp)
 8052bbb:	75 32                	jne    8052bef <gaa_try+0x382>
 8052bbd:	eb 04                	jmp    8052bc3 <gaa_try+0x356>
 8052bbf:	83 45 0c 01          	addl   $0x1,0xc(%ebp)
 8052bc3:	8b 45 e8             	mov    -0x18(%ebp),%eax
 8052bc6:	3b 45 0c             	cmp    0xc(%ebp),%eax
 8052bc9:	74 12                	je     8052bdd <gaa_try+0x370>
 8052bcb:	8b 15 e8 16 08 08    	mov    0x80816e8,%edx
 8052bd1:	8b 45 0c             	mov    0xc(%ebp),%eax
 8052bd4:	01 d0                	add    %edx,%eax
 8052bd6:	0f b6 00             	movzbl (%eax),%eax
 8052bd9:	3c 01                	cmp    $0x1,%al
 8052bdb:	74 e2                	je     8052bbf <gaa_try+0x352>
 8052bdd:	8b 45 e8             	mov    -0x18(%ebp),%eax
 8052be0:	3b 45 0c             	cmp    0xc(%ebp),%eax
 8052be3:	75 0a                	jne    8052bef <gaa_try+0x382>
 8052be5:	b8 01 00 00 00       	mov    $0x1,%eax
 8052bea:	e9 18 07 00 00       	jmp    8053307 <gaa_try+0xa9a>
 8052bef:	83 7d ec 00          	cmpl   $0x0,-0x14(%ebp)
 8052bf3:	75 4f                	jne    8052c44 <gaa_try+0x3d7>
 8052bf5:	a1 ec 16 08 08       	mov    0x80816ec,%eax
 8052bfa:	8b 55 0c             	mov    0xc(%ebp),%edx
 8052bfd:	c1 e2 02             	shl    $0x2,%edx
 8052c00:	01 d0                	add    %edx,%eax
 8052c02:	8b 00                	mov    (%eax),%eax
 8052c04:	89 04 24             	mov    %eax,(%esp)
 8052c07:	e8 e9 f1 ff ff       	call   8051df5 <gaa_getstr>
 8052c0c:	89 45 f0             	mov    %eax,-0x10(%ebp)
 8052c0f:	8b 15 e8 16 08 08    	mov    0x80816e8,%edx
 8052c15:	8b 45 0c             	mov    0xc(%ebp),%eax
 8052c18:	01 d0                	add    %edx,%eax
 8052c1a:	c6 00 01             	movb   $0x1,(%eax)
 8052c1d:	a1 94 15 06 08       	mov    0x8061594,%eax
 8052c22:	83 f8 01             	cmp    $0x1,%eax
 8052c25:	75 14                	jne    8052c3b <gaa_try+0x3ce>
 8052c27:	c7 05 94 15 06 08 00 	movl   $0x0,0x8061594
 8052c2e:	00 00 00 
 8052c31:	b8 02 00 00 00       	mov    $0x2,%eax
 8052c36:	e9 cc 06 00 00       	jmp    8053307 <gaa_try+0xa9a>
 8052c3b:	c7 45 f4 01 00 00 00 	movl   $0x1,-0xc(%ebp)
 8052c42:	eb 07                	jmp    8052c4b <gaa_try+0x3de>
 8052c44:	c7 45 f4 00 00 00 00 	movl   $0x0,-0xc(%ebp)
 8052c4b:	83 45 0c 01          	addl   $0x1,0xc(%ebp)
 8052c4f:	8b 55 f0             	mov    -0x10(%ebp),%edx
 8052c52:	8b 45 10             	mov    0x10(%ebp),%eax
 8052c55:	89 50 18             	mov    %edx,0x18(%eax)
 8052c58:	b8 ff ff ff ff       	mov    $0xffffffff,%eax
 8052c5d:	e9 a5 06 00 00       	jmp    8053307 <gaa_try+0xa9a>
 8052c62:	c7 45 ec 00 00 00 00 	movl   $0x0,-0x14(%ebp)
 8052c69:	83 7d ec 00          	cmpl   $0x0,-0x14(%ebp)
 8052c6d:	75 32                	jne    8052ca1 <gaa_try+0x434>
 8052c6f:	eb 04                	jmp    8052c75 <gaa_try+0x408>
 8052c71:	83 45 0c 01          	addl   $0x1,0xc(%ebp)
 8052c75:	8b 45 e8             	mov    -0x18(%ebp),%eax
 8052c78:	3b 45 0c             	cmp    0xc(%ebp),%eax
 8052c7b:	74 12                	je     8052c8f <gaa_try+0x422>
 8052c7d:	8b 15 e8 16 08 08    	mov    0x80816e8,%edx
 8052c83:	8b 45 0c             	mov    0xc(%ebp),%eax
 8052c86:	01 d0                	add    %edx,%eax
 8052c88:	0f b6 00             	movzbl (%eax),%eax
 8052c8b:	3c 01                	cmp    $0x1,%al
 8052c8d:	74 e2                	je     8052c71 <gaa_try+0x404>
 8052c8f:	8b 45 e8             	mov    -0x18(%ebp),%eax
 8052c92:	3b 45 0c             	cmp    0xc(%ebp),%eax
 8052c95:	75 0a                	jne    8052ca1 <gaa_try+0x434>
 8052c97:	b8 01 00 00 00       	mov    $0x1,%eax
 8052c9c:	e9 66 06 00 00       	jmp    8053307 <gaa_try+0xa9a>
 8052ca1:	83 7d ec 00          	cmpl   $0x0,-0x14(%ebp)
 8052ca5:	75 4f                	jne    8052cf6 <gaa_try+0x489>
 8052ca7:	a1 ec 16 08 08       	mov    0x80816ec,%eax
 8052cac:	8b 55 0c             	mov    0xc(%ebp),%edx
 8052caf:	c1 e2 02             	shl    $0x2,%edx
 8052cb2:	01 d0                	add    %edx,%eax
 8052cb4:	8b 00                	mov    (%eax),%eax
 8052cb6:	89 04 24             	mov    %eax,(%esp)
 8052cb9:	e8 37 f1 ff ff       	call   8051df5 <gaa_getstr>
 8052cbe:	89 45 f0             	mov    %eax,-0x10(%ebp)
 8052cc1:	8b 15 e8 16 08 08    	mov    0x80816e8,%edx
 8052cc7:	8b 45 0c             	mov    0xc(%ebp),%eax
 8052cca:	01 d0                	add    %edx,%eax
 8052ccc:	c6 00 01             	movb   $0x1,(%eax)
 8052ccf:	a1 94 15 06 08       	mov    0x8061594,%eax
 8052cd4:	83 f8 01             	cmp    $0x1,%eax
 8052cd7:	75 14                	jne    8052ced <gaa_try+0x480>
 8052cd9:	c7 05 94 15 06 08 00 	movl   $0x0,0x8061594
 8052ce0:	00 00 00 
 8052ce3:	b8 02 00 00 00       	mov    $0x2,%eax
 8052ce8:	e9 1a 06 00 00       	jmp    8053307 <gaa_try+0xa9a>
 8052ced:	c7 45 f4 01 00 00 00 	movl   $0x1,-0xc(%ebp)
 8052cf4:	eb 07                	jmp    8052cfd <gaa_try+0x490>
 8052cf6:	c7 45 f4 00 00 00 00 	movl   $0x0,-0xc(%ebp)
 8052cfd:	83 45 0c 01          	addl   $0x1,0xc(%ebp)
 8052d01:	8b 45 10             	mov    0x10(%ebp),%eax
 8052d04:	c7 40 20 01 00 00 00 	movl   $0x1,0x20(%eax)
 8052d0b:	8b 45 f4             	mov    -0xc(%ebp),%eax
 8052d0e:	83 f8 01             	cmp    $0x1,%eax
 8052d11:	75 09                	jne    8052d1c <gaa_try+0x4af>
 8052d13:	8b 55 f0             	mov    -0x10(%ebp),%edx
 8052d16:	8b 45 10             	mov    0x10(%ebp),%eax
 8052d19:	89 50 1c             	mov    %edx,0x1c(%eax)
 8052d1c:	b8 ff ff ff ff       	mov    $0xffffffff,%eax
 8052d21:	e9 e1 05 00 00       	jmp    8053307 <gaa_try+0xa9a>
 8052d26:	c7 45 ec 00 00 00 00 	movl   $0x0,-0x14(%ebp)
 8052d2d:	83 7d ec 00          	cmpl   $0x0,-0x14(%ebp)
 8052d31:	75 32                	jne    8052d65 <gaa_try+0x4f8>
 8052d33:	eb 04                	jmp    8052d39 <gaa_try+0x4cc>
 8052d35:	83 45 0c 01          	addl   $0x1,0xc(%ebp)
 8052d39:	8b 45 e8             	mov    -0x18(%ebp),%eax
 8052d3c:	3b 45 0c             	cmp    0xc(%ebp),%eax
 8052d3f:	74 12                	je     8052d53 <gaa_try+0x4e6>
 8052d41:	8b 15 e8 16 08 08    	mov    0x80816e8,%edx
 8052d47:	8b 45 0c             	mov    0xc(%ebp),%eax
 8052d4a:	01 d0                	add    %edx,%eax
 8052d4c:	0f b6 00             	movzbl (%eax),%eax
 8052d4f:	3c 01                	cmp    $0x1,%al
 8052d51:	74 e2                	je     8052d35 <gaa_try+0x4c8>
 8052d53:	8b 45 e8             	mov    -0x18(%ebp),%eax
 8052d56:	3b 45 0c             	cmp    0xc(%ebp),%eax
 8052d59:	75 0a                	jne    8052d65 <gaa_try+0x4f8>
 8052d5b:	b8 01 00 00 00       	mov    $0x1,%eax
 8052d60:	e9 a2 05 00 00       	jmp    8053307 <gaa_try+0xa9a>
 8052d65:	83 7d ec 00          	cmpl   $0x0,-0x14(%ebp)
 8052d69:	75 4f                	jne    8052dba <gaa_try+0x54d>
 8052d6b:	a1 ec 16 08 08       	mov    0x80816ec,%eax
 8052d70:	8b 55 0c             	mov    0xc(%ebp),%edx
 8052d73:	c1 e2 02             	shl    $0x2,%edx
 8052d76:	01 d0                	add    %edx,%eax
 8052d78:	8b 00                	mov    (%eax),%eax
 8052d7a:	89 04 24             	mov    %eax,(%esp)
 8052d7d:	e8 73 f0 ff ff       	call   8051df5 <gaa_getstr>
 8052d82:	89 45 f0             	mov    %eax,-0x10(%ebp)
 8052d85:	8b 15 e8 16 08 08    	mov    0x80816e8,%edx
 8052d8b:	8b 45 0c             	mov    0xc(%ebp),%eax
 8052d8e:	01 d0                	add    %edx,%eax
 8052d90:	c6 00 01             	movb   $0x1,(%eax)
 8052d93:	a1 94 15 06 08       	mov    0x8061594,%eax
 8052d98:	83 f8 01             	cmp    $0x1,%eax
 8052d9b:	75 14                	jne    8052db1 <gaa_try+0x544>
 8052d9d:	c7 05 94 15 06 08 00 	movl   $0x0,0x8061594
 8052da4:	00 00 00 
 8052da7:	b8 02 00 00 00       	mov    $0x2,%eax
 8052dac:	e9 56 05 00 00       	jmp    8053307 <gaa_try+0xa9a>
 8052db1:	c7 45 f4 01 00 00 00 	movl   $0x1,-0xc(%ebp)
 8052db8:	eb 07                	jmp    8052dc1 <gaa_try+0x554>
 8052dba:	c7 45 f4 00 00 00 00 	movl   $0x0,-0xc(%ebp)
 8052dc1:	83 45 0c 01          	addl   $0x1,0xc(%ebp)
 8052dc5:	8b 55 f0             	mov    -0x10(%ebp),%edx
 8052dc8:	8b 45 10             	mov    0x10(%ebp),%eax
 8052dcb:	89 50 24             	mov    %edx,0x24(%eax)
 8052dce:	b8 ff ff ff ff       	mov    $0xffffffff,%eax
 8052dd3:	e9 2f 05 00 00       	jmp    8053307 <gaa_try+0xa9a>
 8052dd8:	c7 45 ec 00 00 00 00 	movl   $0x0,-0x14(%ebp)
 8052ddf:	8b 45 10             	mov    0x10(%ebp),%eax
 8052de2:	c7 40 28 01 00 00 00 	movl   $0x1,0x28(%eax)
 8052de9:	b8 ff ff ff ff       	mov    $0xffffffff,%eax
 8052dee:	e9 14 05 00 00       	jmp    8053307 <gaa_try+0xa9a>
 8052df3:	c7 45 ec 00 00 00 00 	movl   $0x0,-0x14(%ebp)
 8052dfa:	83 7d ec 00          	cmpl   $0x0,-0x14(%ebp)
 8052dfe:	75 32                	jne    8052e32 <gaa_try+0x5c5>
 8052e00:	eb 04                	jmp    8052e06 <gaa_try+0x599>
 8052e02:	83 45 0c 01          	addl   $0x1,0xc(%ebp)
 8052e06:	8b 45 e8             	mov    -0x18(%ebp),%eax
 8052e09:	3b 45 0c             	cmp    0xc(%ebp),%eax
 8052e0c:	74 12                	je     8052e20 <gaa_try+0x5b3>
 8052e0e:	8b 15 e8 16 08 08    	mov    0x80816e8,%edx
 8052e14:	8b 45 0c             	mov    0xc(%ebp),%eax
 8052e17:	01 d0                	add    %edx,%eax
 8052e19:	0f b6 00             	movzbl (%eax),%eax
 8052e1c:	3c 01                	cmp    $0x1,%al
 8052e1e:	74 e2                	je     8052e02 <gaa_try+0x595>
 8052e20:	8b 45 e8             	mov    -0x18(%ebp),%eax
 8052e23:	3b 45 0c             	cmp    0xc(%ebp),%eax
 8052e26:	75 0a                	jne    8052e32 <gaa_try+0x5c5>
 8052e28:	b8 01 00 00 00       	mov    $0x1,%eax
 8052e2d:	e9 d5 04 00 00       	jmp    8053307 <gaa_try+0xa9a>
 8052e32:	83 7d ec 00          	cmpl   $0x0,-0x14(%ebp)
 8052e36:	75 4f                	jne    8052e87 <gaa_try+0x61a>
 8052e38:	a1 ec 16 08 08       	mov    0x80816ec,%eax
 8052e3d:	8b 55 0c             	mov    0xc(%ebp),%edx
 8052e40:	c1 e2 02             	shl    $0x2,%edx
 8052e43:	01 d0                	add    %edx,%eax
 8052e45:	8b 00                	mov    (%eax),%eax
 8052e47:	89 04 24             	mov    %eax,(%esp)
 8052e4a:	e8 a6 ef ff ff       	call   8051df5 <gaa_getstr>
 8052e4f:	89 45 f0             	mov    %eax,-0x10(%ebp)
 8052e52:	8b 15 e8 16 08 08    	mov    0x80816e8,%edx
 8052e58:	8b 45 0c             	mov    0xc(%ebp),%eax
 8052e5b:	01 d0                	add    %edx,%eax
 8052e5d:	c6 00 01             	movb   $0x1,(%eax)
 8052e60:	a1 94 15 06 08       	mov    0x8061594,%eax
 8052e65:	83 f8 01             	cmp    $0x1,%eax
 8052e68:	75 14                	jne    8052e7e <gaa_try+0x611>
 8052e6a:	c7 05 94 15 06 08 00 	movl   $0x0,0x8061594
 8052e71:	00 00 00 
 8052e74:	b8 02 00 00 00       	mov    $0x2,%eax
 8052e79:	e9 89 04 00 00       	jmp    8053307 <gaa_try+0xa9a>
 8052e7e:	c7 45 f4 01 00 00 00 	movl   $0x1,-0xc(%ebp)
 8052e85:	eb 07                	jmp    8052e8e <gaa_try+0x621>
 8052e87:	c7 45 f4 00 00 00 00 	movl   $0x0,-0xc(%ebp)
 8052e8e:	83 45 0c 01          	addl   $0x1,0xc(%ebp)
 8052e92:	8b 55 f0             	mov    -0x10(%ebp),%edx
 8052e95:	8b 45 10             	mov    0x10(%ebp),%eax
 8052e98:	89 50 2c             	mov    %edx,0x2c(%eax)
 8052e9b:	b8 ff ff ff ff       	mov    $0xffffffff,%eax
 8052ea0:	e9 62 04 00 00       	jmp    8053307 <gaa_try+0xa9a>
 8052ea5:	c7 45 ec 00 00 00 00 	movl   $0x0,-0x14(%ebp)
 8052eac:	83 7d ec 00          	cmpl   $0x0,-0x14(%ebp)
 8052eb0:	75 32                	jne    8052ee4 <gaa_try+0x677>
 8052eb2:	eb 04                	jmp    8052eb8 <gaa_try+0x64b>
 8052eb4:	83 45 0c 01          	addl   $0x1,0xc(%ebp)
 8052eb8:	8b 45 e8             	mov    -0x18(%ebp),%eax
 8052ebb:	3b 45 0c             	cmp    0xc(%ebp),%eax
 8052ebe:	74 12                	je     8052ed2 <gaa_try+0x665>
 8052ec0:	8b 15 e8 16 08 08    	mov    0x80816e8,%edx
 8052ec6:	8b 45 0c             	mov    0xc(%ebp),%eax
 8052ec9:	01 d0                	add    %edx,%eax
 8052ecb:	0f b6 00             	movzbl (%eax),%eax
 8052ece:	3c 01                	cmp    $0x1,%al
 8052ed0:	74 e2                	je     8052eb4 <gaa_try+0x647>
 8052ed2:	8b 45 e8             	mov    -0x18(%ebp),%eax
 8052ed5:	3b 45 0c             	cmp    0xc(%ebp),%eax
 8052ed8:	75 0a                	jne    8052ee4 <gaa_try+0x677>
 8052eda:	b8 01 00 00 00       	mov    $0x1,%eax
 8052edf:	e9 23 04 00 00       	jmp    8053307 <gaa_try+0xa9a>
 8052ee4:	83 7d ec 00          	cmpl   $0x0,-0x14(%ebp)
 8052ee8:	75 4f                	jne    8052f39 <gaa_try+0x6cc>
 8052eea:	a1 ec 16 08 08       	mov    0x80816ec,%eax
 8052eef:	8b 55 0c             	mov    0xc(%ebp),%edx
 8052ef2:	c1 e2 02             	shl    $0x2,%edx
 8052ef5:	01 d0                	add    %edx,%eax
 8052ef7:	8b 00                	mov    (%eax),%eax
 8052ef9:	89 04 24             	mov    %eax,(%esp)
 8052efc:	e8 f4 ee ff ff       	call   8051df5 <gaa_getstr>
 8052f01:	89 45 f0             	mov    %eax,-0x10(%ebp)
 8052f04:	8b 15 e8 16 08 08    	mov    0x80816e8,%edx
 8052f0a:	8b 45 0c             	mov    0xc(%ebp),%eax
 8052f0d:	01 d0                	add    %edx,%eax
 8052f0f:	c6 00 01             	movb   $0x1,(%eax)
 8052f12:	a1 94 15 06 08       	mov    0x8061594,%eax
 8052f17:	83 f8 01             	cmp    $0x1,%eax
 8052f1a:	75 14                	jne    8052f30 <gaa_try+0x6c3>
 8052f1c:	c7 05 94 15 06 08 00 	movl   $0x0,0x8061594
 8052f23:	00 00 00 
 8052f26:	b8 02 00 00 00       	mov    $0x2,%eax
 8052f2b:	e9 d7 03 00 00       	jmp    8053307 <gaa_try+0xa9a>
 8052f30:	c7 45 f4 01 00 00 00 	movl   $0x1,-0xc(%ebp)
 8052f37:	eb 07                	jmp    8052f40 <gaa_try+0x6d3>
 8052f39:	c7 45 f4 00 00 00 00 	movl   $0x0,-0xc(%ebp)
 8052f40:	83 45 0c 01          	addl   $0x1,0xc(%ebp)
 8052f44:	8b 55 f0             	mov    -0x10(%ebp),%edx
 8052f47:	8b 45 10             	mov    0x10(%ebp),%eax
 8052f4a:	89 50 30             	mov    %edx,0x30(%eax)
 8052f4d:	b8 ff ff ff ff       	mov    $0xffffffff,%eax
 8052f52:	e9 b0 03 00 00       	jmp    8053307 <gaa_try+0xa9a>
 8052f57:	c7 45 ec 00 00 00 00 	movl   $0x0,-0x14(%ebp)
 8052f5e:	83 7d ec 00          	cmpl   $0x0,-0x14(%ebp)
 8052f62:	75 32                	jne    8052f96 <gaa_try+0x729>
 8052f64:	eb 04                	jmp    8052f6a <gaa_try+0x6fd>
 8052f66:	83 45 0c 01          	addl   $0x1,0xc(%ebp)
 8052f6a:	8b 45 e8             	mov    -0x18(%ebp),%eax
 8052f6d:	3b 45 0c             	cmp    0xc(%ebp),%eax
 8052f70:	74 12                	je     8052f84 <gaa_try+0x717>
 8052f72:	8b 15 e8 16 08 08    	mov    0x80816e8,%edx
 8052f78:	8b 45 0c             	mov    0xc(%ebp),%eax
 8052f7b:	01 d0                	add    %edx,%eax
 8052f7d:	0f b6 00             	movzbl (%eax),%eax
 8052f80:	3c 01                	cmp    $0x1,%al
 8052f82:	74 e2                	je     8052f66 <gaa_try+0x6f9>
 8052f84:	8b 45 e8             	mov    -0x18(%ebp),%eax
 8052f87:	3b 45 0c             	cmp    0xc(%ebp),%eax
 8052f8a:	75 0a                	jne    8052f96 <gaa_try+0x729>
 8052f8c:	b8 01 00 00 00       	mov    $0x1,%eax
 8052f91:	e9 71 03 00 00       	jmp    8053307 <gaa_try+0xa9a>
 8052f96:	83 7d ec 00          	cmpl   $0x0,-0x14(%ebp)
 8052f9a:	75 4f                	jne    8052feb <gaa_try+0x77e>
 8052f9c:	a1 ec 16 08 08       	mov    0x80816ec,%eax
 8052fa1:	8b 55 0c             	mov    0xc(%ebp),%edx
 8052fa4:	c1 e2 02             	shl    $0x2,%edx
 8052fa7:	01 d0                	add    %edx,%eax
 8052fa9:	8b 00                	mov    (%eax),%eax
 8052fab:	89 04 24             	mov    %eax,(%esp)
 8052fae:	e8 42 ee ff ff       	call   8051df5 <gaa_getstr>
 8052fb3:	89 45 f0             	mov    %eax,-0x10(%ebp)
 8052fb6:	8b 15 e8 16 08 08    	mov    0x80816e8,%edx
 8052fbc:	8b 45 0c             	mov    0xc(%ebp),%eax
 8052fbf:	01 d0                	add    %edx,%eax
 8052fc1:	c6 00 01             	movb   $0x1,(%eax)
 8052fc4:	a1 94 15 06 08       	mov    0x8061594,%eax
 8052fc9:	83 f8 01             	cmp    $0x1,%eax
 8052fcc:	75 14                	jne    8052fe2 <gaa_try+0x775>
 8052fce:	c7 05 94 15 06 08 00 	movl   $0x0,0x8061594
 8052fd5:	00 00 00 
 8052fd8:	b8 02 00 00 00       	mov    $0x2,%eax
 8052fdd:	e9 25 03 00 00       	jmp    8053307 <gaa_try+0xa9a>
 8052fe2:	c7 45 f4 01 00 00 00 	movl   $0x1,-0xc(%ebp)
 8052fe9:	eb 07                	jmp    8052ff2 <gaa_try+0x785>
 8052feb:	c7 45 f4 00 00 00 00 	movl   $0x0,-0xc(%ebp)
 8052ff2:	83 45 0c 01          	addl   $0x1,0xc(%ebp)
 8052ff6:	8b 55 f0             	mov    -0x10(%ebp),%edx
 8052ff9:	8b 45 10             	mov    0x10(%ebp),%eax
 8052ffc:	89 50 34             	mov    %edx,0x34(%eax)
 8052fff:	b8 ff ff ff ff       	mov    $0xffffffff,%eax
 8053004:	e9 fe 02 00 00       	jmp    8053307 <gaa_try+0xa9a>
 8053009:	c7 45 ec 00 00 00 00 	movl   $0x0,-0x14(%ebp)
 8053010:	83 7d ec 00          	cmpl   $0x0,-0x14(%ebp)
 8053014:	75 32                	jne    8053048 <gaa_try+0x7db>
 8053016:	eb 04                	jmp    805301c <gaa_try+0x7af>
 8053018:	83 45 0c 01          	addl   $0x1,0xc(%ebp)
 805301c:	8b 45 e8             	mov    -0x18(%ebp),%eax
 805301f:	3b 45 0c             	cmp    0xc(%ebp),%eax
 8053022:	74 12                	je     8053036 <gaa_try+0x7c9>
 8053024:	8b 15 e8 16 08 08    	mov    0x80816e8,%edx
 805302a:	8b 45 0c             	mov    0xc(%ebp),%eax
 805302d:	01 d0                	add    %edx,%eax
 805302f:	0f b6 00             	movzbl (%eax),%eax
 8053032:	3c 01                	cmp    $0x1,%al
 8053034:	74 e2                	je     8053018 <gaa_try+0x7ab>
 8053036:	8b 45 e8             	mov    -0x18(%ebp),%eax
 8053039:	3b 45 0c             	cmp    0xc(%ebp),%eax
 805303c:	75 0a                	jne    8053048 <gaa_try+0x7db>
 805303e:	b8 01 00 00 00       	mov    $0x1,%eax
 8053043:	e9 bf 02 00 00       	jmp    8053307 <gaa_try+0xa9a>
 8053048:	83 7d ec 00          	cmpl   $0x0,-0x14(%ebp)
 805304c:	75 4f                	jne    805309d <gaa_try+0x830>
 805304e:	a1 ec 16 08 08       	mov    0x80816ec,%eax
 8053053:	8b 55 0c             	mov    0xc(%ebp),%edx
 8053056:	c1 e2 02             	shl    $0x2,%edx
 8053059:	01 d0                	add    %edx,%eax
 805305b:	8b 00                	mov    (%eax),%eax
 805305d:	89 04 24             	mov    %eax,(%esp)
 8053060:	e8 f0 ec ff ff       	call   8051d55 <gaa_getint>
 8053065:	89 45 f0             	mov    %eax,-0x10(%ebp)
 8053068:	8b 15 e8 16 08 08    	mov    0x80816e8,%edx
 805306e:	8b 45 0c             	mov    0xc(%ebp),%eax
 8053071:	01 d0                	add    %edx,%eax
 8053073:	c6 00 01             	movb   $0x1,(%eax)
 8053076:	a1 94 15 06 08       	mov    0x8061594,%eax
 805307b:	83 f8 01             	cmp    $0x1,%eax
 805307e:	75 14                	jne    8053094 <gaa_try+0x827>
 8053080:	c7 05 94 15 06 08 00 	movl   $0x0,0x8061594
 8053087:	00 00 00 
 805308a:	b8 02 00 00 00       	mov    $0x2,%eax
 805308f:	e9 73 02 00 00       	jmp    8053307 <gaa_try+0xa9a>
 8053094:	c7 45 f4 01 00 00 00 	movl   $0x1,-0xc(%ebp)
 805309b:	eb 07                	jmp    80530a4 <gaa_try+0x837>
 805309d:	c7 45 f4 00 00 00 00 	movl   $0x0,-0xc(%ebp)
 80530a4:	83 45 0c 01          	addl   $0x1,0xc(%ebp)
 80530a8:	8b 55 f0             	mov    -0x10(%ebp),%edx
 80530ab:	8b 45 10             	mov    0x10(%ebp),%eax
 80530ae:	89 50 38             	mov    %edx,0x38(%eax)
 80530b1:	b8 ff ff ff ff       	mov    $0xffffffff,%eax
 80530b6:	e9 4c 02 00 00       	jmp    8053307 <gaa_try+0xa9a>
 80530bb:	c7 45 ec 00 00 00 00 	movl   $0x0,-0x14(%ebp)
 80530c2:	8b 45 10             	mov    0x10(%ebp),%eax
 80530c5:	c7 40 3c 01 00 00 00 	movl   $0x1,0x3c(%eax)
 80530cc:	8b 45 10             	mov    0x10(%ebp),%eax
 80530cf:	c7 40 44 01 00 00 00 	movl   $0x1,0x44(%eax)
 80530d6:	8b 45 10             	mov    0x10(%ebp),%eax
 80530d9:	c7 40 40 00 00 00 00 	movl   $0x0,0x40(%eax)
 80530e0:	b8 ff ff ff ff       	mov    $0xffffffff,%eax
 80530e5:	e9 1d 02 00 00       	jmp    8053307 <gaa_try+0xa9a>
 80530ea:	c7 45 ec 00 00 00 00 	movl   $0x0,-0x14(%ebp)
 80530f1:	8b 45 10             	mov    0x10(%ebp),%eax
 80530f4:	c7 40 48 01 00 00 00 	movl   $0x1,0x48(%eax)
 80530fb:	b8 ff ff ff ff       	mov    $0xffffffff,%eax
 8053100:	e9 02 02 00 00       	jmp    8053307 <gaa_try+0xa9a>
 8053105:	c7 45 ec 00 00 00 00 	movl   $0x0,-0x14(%ebp)
 805310c:	8b 45 10             	mov    0x10(%ebp),%eax
 805310f:	c7 40 4c 01 00 00 00 	movl   $0x1,0x4c(%eax)
 8053116:	b8 ff ff ff ff       	mov    $0xffffffff,%eax
 805311b:	e9 e7 01 00 00       	jmp    8053307 <gaa_try+0xa9a>
 8053120:	c7 45 ec 00 00 00 00 	movl   $0x0,-0x14(%ebp)
 8053127:	8b 45 10             	mov    0x10(%ebp),%eax
 805312a:	c7 40 50 01 00 00 00 	movl   $0x1,0x50(%eax)
 8053131:	b8 ff ff ff ff       	mov    $0xffffffff,%eax
 8053136:	e9 cc 01 00 00       	jmp    8053307 <gaa_try+0xa9a>
 805313b:	c7 45 ec 00 00 00 00 	movl   $0x0,-0x14(%ebp)
 8053142:	8b 45 10             	mov    0x10(%ebp),%eax
 8053145:	c7 40 54 01 00 00 00 	movl   $0x1,0x54(%eax)
 805314c:	b8 ff ff ff ff       	mov    $0xffffffff,%eax
 8053151:	e9 b1 01 00 00       	jmp    8053307 <gaa_try+0xa9a>
 8053156:	c7 45 ec 00 00 00 00 	movl   $0x0,-0x14(%ebp)
 805315d:	8b 45 10             	mov    0x10(%ebp),%eax
 8053160:	c7 40 58 00 00 00 00 	movl   $0x0,0x58(%eax)
 8053167:	b8 ff ff ff ff       	mov    $0xffffffff,%eax
 805316c:	e9 96 01 00 00       	jmp    8053307 <gaa_try+0xa9a>
 8053171:	c7 45 ec 00 00 00 00 	movl   $0x0,-0x14(%ebp)
 8053178:	8b 45 10             	mov    0x10(%ebp),%eax
 805317b:	c7 40 5c 01 00 00 00 	movl   $0x1,0x5c(%eax)
 8053182:	b8 ff ff ff ff       	mov    $0xffffffff,%eax
 8053187:	e9 7b 01 00 00       	jmp    8053307 <gaa_try+0xa9a>
 805318c:	c7 45 ec 00 00 00 00 	movl   $0x0,-0x14(%ebp)
 8053193:	8b 45 10             	mov    0x10(%ebp),%eax
 8053196:	c7 40 60 01 00 00 00 	movl   $0x1,0x60(%eax)
 805319d:	b8 ff ff ff ff       	mov    $0xffffffff,%eax
 80531a2:	e9 60 01 00 00       	jmp    8053307 <gaa_try+0xa9a>
 80531a7:	c7 45 ec 00 00 00 00 	movl   $0x0,-0x14(%ebp)
 80531ae:	8b 45 10             	mov    0x10(%ebp),%eax
 80531b1:	c7 40 64 01 00 00 00 	movl   $0x1,0x64(%eax)
 80531b8:	b8 ff ff ff ff       	mov    $0xffffffff,%eax
 80531bd:	e9 45 01 00 00       	jmp    8053307 <gaa_try+0xa9a>
 80531c2:	c7 45 ec 00 00 00 00 	movl   $0x0,-0x14(%ebp)
 80531c9:	8b 45 10             	mov    0x10(%ebp),%eax
 80531cc:	c7 40 68 01 00 00 00 	movl   $0x1,0x68(%eax)
 80531d3:	b8 ff ff ff ff       	mov    $0xffffffff,%eax
 80531d8:	e9 2a 01 00 00       	jmp    8053307 <gaa_try+0xa9a>
 80531dd:	c7 45 ec 00 00 00 00 	movl   $0x0,-0x14(%ebp)
 80531e4:	8b 45 10             	mov    0x10(%ebp),%eax
 80531e7:	c7 40 6c 01 00 00 00 	movl   $0x1,0x6c(%eax)
 80531ee:	b8 ff ff ff ff       	mov    $0xffffffff,%eax
 80531f3:	e9 0f 01 00 00       	jmp    8053307 <gaa_try+0xa9a>
 80531f8:	c7 45 ec 00 00 00 00 	movl   $0x0,-0x14(%ebp)
 80531ff:	8b 45 10             	mov    0x10(%ebp),%eax
 8053202:	c7 40 70 01 00 00 00 	movl   $0x1,0x70(%eax)
 8053209:	b8 ff ff ff ff       	mov    $0xffffffff,%eax
 805320e:	e9 f4 00 00 00       	jmp    8053307 <gaa_try+0xa9a>
 8053213:	c7 45 ec 00 00 00 00 	movl   $0x0,-0x14(%ebp)
 805321a:	8b 45 10             	mov    0x10(%ebp),%eax
 805321d:	c7 40 74 02 00 00 00 	movl   $0x2,0x74(%eax)
 8053224:	b8 ff ff ff ff       	mov    $0xffffffff,%eax
 8053229:	e9 d9 00 00 00       	jmp    8053307 <gaa_try+0xa9a>
 805322e:	c7 45 ec 00 00 00 00 	movl   $0x0,-0x14(%ebp)
 8053235:	8b 45 10             	mov    0x10(%ebp),%eax
 8053238:	c7 40 74 00 00 00 00 	movl   $0x0,0x74(%eax)
 805323f:	b8 ff ff ff ff       	mov    $0xffffffff,%eax
 8053244:	e9 be 00 00 00       	jmp    8053307 <gaa_try+0xa9a>
 8053249:	83 7d ec 00          	cmpl   $0x0,-0x14(%ebp)
 805324d:	0f 85 96 00 00 00    	jne    80532e9 <gaa_try+0xa7c>
 8053253:	c7 45 f4 00 00 00 00 	movl   $0x0,-0xc(%ebp)
 805325a:	8b 45 0c             	mov    0xc(%ebp),%eax
 805325d:	8b 55 e8             	mov    -0x18(%ebp),%edx
 8053260:	29 c2                	sub    %eax,%edx
 8053262:	89 d0                	mov    %edx,%eax
 8053264:	c1 e0 02             	shl    $0x2,%eax
 8053267:	89 04 24             	mov    %eax,(%esp)
 805326a:	e8 15 bf ff ff       	call   804f184 <_mcrypt_malloc>
 805326f:	89 45 f0             	mov    %eax,-0x10(%ebp)
 8053272:	eb 6d                	jmp    80532e1 <gaa_try+0xa74>
 8053274:	8b 15 e8 16 08 08    	mov    0x80816e8,%edx
 805327a:	8b 45 0c             	mov    0xc(%ebp),%eax
 805327d:	01 d0                	add    %edx,%eax
 805327f:	0f b6 00             	movzbl (%eax),%eax
 8053282:	84 c0                	test   %al,%al
 8053284:	75 57                	jne    80532dd <gaa_try+0xa70>
 8053286:	8b 45 f0             	mov    -0x10(%ebp),%eax
 8053289:	8b 55 f4             	mov    -0xc(%ebp),%edx
 805328c:	c1 e2 02             	shl    $0x2,%edx
 805328f:	8d 1c 10             	lea    (%eax,%edx,1),%ebx
 8053292:	a1 ec 16 08 08       	mov    0x80816ec,%eax
 8053297:	8b 55 0c             	mov    0xc(%ebp),%edx
 805329a:	c1 e2 02             	shl    $0x2,%edx
 805329d:	01 d0                	add    %edx,%eax
 805329f:	8b 00                	mov    (%eax),%eax
 80532a1:	89 04 24             	mov    %eax,(%esp)
 80532a4:	e8 4c eb ff ff       	call   8051df5 <gaa_getstr>
 80532a9:	89 03                	mov    %eax,(%ebx)
 80532ab:	8b 15 e8 16 08 08    	mov    0x80816e8,%edx
 80532b1:	8b 45 0c             	mov    0xc(%ebp),%eax
 80532b4:	01 d0                	add    %edx,%eax
 80532b6:	c6 00 01             	movb   $0x1,(%eax)
 80532b9:	a1 94 15 06 08       	mov    0x8061594,%eax
 80532be:	83 f8 01             	cmp    $0x1,%eax
 80532c1:	75 11                	jne    80532d4 <gaa_try+0xa67>
 80532c3:	c7 05 94 15 06 08 00 	movl   $0x0,0x8061594
 80532ca:	00 00 00 
 80532cd:	b8 02 00 00 00       	mov    $0x2,%eax
 80532d2:	eb 33                	jmp    8053307 <gaa_try+0xa9a>
 80532d4:	8b 45 f4             	mov    -0xc(%ebp),%eax
 80532d7:	83 c0 01             	add    $0x1,%eax
 80532da:	89 45 f4             	mov    %eax,-0xc(%ebp)
 80532dd:	83 45 0c 01          	addl   $0x1,0xc(%ebp)
 80532e1:	8b 45 0c             	mov    0xc(%ebp),%eax
 80532e4:	3b 45 e8             	cmp    -0x18(%ebp),%eax
 80532e7:	7c 8b                	jl     8053274 <gaa_try+0xa07>
 80532e9:	8b 55 f0             	mov    -0x10(%ebp),%edx
 80532ec:	8b 45 10             	mov    0x10(%ebp),%eax
 80532ef:	89 10                	mov    %edx,(%eax)
 80532f1:	8b 55 f4             	mov    -0xc(%ebp),%edx
 80532f4:	8b 45 10             	mov    0x10(%ebp),%eax
 80532f7:	89 50 04             	mov    %edx,0x4(%eax)
 80532fa:	b8 ff ff ff ff       	mov    $0xffffffff,%eax
 80532ff:	eb 06                	jmp    8053307 <gaa_try+0xa9a>
 8053301:	90                   	nop
 8053302:	b8 03 00 00 00       	mov    $0x3,%eax
 8053307:	83 c4 24             	add    $0x24,%esp
 805330a:	5b                   	pop    %ebx
 805330b:	5d                   	pop    %ebp
 805330c:	c3                   	ret    

0805330d <gaa>:
 805330d:	55                   	push   %ebp
 805330e:	89 e5                	mov    %esp,%ebp
 8053310:	53                   	push   %ebx
 8053311:	83 ec 34             	sub    $0x34,%esp
 8053314:	8b 45 0c             	mov    0xc(%ebp),%eax
 8053317:	a3 ec 16 08 08       	mov    %eax,0x80816ec
 805331c:	8b 45 08             	mov    0x8(%ebp),%eax
 805331f:	a3 e0 16 08 08       	mov    %eax,0x80816e0
 8053324:	c7 04 24 20 00 00 00 	movl   $0x20,(%esp)
 805332b:	e8 54 be ff ff       	call   804f184 <_mcrypt_malloc>
 8053330:	89 45 ec             	mov    %eax,-0x14(%ebp)
 8053333:	c7 45 e0 00 00 00 00 	movl   $0x0,-0x20(%ebp)
 805333a:	eb 0f                	jmp    805334b <gaa+0x3e>
 805333c:	8b 55 e0             	mov    -0x20(%ebp),%edx
 805333f:	8b 45 ec             	mov    -0x14(%ebp),%eax
 8053342:	01 d0                	add    %edx,%eax
 8053344:	c6 00 00             	movb   $0x0,(%eax)
 8053347:	83 45 e0 01          	addl   $0x1,-0x20(%ebp)
 805334b:	83 7d e0 1f          	cmpl   $0x1f,-0x20(%ebp)
 805334f:	7e eb                	jle    805333c <gaa+0x2f>
 8053351:	a1 9c 15 06 08       	mov    0x806159c,%eax
 8053356:	85 c0                	test   %eax,%eax
 8053358:	0f 85 21 01 00 00    	jne    805347f <gaa+0x172>
 805335e:	8b 45 10             	mov    0x10(%ebp),%eax
 8053361:	c7 40 70 00 00 00 00 	movl   $0x0,0x70(%eax)
 8053368:	8b 45 10             	mov    0x10(%ebp),%eax
 805336b:	c7 40 74 01 00 00 00 	movl   $0x1,0x74(%eax)
 8053372:	8b 45 10             	mov    0x10(%ebp),%eax
 8053375:	c7 40 6c 00 00 00 00 	movl   $0x0,0x6c(%eax)
 805337c:	8b 45 10             	mov    0x10(%ebp),%eax
 805337f:	c7 40 20 00 00 00 00 	movl   $0x0,0x20(%eax)
 8053386:	8b 45 10             	mov    0x10(%ebp),%eax
 8053389:	c7 40 68 00 00 00 00 	movl   $0x0,0x68(%eax)
 8053390:	8b 45 10             	mov    0x10(%ebp),%eax
 8053393:	c7 40 44 00 00 00 00 	movl   $0x0,0x44(%eax)
 805339a:	8b 45 10             	mov    0x10(%ebp),%eax
 805339d:	c7 40 40 01 00 00 00 	movl   $0x1,0x40(%eax)
 80533a4:	8b 45 10             	mov    0x10(%ebp),%eax
 80533a7:	c7 40 28 00 00 00 00 	movl   $0x0,0x28(%eax)
 80533ae:	8b 45 10             	mov    0x10(%ebp),%eax
 80533b1:	c7 40 2c 00 00 00 00 	movl   $0x0,0x2c(%eax)
 80533b8:	8b 45 10             	mov    0x10(%ebp),%eax
 80533bb:	c7 40 14 00 00 00 00 	movl   $0x0,0x14(%eax)
 80533c2:	8b 45 10             	mov    0x10(%ebp),%eax
 80533c5:	c7 40 64 00 00 00 00 	movl   $0x0,0x64(%eax)
 80533cc:	8b 45 10             	mov    0x10(%ebp),%eax
 80533cf:	c7 40 60 00 00 00 00 	movl   $0x0,0x60(%eax)
 80533d6:	8b 45 10             	mov    0x10(%ebp),%eax
 80533d9:	c7 40 24 00 00 00 00 	movl   $0x0,0x24(%eax)
 80533e0:	8b 45 10             	mov    0x10(%ebp),%eax
 80533e3:	c7 40 18 00 00 00 00 	movl   $0x0,0x18(%eax)
 80533ea:	8b 45 10             	mov    0x10(%ebp),%eax
 80533ed:	c7 40 10 00 00 00 00 	movl   $0x0,0x10(%eax)
 80533f4:	8b 45 10             	mov    0x10(%ebp),%eax
 80533f7:	c7 40 54 00 00 00 00 	movl   $0x0,0x54(%eax)
 80533fe:	8b 45 10             	mov    0x10(%ebp),%eax
 8053401:	c7 40 1c 00 00 00 00 	movl   $0x0,0x1c(%eax)
 8053408:	8b 45 10             	mov    0x10(%ebp),%eax
 805340b:	c7 40 0c 00 00 00 00 	movl   $0x0,0xc(%eax)
 8053412:	8b 45 10             	mov    0x10(%ebp),%eax
 8053415:	c7 00 00 00 00 00    	movl   $0x0,(%eax)
 805341b:	8b 45 10             	mov    0x10(%ebp),%eax
 805341e:	c7 40 3c 00 00 00 00 	movl   $0x0,0x3c(%eax)
 8053425:	8b 45 10             	mov    0x10(%ebp),%eax
 8053428:	c7 40 48 00 00 00 00 	movl   $0x0,0x48(%eax)
 805342f:	8b 45 10             	mov    0x10(%ebp),%eax
 8053432:	c7 40 5c 00 00 00 00 	movl   $0x0,0x5c(%eax)
 8053439:	8b 45 10             	mov    0x10(%ebp),%eax
 805343c:	c7 40 58 01 00 00 00 	movl   $0x1,0x58(%eax)
 8053443:	8b 45 10             	mov    0x10(%ebp),%eax
 8053446:	c7 40 4c 00 00 00 00 	movl   $0x0,0x4c(%eax)
 805344d:	8b 45 10             	mov    0x10(%ebp),%eax
 8053450:	c7 40 38 00 00 00 00 	movl   $0x0,0x38(%eax)
 8053457:	8b 45 10             	mov    0x10(%ebp),%eax
 805345a:	c7 40 34 00 00 00 00 	movl   $0x0,0x34(%eax)
 8053461:	8b 45 10             	mov    0x10(%ebp),%eax
 8053464:	c7 40 30 00 00 00 00 	movl   $0x0,0x30(%eax)
 805346b:	8b 45 10             	mov    0x10(%ebp),%eax
 805346e:	c7 40 50 00 00 00 00 	movl   $0x0,0x50(%eax)
 8053475:	8b 45 10             	mov    0x10(%ebp),%eax
 8053478:	c7 40 08 00 00 00 00 	movl   $0x0,0x8(%eax)
 805347f:	c7 05 9c 15 06 08 01 	movl   $0x1,0x806159c
 8053486:	00 00 00 
 8053489:	8b 45 08             	mov    0x8(%ebp),%eax
 805348c:	89 04 24             	mov    %eax,(%esp)
 805348f:	e8 f0 bc ff ff       	call   804f184 <_mcrypt_malloc>
 8053494:	a3 e8 16 08 08       	mov    %eax,0x80816e8
 8053499:	c7 45 e0 01 00 00 00 	movl   $0x1,-0x20(%ebp)
 80534a0:	eb 12                	jmp    80534b4 <gaa+0x1a7>
 80534a2:	8b 15 e8 16 08 08    	mov    0x80816e8,%edx
 80534a8:	8b 45 e0             	mov    -0x20(%ebp),%eax
 80534ab:	01 d0                	add    %edx,%eax
 80534ad:	c6 00 00             	movb   $0x0,(%eax)
 80534b0:	83 45 e0 01          	addl   $0x1,-0x20(%ebp)
 80534b4:	8b 45 e0             	mov    -0x20(%ebp),%eax
 80534b7:	3b 45 08             	cmp    0x8(%ebp),%eax
 80534ba:	7c e6                	jl     80534a2 <gaa+0x195>
 80534bc:	c7 45 e0 01 00 00 00 	movl   $0x1,-0x20(%ebp)
 80534c3:	e9 66 02 00 00       	jmp    805372e <gaa+0x421>
 80534c8:	8b 15 e8 16 08 08    	mov    0x80816e8,%edx
 80534ce:	8b 45 e0             	mov    -0x20(%ebp),%eax
 80534d1:	01 d0                	add    %edx,%eax
 80534d3:	0f b6 00             	movzbl (%eax),%eax
 80534d6:	84 c0                	test   %al,%al
 80534d8:	0f 85 4c 02 00 00    	jne    805372a <gaa+0x41d>
 80534de:	c7 45 e4 00 00 00 00 	movl   $0x0,-0x1c(%ebp)
 80534e5:	a1 ec 16 08 08       	mov    0x80816ec,%eax
 80534ea:	8b 55 e0             	mov    -0x20(%ebp),%edx
 80534ed:	c1 e2 02             	shl    $0x2,%edx
 80534f0:	01 d0                	add    %edx,%eax
 80534f2:	8b 00                	mov    (%eax),%eax
 80534f4:	89 04 24             	mov    %eax,(%esp)
 80534f7:	e8 6e e9 ff ff       	call   8051e6a <gaa_is_an_argument>
 80534fc:	89 45 f0             	mov    %eax,-0x10(%ebp)
 80534ff:	8b 45 f0             	mov    -0x10(%ebp),%eax
 8053502:	83 f8 02             	cmp    $0x2,%eax
 8053505:	74 17                	je     805351e <gaa+0x211>
 8053507:	83 f8 03             	cmp    $0x3,%eax
 805350a:	0f 84 fb 00 00 00    	je     805360b <gaa+0x2fe>
 8053510:	83 f8 01             	cmp    $0x1,%eax
 8053513:	74 05                	je     805351a <gaa+0x20d>
 8053515:	e9 10 02 00 00       	jmp    805372a <gaa+0x41d>
 805351a:	83 45 e4 01          	addl   $0x1,-0x1c(%ebp)
 805351e:	83 45 e4 01          	addl   $0x1,-0x1c(%ebp)
 8053522:	8b 45 e0             	mov    -0x20(%ebp),%eax
 8053525:	8d 14 85 00 00 00 00 	lea    0x0(,%eax,4),%edx
 805352c:	8b 45 0c             	mov    0xc(%ebp),%eax
 805352f:	01 d0                	add    %edx,%eax
 8053531:	8b 10                	mov    (%eax),%edx
 8053533:	8b 45 e4             	mov    -0x1c(%ebp),%eax
 8053536:	01 c2                	add    %eax,%edx
 8053538:	8b 45 f0             	mov    -0x10(%ebp),%eax
 805353b:	89 44 24 04          	mov    %eax,0x4(%esp)
 805353f:	89 14 24             	mov    %edx,(%esp)
 8053542:	e8 8e e9 ff ff       	call   8051ed5 <gaa_get_option_num>
 8053547:	89 45 f4             	mov    %eax,-0xc(%ebp)
 805354a:	83 7d f4 00          	cmpl   $0x0,-0xc(%ebp)
 805354e:	75 30                	jne    8053580 <gaa+0x273>
 8053550:	8b 45 e0             	mov    -0x20(%ebp),%eax
 8053553:	8d 14 85 00 00 00 00 	lea    0x0(,%eax,4),%edx
 805355a:	8b 45 0c             	mov    0xc(%ebp),%eax
 805355d:	01 d0                	add    %edx,%eax
 805355f:	8b 10                	mov    (%eax),%edx
 8053561:	8b 45 e4             	mov    -0x1c(%ebp),%eax
 8053564:	01 d0                	add    %edx,%eax
 8053566:	89 44 24 04          	mov    %eax,0x4(%esp)
 805356a:	c7 04 24 2c 61 05 08 	movl   $0x805612c,(%esp)
 8053571:	e8 0a 5f ff ff       	call   8049480 <printf@plt>
 8053576:	b8 00 00 00 00       	mov    $0x0,%eax
 805357b:	e9 2a 04 00 00       	jmp    80539aa <gaa+0x69d>
 8053580:	8b 45 e0             	mov    -0x20(%ebp),%eax
 8053583:	8d 50 01             	lea    0x1(%eax),%edx
 8053586:	8b 45 ec             	mov    -0x14(%ebp),%eax
 8053589:	89 44 24 0c          	mov    %eax,0xc(%esp)
 805358d:	8b 45 10             	mov    0x10(%ebp),%eax
 8053590:	89 44 24 08          	mov    %eax,0x8(%esp)
 8053594:	89 54 24 04          	mov    %edx,0x4(%esp)
 8053598:	8b 45 f4             	mov    -0xc(%ebp),%eax
 805359b:	89 04 24             	mov    %eax,(%esp)
 805359e:	e8 ca f2 ff ff       	call   805286d <gaa_try>
 80535a3:	83 f8 01             	cmp    $0x1,%eax
 80535a6:	74 0c                	je     80535b4 <gaa+0x2a7>
 80535a8:	83 f8 02             	cmp    $0x2,%eax
 80535ab:	74 26                	je     80535d3 <gaa+0x2c6>
 80535ad:	83 f8 ff             	cmp    $0xffffffff,%eax
 80535b0:	74 45                	je     80535f7 <gaa+0x2ea>
 80535b2:	eb 35                	jmp    80535e9 <gaa+0x2dc>
 80535b4:	a1 e4 16 08 08       	mov    0x80816e4,%eax
 80535b9:	89 44 24 04          	mov    %eax,0x4(%esp)
 80535bd:	c7 04 24 41 61 05 08 	movl   $0x8056141,(%esp)
 80535c4:	e8 b7 5e ff ff       	call   8049480 <printf@plt>
 80535c9:	b8 00 00 00 00       	mov    $0x0,%eax
 80535ce:	e9 d7 03 00 00       	jmp    80539aa <gaa+0x69d>
 80535d3:	c7 04 24 5e 61 05 08 	movl   $0x805615e,(%esp)
 80535da:	e8 61 61 ff ff       	call   8049740 <puts@plt>
 80535df:	b8 00 00 00 00       	mov    $0x0,%eax
 80535e4:	e9 c1 03 00 00       	jmp    80539aa <gaa+0x69d>
 80535e9:	c7 04 24 70 61 05 08 	movl   $0x8056170,(%esp)
 80535f0:	e8 4b 61 ff ff       	call   8049740 <puts@plt>
 80535f5:	eb 01                	jmp    80535f8 <gaa+0x2eb>
 80535f7:	90                   	nop
 80535f8:	8b 15 e8 16 08 08    	mov    0x80816e8,%edx
 80535fe:	8b 45 e0             	mov    -0x20(%ebp),%eax
 8053601:	01 d0                	add    %edx,%eax
 8053603:	c6 00 01             	movb   $0x1,(%eax)
 8053606:	e9 1f 01 00 00       	jmp    805372a <gaa+0x41d>
 805360b:	c7 45 e4 01 00 00 00 	movl   $0x1,-0x1c(%ebp)
 8053612:	e9 e0 00 00 00       	jmp    80536f7 <gaa+0x3ea>
 8053617:	8b 45 e0             	mov    -0x20(%ebp),%eax
 805361a:	8d 14 85 00 00 00 00 	lea    0x0(,%eax,4),%edx
 8053621:	8b 45 0c             	mov    0xc(%ebp),%eax
 8053624:	01 d0                	add    %edx,%eax
 8053626:	8b 10                	mov    (%eax),%edx
 8053628:	8b 45 e4             	mov    -0x1c(%ebp),%eax
 805362b:	01 c2                	add    %eax,%edx
 805362d:	8b 45 f0             	mov    -0x10(%ebp),%eax
 8053630:	89 44 24 04          	mov    %eax,0x4(%esp)
 8053634:	89 14 24             	mov    %edx,(%esp)
 8053637:	e8 99 e8 ff ff       	call   8051ed5 <gaa_get_option_num>
 805363c:	89 45 f4             	mov    %eax,-0xc(%ebp)
 805363f:	83 7d f4 00          	cmpl   $0x0,-0xc(%ebp)
 8053643:	75 36                	jne    805367b <gaa+0x36e>
 8053645:	8b 45 e0             	mov    -0x20(%ebp),%eax
 8053648:	8d 14 85 00 00 00 00 	lea    0x0(,%eax,4),%edx
 805364f:	8b 45 0c             	mov    0xc(%ebp),%eax
 8053652:	01 d0                	add    %edx,%eax
 8053654:	8b 10                	mov    (%eax),%edx
 8053656:	8b 45 e4             	mov    -0x1c(%ebp),%eax
 8053659:	01 d0                	add    %edx,%eax
 805365b:	0f b6 00             	movzbl (%eax),%eax
 805365e:	0f be c0             	movsbl %al,%eax
 8053661:	89 44 24 04          	mov    %eax,0x4(%esp)
 8053665:	c7 04 24 7e 61 05 08 	movl   $0x805617e,(%esp)
 805366c:	e8 0f 5e ff ff       	call   8049480 <printf@plt>
 8053671:	b8 00 00 00 00       	mov    $0x0,%eax
 8053676:	e9 2f 03 00 00       	jmp    80539aa <gaa+0x69d>
 805367b:	8b 45 e0             	mov    -0x20(%ebp),%eax
 805367e:	8d 50 01             	lea    0x1(%eax),%edx
 8053681:	8b 45 ec             	mov    -0x14(%ebp),%eax
 8053684:	89 44 24 0c          	mov    %eax,0xc(%esp)
 8053688:	8b 45 10             	mov    0x10(%ebp),%eax
 805368b:	89 44 24 08          	mov    %eax,0x8(%esp)
 805368f:	89 54 24 04          	mov    %edx,0x4(%esp)
 8053693:	8b 45 f4             	mov    -0xc(%ebp),%eax
 8053696:	89 04 24             	mov    %eax,(%esp)
 8053699:	e8 cf f1 ff ff       	call   805286d <gaa_try>
 805369e:	83 f8 01             	cmp    $0x1,%eax
 80536a1:	74 0c                	je     80536af <gaa+0x3a2>
 80536a3:	83 f8 02             	cmp    $0x2,%eax
 80536a6:	74 26                	je     80536ce <gaa+0x3c1>
 80536a8:	83 f8 ff             	cmp    $0xffffffff,%eax
 80536ab:	74 45                	je     80536f2 <gaa+0x3e5>
 80536ad:	eb 35                	jmp    80536e4 <gaa+0x3d7>
 80536af:	a1 e4 16 08 08       	mov    0x80816e4,%eax
 80536b4:	89 44 24 04          	mov    %eax,0x4(%esp)
 80536b8:	c7 04 24 41 61 05 08 	movl   $0x8056141,(%esp)
 80536bf:	e8 bc 5d ff ff       	call   8049480 <printf@plt>
 80536c4:	b8 00 00 00 00       	mov    $0x0,%eax
 80536c9:	e9 dc 02 00 00       	jmp    80539aa <gaa+0x69d>
 80536ce:	c7 04 24 5e 61 05 08 	movl   $0x805615e,(%esp)
 80536d5:	e8 66 60 ff ff       	call   8049740 <puts@plt>
 80536da:	b8 00 00 00 00       	mov    $0x0,%eax
 80536df:	e9 c6 02 00 00       	jmp    80539aa <gaa+0x69d>
 80536e4:	c7 04 24 70 61 05 08 	movl   $0x8056170,(%esp)
 80536eb:	e8 50 60 ff ff       	call   8049740 <puts@plt>
 80536f0:	eb 01                	jmp    80536f3 <gaa+0x3e6>
 80536f2:	90                   	nop
 80536f3:	83 45 e4 01          	addl   $0x1,-0x1c(%ebp)
 80536f7:	8b 5d e4             	mov    -0x1c(%ebp),%ebx
 80536fa:	8b 45 e0             	mov    -0x20(%ebp),%eax
 80536fd:	8d 14 85 00 00 00 00 	lea    0x0(,%eax,4),%edx
 8053704:	8b 45 0c             	mov    0xc(%ebp),%eax
 8053707:	01 d0                	add    %edx,%eax
 8053709:	8b 00                	mov    (%eax),%eax
 805370b:	89 04 24             	mov    %eax,(%esp)
 805370e:	e8 fd 60 ff ff       	call   8049810 <strlen@plt>
 8053713:	39 c3                	cmp    %eax,%ebx
 8053715:	0f 82 fc fe ff ff    	jb     8053617 <gaa+0x30a>
 805371b:	8b 15 e8 16 08 08    	mov    0x80816e8,%edx
 8053721:	8b 45 e0             	mov    -0x20(%ebp),%eax
 8053724:	01 d0                	add    %edx,%eax
 8053726:	c6 00 01             	movb   $0x1,(%eax)
 8053729:	90                   	nop
 805372a:	83 45 e0 01          	addl   $0x1,-0x20(%ebp)
 805372e:	8b 45 e0             	mov    -0x20(%ebp),%eax
 8053731:	3b 45 08             	cmp    0x8(%ebp),%eax
 8053734:	0f 8c 8e fd ff ff    	jl     80534c8 <gaa+0x1bb>
 805373a:	a1 98 15 06 08       	mov    0x8061598,%eax
 805373f:	85 c0                	test   %eax,%eax
 8053741:	0f 85 0c 02 00 00    	jne    8053953 <gaa+0x646>
 8053747:	c7 45 e8 00 00 00 00 	movl   $0x0,-0x18(%ebp)
 805374e:	c7 45 e0 00 00 00 00 	movl   $0x0,-0x20(%ebp)
 8053755:	eb 50                	jmp    80537a7 <gaa+0x49a>
 8053757:	8b 45 e0             	mov    -0x20(%ebp),%eax
 805375a:	05 93 61 05 08       	add    $0x8056193,%eax
 805375f:	c7 44 24 04 02 00 00 	movl   $0x2,0x4(%esp)
 8053766:	00 
 8053767:	89 04 24             	mov    %eax,(%esp)
 805376a:	e8 66 e7 ff ff       	call   8051ed5 <gaa_get_option_num>
 805376f:	89 45 e4             	mov    %eax,-0x1c(%ebp)
 8053772:	83 7d e4 00          	cmpl   $0x0,-0x1c(%ebp)
 8053776:	75 18                	jne    8053790 <gaa+0x483>
 8053778:	c7 04 24 96 61 05 08 	movl   $0x8056196,(%esp)
 805377f:	e8 bc 5f ff ff       	call   8049740 <puts@plt>
 8053784:	c7 04 24 ff ff ff ff 	movl   $0xffffffff,(%esp)
 805378b:	e8 f0 5f ff ff       	call   8049780 <exit@plt>
 8053790:	8b 55 e4             	mov    -0x1c(%ebp),%edx
 8053793:	8b 45 ec             	mov    -0x14(%ebp),%eax
 8053796:	01 d0                	add    %edx,%eax
 8053798:	0f b6 00             	movzbl (%eax),%eax
 805379b:	3c 01                	cmp    $0x1,%al
 805379d:	75 04                	jne    80537a3 <gaa+0x496>
 805379f:	83 45 e8 01          	addl   $0x1,-0x18(%ebp)
 80537a3:	83 45 e0 01          	addl   $0x1,-0x20(%ebp)
 80537a7:	8b 45 e0             	mov    -0x20(%ebp),%eax
 80537aa:	83 f8 01             	cmp    $0x1,%eax
 80537ad:	76 a8                	jbe    8053757 <gaa+0x44a>
 80537af:	83 7d e8 01          	cmpl   $0x1,-0x18(%ebp)
 80537b3:	7e 1e                	jle    80537d3 <gaa+0x4c6>
 80537b5:	c7 44 24 04 93 61 05 	movl   $0x8056193,0x4(%esp)
 80537bc:	08 
 80537bd:	c7 04 24 b4 61 05 08 	movl   $0x80561b4,(%esp)
 80537c4:	e8 b7 5c ff ff       	call   8049480 <printf@plt>
 80537c9:	b8 00 00 00 00       	mov    $0x0,%eax
 80537ce:	e9 d7 01 00 00       	jmp    80539aa <gaa+0x69d>
 80537d3:	c7 45 e8 00 00 00 00 	movl   $0x0,-0x18(%ebp)
 80537da:	c7 45 e0 00 00 00 00 	movl   $0x0,-0x20(%ebp)
 80537e1:	eb 50                	jmp    8053833 <gaa+0x526>
 80537e3:	8b 45 e0             	mov    -0x20(%ebp),%eax
 80537e6:	05 d7 61 05 08       	add    $0x80561d7,%eax
 80537eb:	c7 44 24 04 02 00 00 	movl   $0x2,0x4(%esp)
 80537f2:	00 
 80537f3:	89 04 24             	mov    %eax,(%esp)
 80537f6:	e8 da e6 ff ff       	call   8051ed5 <gaa_get_option_num>
 80537fb:	89 45 e4             	mov    %eax,-0x1c(%ebp)
 80537fe:	83 7d e4 00          	cmpl   $0x0,-0x1c(%ebp)
 8053802:	75 18                	jne    805381c <gaa+0x50f>
 8053804:	c7 04 24 96 61 05 08 	movl   $0x8056196,(%esp)
 805380b:	e8 30 5f ff ff       	call   8049740 <puts@plt>
 8053810:	c7 04 24 ff ff ff ff 	movl   $0xffffffff,(%esp)
 8053817:	e8 64 5f ff ff       	call   8049780 <exit@plt>
 805381c:	8b 55 e4             	mov    -0x1c(%ebp),%edx
 805381f:	8b 45 ec             	mov    -0x14(%ebp),%eax
 8053822:	01 d0                	add    %edx,%eax
 8053824:	0f b6 00             	movzbl (%eax),%eax
 8053827:	3c 01                	cmp    $0x1,%al
 8053829:	75 04                	jne    805382f <gaa+0x522>
 805382b:	83 45 e8 01          	addl   $0x1,-0x18(%ebp)
 805382f:	83 45 e0 01          	addl   $0x1,-0x20(%ebp)
 8053833:	8b 45 e0             	mov    -0x20(%ebp),%eax
 8053836:	83 f8 01             	cmp    $0x1,%eax
 8053839:	76 a8                	jbe    80537e3 <gaa+0x4d6>
 805383b:	83 7d e8 01          	cmpl   $0x1,-0x18(%ebp)
 805383f:	7e 1e                	jle    805385f <gaa+0x552>
 8053841:	c7 44 24 04 d7 61 05 	movl   $0x80561d7,0x4(%esp)
 8053848:	08 
 8053849:	c7 04 24 b4 61 05 08 	movl   $0x80561b4,(%esp)
 8053850:	e8 2b 5c ff ff       	call   8049480 <printf@plt>
 8053855:	b8 00 00 00 00       	mov    $0x0,%eax
 805385a:	e9 4b 01 00 00       	jmp    80539aa <gaa+0x69d>
 805385f:	c7 45 e8 00 00 00 00 	movl   $0x0,-0x18(%ebp)
 8053866:	c7 45 e0 00 00 00 00 	movl   $0x0,-0x20(%ebp)
 805386d:	eb 50                	jmp    80538bf <gaa+0x5b2>
 805386f:	8b 45 e0             	mov    -0x20(%ebp),%eax
 8053872:	05 da 61 05 08       	add    $0x80561da,%eax
 8053877:	c7 44 24 04 02 00 00 	movl   $0x2,0x4(%esp)
 805387e:	00 
 805387f:	89 04 24             	mov    %eax,(%esp)
 8053882:	e8 4e e6 ff ff       	call   8051ed5 <gaa_get_option_num>
 8053887:	89 45 e4             	mov    %eax,-0x1c(%ebp)
 805388a:	83 7d e4 00          	cmpl   $0x0,-0x1c(%ebp)
 805388e:	75 18                	jne    80538a8 <gaa+0x59b>
 8053890:	c7 04 24 96 61 05 08 	movl   $0x8056196,(%esp)
 8053897:	e8 a4 5e ff ff       	call   8049740 <puts@plt>
 805389c:	c7 04 24 ff ff ff ff 	movl   $0xffffffff,(%esp)
 80538a3:	e8 d8 5e ff ff       	call   8049780 <exit@plt>
 80538a8:	8b 55 e4             	mov    -0x1c(%ebp),%edx
 80538ab:	8b 45 ec             	mov    -0x14(%ebp),%eax
 80538ae:	01 d0                	add    %edx,%eax
 80538b0:	0f b6 00             	movzbl (%eax),%eax
 80538b3:	3c 01                	cmp    $0x1,%al
 80538b5:	75 04                	jne    80538bb <gaa+0x5ae>
 80538b7:	83 45 e8 01          	addl   $0x1,-0x18(%ebp)
 80538bb:	83 45 e0 01          	addl   $0x1,-0x20(%ebp)
 80538bf:	8b 45 e0             	mov    -0x20(%ebp),%eax
 80538c2:	83 f8 01             	cmp    $0x1,%eax
 80538c5:	76 a8                	jbe    805386f <gaa+0x562>
 80538c7:	83 7d e8 01          	cmpl   $0x1,-0x18(%ebp)
 80538cb:	7e 1e                	jle    80538eb <gaa+0x5de>
 80538cd:	c7 44 24 04 da 61 05 	movl   $0x80561da,0x4(%esp)
 80538d4:	08 
 80538d5:	c7 04 24 b4 61 05 08 	movl   $0x80561b4,(%esp)
 80538dc:	e8 9f 5b ff ff       	call   8049480 <printf@plt>
 80538e1:	b8 00 00 00 00       	mov    $0x0,%eax
 80538e6:	e9 bf 00 00 00       	jmp    80539aa <gaa+0x69d>
 80538eb:	8b 45 ec             	mov    -0x14(%ebp),%eax
 80538ee:	89 44 24 0c          	mov    %eax,0xc(%esp)
 80538f2:	8b 45 10             	mov    0x10(%ebp),%eax
 80538f5:	89 44 24 08          	mov    %eax,0x8(%esp)
 80538f9:	c7 44 24 04 01 00 00 	movl   $0x1,0x4(%esp)
 8053900:	00 
 8053901:	c7 04 24 00 00 00 00 	movl   $0x0,(%esp)
 8053908:	e8 60 ef ff ff       	call   805286d <gaa_try>
 805390d:	83 f8 01             	cmp    $0x1,%eax
 8053910:	74 0c                	je     805391e <gaa+0x611>
 8053912:	83 f8 02             	cmp    $0x2,%eax
 8053915:	74 1a                	je     8053931 <gaa+0x624>
 8053917:	83 f8 ff             	cmp    $0xffffffff,%eax
 805391a:	74 36                	je     8053952 <gaa+0x645>
 805391c:	eb 26                	jmp    8053944 <gaa+0x637>
 805391e:	c7 04 24 dd 61 05 08 	movl   $0x80561dd,(%esp)
 8053925:	e8 16 5e ff ff       	call   8049740 <puts@plt>
 805392a:	b8 00 00 00 00       	mov    $0x0,%eax
 805392f:	eb 79                	jmp    80539aa <gaa+0x69d>
 8053931:	c7 04 24 5e 61 05 08 	movl   $0x805615e,(%esp)
 8053938:	e8 03 5e ff ff       	call   8049740 <puts@plt>
 805393d:	b8 00 00 00 00       	mov    $0x0,%eax
 8053942:	eb 66                	jmp    80539aa <gaa+0x69d>
 8053944:	c7 04 24 70 61 05 08 	movl   $0x8056170,(%esp)
 805394b:	e8 f0 5d ff ff       	call   8049740 <puts@plt>
 8053950:	eb 01                	jmp    8053953 <gaa+0x646>
 8053952:	90                   	nop
 8053953:	c7 45 e0 01 00 00 00 	movl   $0x1,-0x20(%ebp)
 805395a:	eb 29                	jmp    8053985 <gaa+0x678>
 805395c:	8b 15 e8 16 08 08    	mov    0x80816e8,%edx
 8053962:	8b 45 e0             	mov    -0x20(%ebp),%eax
 8053965:	01 d0                	add    %edx,%eax
 8053967:	0f b6 00             	movzbl (%eax),%eax
 805396a:	84 c0                	test   %al,%al
 805396c:	75 13                	jne    8053981 <gaa+0x674>
 805396e:	c7 04 24 f9 61 05 08 	movl   $0x80561f9,(%esp)
 8053975:	e8 c6 5d ff ff       	call   8049740 <puts@plt>
 805397a:	b8 00 00 00 00       	mov    $0x0,%eax
 805397f:	eb 29                	jmp    80539aa <gaa+0x69d>
 8053981:	83 45 e0 01          	addl   $0x1,-0x20(%ebp)
 8053985:	8b 45 e0             	mov    -0x20(%ebp),%eax
 8053988:	3b 45 08             	cmp    0x8(%ebp),%eax
 805398b:	7c cf                	jl     805395c <gaa+0x64f>
 805398d:	a1 e8 16 08 08       	mov    0x80816e8,%eax
 8053992:	89 04 24             	mov    %eax,(%esp)
 8053995:	e8 e2 b9 ff ff       	call   804f37c <_mcrypt_free>
 805399a:	8b 45 ec             	mov    -0x14(%ebp),%eax
 805399d:	89 04 24             	mov    %eax,(%esp)
 80539a0:	e8 d7 b9 ff ff       	call   804f37c <_mcrypt_free>
 80539a5:	b8 ff ff ff ff       	mov    $0xffffffff,%eax
 80539aa:	83 c4 34             	add    $0x34,%esp
 80539ad:	5b                   	pop    %ebx
 80539ae:	5d                   	pop    %ebp
 80539af:	c3                   	ret    

080539b0 <gaa_internal_get_next_str>:
 80539b0:	55                   	push   %ebp
 80539b1:	89 e5                	mov    %esp,%ebp
 80539b3:	83 ec 38             	sub    $0x38,%esp
 80539b6:	c7 45 e8 00 00 00 00 	movl   $0x0,-0x18(%ebp)
 80539bd:	c7 45 ec 00 00 00 00 	movl   $0x0,-0x14(%ebp)
 80539c4:	c7 45 f0 00 00 00 00 	movl   $0x0,-0x10(%ebp)
 80539cb:	83 7d 10 01          	cmpl   $0x1,0x10(%ebp)
 80539cf:	75 07                	jne    80539d8 <gaa_internal_get_next_str+0x28>
 80539d1:	c7 45 f0 01 00 00 00 	movl   $0x1,-0x10(%ebp)
 80539d8:	8d 45 e7             	lea    -0x19(%ebp),%eax
 80539db:	89 44 24 08          	mov    %eax,0x8(%esp)
 80539df:	c7 44 24 04 0c 62 05 	movl   $0x805620c,0x4(%esp)
 80539e6:	08 
 80539e7:	8b 45 08             	mov    0x8(%ebp),%eax
 80539ea:	89 04 24             	mov    %eax,(%esp)
 80539ed:	e8 9e 5a ff ff       	call   8049490 <__isoc99_fscanf@plt>
 80539f2:	83 f8 01             	cmp    $0x1,%eax
 80539f5:	74 0a                	je     8053a01 <gaa_internal_get_next_str+0x51>
 80539f7:	b8 00 00 00 00       	mov    $0x0,%eax
 80539fc:	e9 84 01 00 00       	jmp    8053b85 <gaa_internal_get_next_str+0x1d5>
 8053a01:	eb 3f                	jmp    8053a42 <gaa_internal_get_next_str+0x92>
 8053a03:	0f b6 45 e7          	movzbl -0x19(%ebp),%eax
 8053a07:	3c 0a                	cmp    $0xa,%al
 8053a09:	75 0e                	jne    8053a19 <gaa_internal_get_next_str+0x69>
 8053a0b:	c7 45 f0 01 00 00 00 	movl   $0x1,-0x10(%ebp)
 8053a12:	c7 45 ec 02 00 00 00 	movl   $0x2,-0x14(%ebp)
 8053a19:	8d 45 e7             	lea    -0x19(%ebp),%eax
 8053a1c:	89 44 24 08          	mov    %eax,0x8(%esp)
 8053a20:	c7 44 24 04 0c 62 05 	movl   $0x805620c,0x4(%esp)
 8053a27:	08 
 8053a28:	8b 45 08             	mov    0x8(%ebp),%eax
 8053a2b:	89 04 24             	mov    %eax,(%esp)
 8053a2e:	e8 5d 5a ff ff       	call   8049490 <__isoc99_fscanf@plt>
 8053a33:	83 f8 01             	cmp    $0x1,%eax
 8053a36:	74 0a                	je     8053a42 <gaa_internal_get_next_str+0x92>
 8053a38:	b8 00 00 00 00       	mov    $0x0,%eax
 8053a3d:	e9 43 01 00 00       	jmp    8053b85 <gaa_internal_get_next_str+0x1d5>
 8053a42:	0f b6 45 e7          	movzbl -0x19(%ebp),%eax
 8053a46:	3c 20                	cmp    $0x20,%al
 8053a48:	74 b9                	je     8053a03 <gaa_internal_get_next_str+0x53>
 8053a4a:	0f b6 45 e7          	movzbl -0x19(%ebp),%eax
 8053a4e:	3c 09                	cmp    $0x9,%al
 8053a50:	74 b1                	je     8053a03 <gaa_internal_get_next_str+0x53>
 8053a52:	0f b6 45 e7          	movzbl -0x19(%ebp),%eax
 8053a56:	3c 0a                	cmp    $0xa,%al
 8053a58:	74 a9                	je     8053a03 <gaa_internal_get_next_str+0x53>
 8053a5a:	8b 45 08             	mov    0x8(%ebp),%eax
 8053a5d:	89 04 24             	mov    %eax,(%esp)
 8053a60:	e8 1b 5e ff ff       	call   8049880 <ftell@plt>
 8053a65:	83 e8 01             	sub    $0x1,%eax
 8053a68:	89 45 f4             	mov    %eax,-0xc(%ebp)
 8053a6b:	eb 27                	jmp    8053a94 <gaa_internal_get_next_str+0xe4>
 8053a6d:	83 45 ec 01          	addl   $0x1,-0x14(%ebp)
 8053a71:	8d 45 e7             	lea    -0x19(%ebp),%eax
 8053a74:	89 44 24 08          	mov    %eax,0x8(%esp)
 8053a78:	c7 44 24 04 0c 62 05 	movl   $0x805620c,0x4(%esp)
 8053a7f:	08 
 8053a80:	8b 45 08             	mov    0x8(%ebp),%eax
 8053a83:	89 04 24             	mov    %eax,(%esp)
 8053a86:	e8 05 5a ff ff       	call   8049490 <__isoc99_fscanf@plt>
 8053a8b:	83 f8 01             	cmp    $0x1,%eax
 8053a8e:	74 04                	je     8053a94 <gaa_internal_get_next_str+0xe4>
 8053a90:	c6 45 e7 20          	movb   $0x20,-0x19(%ebp)
 8053a94:	0f b6 45 e7          	movzbl -0x19(%ebp),%eax
 8053a98:	3c 20                	cmp    $0x20,%al
 8053a9a:	74 10                	je     8053aac <gaa_internal_get_next_str+0xfc>
 8053a9c:	0f b6 45 e7          	movzbl -0x19(%ebp),%eax
 8053aa0:	3c 09                	cmp    $0x9,%al
 8053aa2:	74 08                	je     8053aac <gaa_internal_get_next_str+0xfc>
 8053aa4:	0f b6 45 e7          	movzbl -0x19(%ebp),%eax
 8053aa8:	3c 0a                	cmp    $0xa,%al
 8053aaa:	75 c1                	jne    8053a6d <gaa_internal_get_next_str+0xbd>
 8053aac:	8b 45 ec             	mov    -0x14(%ebp),%eax
 8053aaf:	83 c0 01             	add    $0x1,%eax
 8053ab2:	89 04 24             	mov    %eax,(%esp)
 8053ab5:	e8 ca b6 ff ff       	call   804f184 <_mcrypt_malloc>
 8053aba:	89 c2                	mov    %eax,%edx
 8053abc:	8b 45 0c             	mov    0xc(%ebp),%eax
 8053abf:	89 10                	mov    %edx,(%eax)
 8053ac1:	83 7d f0 01          	cmpl   $0x1,-0x10(%ebp)
 8053ac5:	75 1c                	jne    8053ae3 <gaa_internal_get_next_str+0x133>
 8053ac7:	8b 45 0c             	mov    0xc(%ebp),%eax
 8053aca:	8b 00                	mov    (%eax),%eax
 8053acc:	c6 00 2d             	movb   $0x2d,(%eax)
 8053acf:	8b 45 0c             	mov    0xc(%ebp),%eax
 8053ad2:	8b 00                	mov    (%eax),%eax
 8053ad4:	83 c0 01             	add    $0x1,%eax
 8053ad7:	c6 00 2d             	movb   $0x2d,(%eax)
 8053ada:	c7 45 e8 02 00 00 00 	movl   $0x2,-0x18(%ebp)
 8053ae1:	eb 07                	jmp    8053aea <gaa_internal_get_next_str+0x13a>
 8053ae3:	c7 45 e8 00 00 00 00 	movl   $0x0,-0x18(%ebp)
 8053aea:	c7 44 24 08 00 00 00 	movl   $0x0,0x8(%esp)
 8053af1:	00 
 8053af2:	8b 45 f4             	mov    -0xc(%ebp),%eax
 8053af5:	89 44 24 04          	mov    %eax,0x4(%esp)
 8053af9:	8b 45 08             	mov    0x8(%ebp),%eax
 8053afc:	89 04 24             	mov    %eax,(%esp)
 8053aff:	e8 3c 5b ff ff       	call   8049640 <fseek@plt>
 8053b04:	8d 45 e7             	lea    -0x19(%ebp),%eax
 8053b07:	89 44 24 08          	mov    %eax,0x8(%esp)
 8053b0b:	c7 44 24 04 0c 62 05 	movl   $0x805620c,0x4(%esp)
 8053b12:	08 
 8053b13:	8b 45 08             	mov    0x8(%ebp),%eax
 8053b16:	89 04 24             	mov    %eax,(%esp)
 8053b19:	e8 72 59 ff ff       	call   8049490 <__isoc99_fscanf@plt>
 8053b1e:	83 f8 01             	cmp    $0x1,%eax
 8053b21:	74 06                	je     8053b29 <gaa_internal_get_next_str+0x179>
 8053b23:	83 45 e8 02          	addl   $0x2,-0x18(%ebp)
 8053b27:	eb 2c                	jmp    8053b55 <gaa_internal_get_next_str+0x1a5>
 8053b29:	8b 45 0c             	mov    0xc(%ebp),%eax
 8053b2c:	8b 10                	mov    (%eax),%edx
 8053b2e:	8b 45 e8             	mov    -0x18(%ebp),%eax
 8053b31:	01 c2                	add    %eax,%edx
 8053b33:	0f b6 45 e7          	movzbl -0x19(%ebp),%eax
 8053b37:	88 02                	mov    %al,(%edx)
 8053b39:	83 45 e8 01          	addl   $0x1,-0x18(%ebp)
 8053b3d:	0f b6 45 e7          	movzbl -0x19(%ebp),%eax
 8053b41:	3c 20                	cmp    $0x20,%al
 8053b43:	74 10                	je     8053b55 <gaa_internal_get_next_str+0x1a5>
 8053b45:	0f b6 45 e7          	movzbl -0x19(%ebp),%eax
 8053b49:	3c 09                	cmp    $0x9,%al
 8053b4b:	74 08                	je     8053b55 <gaa_internal_get_next_str+0x1a5>
 8053b4d:	0f b6 45 e7          	movzbl -0x19(%ebp),%eax
 8053b51:	3c 0a                	cmp    $0xa,%al
 8053b53:	75 af                	jne    8053b04 <gaa_internal_get_next_str+0x154>
 8053b55:	8b 45 0c             	mov    0xc(%ebp),%eax
 8053b58:	8b 00                	mov    (%eax),%eax
 8053b5a:	8b 55 e8             	mov    -0x18(%ebp),%edx
 8053b5d:	83 ea 01             	sub    $0x1,%edx
 8053b60:	01 d0                	add    %edx,%eax
 8053b62:	c6 00 00             	movb   $0x0,(%eax)
 8053b65:	c7 44 24 08 01 00 00 	movl   $0x1,0x8(%esp)
 8053b6c:	00 
 8053b6d:	c7 44 24 04 ff ff ff 	movl   $0xffffffff,0x4(%esp)
 8053b74:	ff 
 8053b75:	8b 45 08             	mov    0x8(%ebp),%eax
 8053b78:	89 04 24             	mov    %eax,(%esp)
 8053b7b:	e8 c0 5a ff ff       	call   8049640 <fseek@plt>
 8053b80:	b8 ff ff ff ff       	mov    $0xffffffff,%eax
 8053b85:	c9                   	leave  
 8053b86:	c3                   	ret    

08053b87 <gaa_file>:
 8053b87:	55                   	push   %ebp
 8053b88:	89 e5                	mov    %esp,%ebp
 8053b8a:	83 ec 38             	sub    $0x38,%esp
 8053b8d:	c7 45 e8 00 00 00 00 	movl   $0x0,-0x18(%ebp)
 8053b94:	c7 05 98 15 06 08 01 	movl   $0x1,0x8061598
 8053b9b:	00 00 00 
 8053b9e:	c7 44 24 04 a1 60 05 	movl   $0x80560a1,0x4(%esp)
 8053ba5:	08 
 8053ba6:	8b 45 08             	mov    0x8(%ebp),%eax
 8053ba9:	89 04 24             	mov    %eax,(%esp)
 8053bac:	e8 ef 5c ff ff       	call   80498a0 <fopen@plt>
 8053bb1:	89 45 ec             	mov    %eax,-0x14(%ebp)
 8053bb4:	83 7d ec 00          	cmpl   $0x0,-0x14(%ebp)
 8053bb8:	75 1d                	jne    8053bd7 <gaa_file+0x50>
 8053bba:	8b 45 08             	mov    0x8(%ebp),%eax
 8053bbd:	89 44 24 04          	mov    %eax,0x4(%esp)
 8053bc1:	c7 04 24 10 62 05 08 	movl   $0x8056210,(%esp)
 8053bc8:	e8 b3 58 ff ff       	call   8049480 <printf@plt>
 8053bcd:	b8 00 00 00 00       	mov    $0x0,%eax
 8053bd2:	e9 f3 00 00 00       	jmp    8053cca <gaa_file+0x143>
 8053bd7:	8d 45 d8             	lea    -0x28(%ebp),%eax
 8053bda:	89 45 dc             	mov    %eax,-0x24(%ebp)
 8053bdd:	83 45 e8 01          	addl   $0x1,-0x18(%ebp)
 8053be1:	c7 04 24 08 00 00 00 	movl   $0x8,(%esp)
 8053be8:	e8 97 b5 ff ff       	call   804f184 <_mcrypt_malloc>
 8053bed:	89 c2                	mov    %eax,%edx
 8053bef:	8b 45 dc             	mov    -0x24(%ebp),%eax
 8053bf2:	89 10                	mov    %edx,(%eax)
 8053bf4:	8b 45 dc             	mov    -0x24(%ebp),%eax
 8053bf7:	8b 00                	mov    (%eax),%eax
 8053bf9:	c7 00 00 00 00 00    	movl   $0x0,(%eax)
 8053bff:	8b 45 dc             	mov    -0x24(%ebp),%eax
 8053c02:	8b 00                	mov    (%eax),%eax
 8053c04:	c7 40 04 00 00 00 00 	movl   $0x0,0x4(%eax)
 8053c0b:	8b 45 dc             	mov    -0x24(%ebp),%eax
 8053c0e:	8b 00                	mov    (%eax),%eax
 8053c10:	8b 55 e8             	mov    -0x18(%ebp),%edx
 8053c13:	89 54 24 08          	mov    %edx,0x8(%esp)
 8053c17:	89 44 24 04          	mov    %eax,0x4(%esp)
 8053c1b:	8b 45 ec             	mov    -0x14(%ebp),%eax
 8053c1e:	89 04 24             	mov    %eax,(%esp)
 8053c21:	e8 8a fd ff ff       	call   80539b0 <gaa_internal_get_next_str>
 8053c26:	89 45 f0             	mov    %eax,-0x10(%ebp)
 8053c29:	8b 45 dc             	mov    -0x24(%ebp),%eax
 8053c2c:	8b 00                	mov    (%eax),%eax
 8053c2e:	83 c0 04             	add    $0x4,%eax
 8053c31:	89 45 dc             	mov    %eax,-0x24(%ebp)
 8053c34:	83 7d f0 ff          	cmpl   $0xffffffff,-0x10(%ebp)
 8053c38:	74 a3                	je     8053bdd <gaa_file+0x56>
 8053c3a:	83 7d f0 01          	cmpl   $0x1,-0x10(%ebp)
 8053c3e:	75 0a                	jne    8053c4a <gaa_file+0xc3>
 8053c40:	b8 00 00 00 00       	mov    $0x0,%eax
 8053c45:	e9 80 00 00 00       	jmp    8053cca <gaa_file+0x143>
 8053c4a:	8b 45 e8             	mov    -0x18(%ebp),%eax
 8053c4d:	83 c0 01             	add    $0x1,%eax
 8053c50:	c1 e0 02             	shl    $0x2,%eax
 8053c53:	89 04 24             	mov    %eax,(%esp)
 8053c56:	e8 29 b5 ff ff       	call   804f184 <_mcrypt_malloc>
 8053c5b:	89 45 f4             	mov    %eax,-0xc(%ebp)
 8053c5e:	8b 45 d8             	mov    -0x28(%ebp),%eax
 8053c61:	89 45 e0             	mov    %eax,-0x20(%ebp)
 8053c64:	8b 45 f4             	mov    -0xc(%ebp),%eax
 8053c67:	c7 00 43 62 05 08    	movl   $0x8056243,(%eax)
 8053c6d:	c7 45 e4 01 00 00 00 	movl   $0x1,-0x1c(%ebp)
 8053c74:	eb 23                	jmp    8053c99 <gaa_file+0x112>
 8053c76:	8b 45 e4             	mov    -0x1c(%ebp),%eax
 8053c79:	8d 14 85 00 00 00 00 	lea    0x0(,%eax,4),%edx
 8053c80:	8b 45 f4             	mov    -0xc(%ebp),%eax
 8053c83:	01 c2                	add    %eax,%edx
 8053c85:	8b 45 e0             	mov    -0x20(%ebp),%eax
 8053c88:	8b 00                	mov    (%eax),%eax
 8053c8a:	89 02                	mov    %eax,(%edx)
 8053c8c:	8b 45 e0             	mov    -0x20(%ebp),%eax
 8053c8f:	8b 40 04             	mov    0x4(%eax),%eax
 8053c92:	89 45 e0             	mov    %eax,-0x20(%ebp)
 8053c95:	83 45 e4 01          	addl   $0x1,-0x1c(%ebp)
 8053c99:	8b 45 e4             	mov    -0x1c(%ebp),%eax
 8053c9c:	3b 45 e8             	cmp    -0x18(%ebp),%eax
 8053c9f:	7c d5                	jl     8053c76 <gaa_file+0xef>
 8053ca1:	8b 45 0c             	mov    0xc(%ebp),%eax
 8053ca4:	89 44 24 08          	mov    %eax,0x8(%esp)
 8053ca8:	8b 45 f4             	mov    -0xc(%ebp),%eax
 8053cab:	89 44 24 04          	mov    %eax,0x4(%esp)
 8053caf:	8b 45 e8             	mov    -0x18(%ebp),%eax
 8053cb2:	89 04 24             	mov    %eax,(%esp)
 8053cb5:	e8 53 f6 ff ff       	call   805330d <gaa>
 8053cba:	89 45 f0             	mov    %eax,-0x10(%ebp)
 8053cbd:	c7 05 98 15 06 08 00 	movl   $0x0,0x8061598
 8053cc4:	00 00 00 
 8053cc7:	8b 45 f0             	mov    -0x10(%ebp),%eax
 8053cca:	c9                   	leave  
 8053ccb:	c3                   	ret    
 8053ccc:	66 90                	xchg   %ax,%ax
 8053cce:	66 90                	xchg   %ax,%ax

08053cd0 <__libc_csu_init>:
 8053cd0:	55                   	push   %ebp
 8053cd1:	57                   	push   %edi
 8053cd2:	31 ff                	xor    %edi,%edi
 8053cd4:	56                   	push   %esi
 8053cd5:	53                   	push   %ebx
 8053cd6:	e8 05 5e ff ff       	call   8049ae0 <__x86.get_pc_thunk.bx>
 8053cdb:	81 c3 25 53 00 00    	add    $0x5325,%ebx
 8053ce1:	83 ec 1c             	sub    $0x1c,%esp
 8053ce4:	8b 6c 24 30          	mov    0x30(%esp),%ebp
 8053ce8:	8d b3 f4 fe ff ff    	lea    -0x10c(%ebx),%esi
 8053cee:	e8 cd 56 ff ff       	call   80493c0 <_init>
 8053cf3:	8d 83 f0 fe ff ff    	lea    -0x110(%ebx),%eax
 8053cf9:	29 c6                	sub    %eax,%esi
 8053cfb:	c1 fe 02             	sar    $0x2,%esi
 8053cfe:	85 f6                	test   %esi,%esi
 8053d00:	74 27                	je     8053d29 <__libc_csu_init+0x59>
 8053d02:	8d b6 00 00 00 00    	lea    0x0(%esi),%esi
 8053d08:	8b 44 24 38          	mov    0x38(%esp),%eax
 8053d0c:	89 2c 24             	mov    %ebp,(%esp)
 8053d0f:	89 44 24 08          	mov    %eax,0x8(%esp)
 8053d13:	8b 44 24 34          	mov    0x34(%esp),%eax
 8053d17:	89 44 24 04          	mov    %eax,0x4(%esp)
 8053d1b:	ff 94 bb f0 fe ff ff 	call   *-0x110(%ebx,%edi,4)
 8053d22:	83 c7 01             	add    $0x1,%edi
 8053d25:	39 f7                	cmp    %esi,%edi
 8053d27:	75 df                	jne    8053d08 <__libc_csu_init+0x38>
 8053d29:	83 c4 1c             	add    $0x1c,%esp
 8053d2c:	5b                   	pop    %ebx
 8053d2d:	5e                   	pop    %esi
 8053d2e:	5f                   	pop    %edi
 8053d2f:	5d                   	pop    %ebp
 8053d30:	c3                   	ret    
 8053d31:	eb 0d                	jmp    8053d40 <__libc_csu_fini>
 8053d33:	90                   	nop
 8053d34:	90                   	nop
 8053d35:	90                   	nop
 8053d36:	90                   	nop
 8053d37:	90                   	nop
 8053d38:	90                   	nop
 8053d39:	90                   	nop
 8053d3a:	90                   	nop
 8053d3b:	90                   	nop
 8053d3c:	90                   	nop
 8053d3d:	90                   	nop
 8053d3e:	90                   	nop
 8053d3f:	90                   	nop

08053d40 <__libc_csu_fini>:
 8053d40:	f3 c3                	repz ret 
 8053d42:	66 90                	xchg   %ax,%ax
 8053d44:	66 90                	xchg   %ax,%ax
 8053d46:	66 90                	xchg   %ax,%ax
 8053d48:	66 90                	xchg   %ax,%ax
 8053d4a:	66 90                	xchg   %ax,%ax
 8053d4c:	66 90                	xchg   %ax,%ax
 8053d4e:	66 90                	xchg   %ax,%ax

08053d50 <__stat>:
 8053d50:	53                   	push   %ebx
 8053d51:	83 ec 18             	sub    $0x18,%esp
 8053d54:	8b 44 24 24          	mov    0x24(%esp),%eax
 8053d58:	e8 83 5d ff ff       	call   8049ae0 <__x86.get_pc_thunk.bx>
 8053d5d:	81 c3 a3 52 00 00    	add    $0x52a3,%ebx
 8053d63:	c7 04 24 03 00 00 00 	movl   $0x3,(%esp)
 8053d6a:	89 44 24 08          	mov    %eax,0x8(%esp)
 8053d6e:	8b 44 24 20          	mov    0x20(%esp),%eax
 8053d72:	89 44 24 04          	mov    %eax,0x4(%esp)
 8053d76:	e8 d5 58 ff ff       	call   8049650 <__xstat@plt>
 8053d7b:	83 c4 18             	add    $0x18,%esp
 8053d7e:	5b                   	pop    %ebx
 8053d7f:	c3                   	ret    

08053d80 <__lstat>:
 8053d80:	53                   	push   %ebx
 8053d81:	83 ec 18             	sub    $0x18,%esp
 8053d84:	8b 44 24 24          	mov    0x24(%esp),%eax
 8053d88:	e8 53 5d ff ff       	call   8049ae0 <__x86.get_pc_thunk.bx>
 8053d8d:	81 c3 73 52 00 00    	add    $0x5273,%ebx
 8053d93:	c7 04 24 03 00 00 00 	movl   $0x3,(%esp)
 8053d9a:	89 44 24 08          	mov    %eax,0x8(%esp)
 8053d9e:	8b 44 24 20          	mov    0x20(%esp),%eax
 8053da2:	89 44 24 04          	mov    %eax,0x4(%esp)
 8053da6:	e8 25 5c ff ff       	call   80499d0 <__lxstat@plt>
 8053dab:	83 c4 18             	add    $0x18,%esp
 8053dae:	5b                   	pop    %ebx
 8053daf:	c3                   	ret    

Disassembly of section .fini:

08053db0 <_fini>:
 8053db0:	53                   	push   %ebx
 8053db1:	83 ec 08             	sub    $0x8,%esp
 8053db4:	e8 27 5d ff ff       	call   8049ae0 <__x86.get_pc_thunk.bx>
 8053db9:	81 c3 47 52 00 00    	add    $0x5247,%ebx
 8053dbf:	83 c4 08             	add    $0x8,%esp
 8053dc2:	5b                   	pop    %ebx
 8053dc3:	c3                   	ret    
